; ModuleID = '/hypre/src/FEI_mv/femli/mli_fedata.cxx'
source_filename = "/hypre/src/FEI_mv/femli/mli_fedata.cxx"
target datalayout = "e-m:e-p270:32:32-p271:32:32-p272:64:64-i64:64-f80:128-n8:16:32:64-S128"
target triple = "x86_64-unknown-linux-gnu"

%class.MLI_FEData = type { %class.MLI_FEBase, i32, i32, i32, i32, i32, i32, %struct.MLI_ElemBlock_Struct**, i32, i32, i32*, i32*, i8*, i32 (i8*, i32, i32, double*, double*)*, i32 (i8*, i32, i32, double*)* }
%class.MLI_FEBase = type { i32 (...)** }
%struct.MLI_ElemBlock_Struct = type { i32, i32*, i32*, i32, i32**, i32, i32*, i32, i32, double**, i32*, double**, double*, i32*, i32*, double**, double**, i32, i32**, i32, i32*, i8**, double**, i32, i32, i32, i32*, i32, i32*, i32, double*, i32, i32*, i8**, double**, i32, i32*, i32*, i32**, i32*, i32, i32, i32, i32*, i32, i32**, i32, i32*, i32*, i32**, i32*, i32, i32 }
%struct.MPI_Status = type { i32, i32, i32, i32, i32 }
%struct._IO_FILE = type { i32, i8*, i8*, i8*, i8*, i8*, i8*, i8*, i8*, i8*, i8*, i8*, %struct._IO_marker*, %struct._IO_FILE*, i32, i32, i64, i16, i8, [1 x i8], i8*, i64, %struct._IO_codecvt*, %struct._IO_wide_data*, %struct._IO_FILE*, i8*, i64, i32, [20 x i8] }
%struct._IO_marker = type opaque
%struct._IO_codecvt = type opaque
%struct._IO_wide_data = type opaque

@_ZTV10MLI_FEData = dso_local unnamed_addr constant { [84 x i8*] } { [84 x i8*] [i8* null, i8* bitcast ({ i8*, i8*, i8* }* @_ZTI10MLI_FEData to i8*), i8* bitcast (void (%class.MLI_FEData*)* @_ZN10MLI_FEDataD2Ev to i8*), i8* bitcast (void (%class.MLI_FEData*)* @_ZN10MLI_FEDataD0Ev to i8*), i8* bitcast (i32 (%class.MLI_FEData*, i32)* @_ZN10MLI_FEData14setOutputLevelEi to i8*), i8* bitcast (i32 (%class.MLI_FEData*, i32)* @_ZN10MLI_FEData17setSpaceDimensionEi to i8*), i8* bitcast (i32 (%class.MLI_FEData*, i32)* @_ZN10MLI_FEData13setOrderOfPDEEi to i8*), i8* bitcast (i32 (%class.MLI_FEData*, i32)* @_ZN10MLI_FEData12setOrderOfFEEi to i8*), i8* bitcast (i32 (%class.MLI_FEData*, i32)* @_ZN10MLI_FEData21setCurrentElemBlockIDEi to i8*), i8* bitcast (i32 (%class.MLI_FEData*, i32, i32*, i32*)* @_ZN10MLI_FEData10initFieldsEiPKiS1_ to i8*), i8* bitcast (i32 (%class.MLI_FEData*, i32, i32, i32, i32*, i32, i32*)* @_ZN10MLI_FEData13initElemBlockEiiiPKiiS1_ to i8*), i8* bitcast (i32 (%class.MLI_FEData*, i32, i32, i32*, i32, double*)* @_ZN10MLI_FEData16initElemNodeListEiiPKiiPKd to i8*), i8* bitcast (i32 (%class.MLI_FEData*, i32, i32*, i32, i32**, i32, double**)* @_ZN10MLI_FEData22initElemBlockNodeListsEiPKiiPKS1_iPKPKd to i8*), i8* bitcast (i32 (%class.MLI_FEData*, i32, i32*, i32*, i32**)* @_ZN10MLI_FEData15initSharedNodesEiPKiS1_PKS1_ to i8*), i8* bitcast (i32 (%class.MLI_FEData*, i32, i32, i32**)* @_ZN10MLI_FEData22initElemBlockFaceListsEiiPKPKi to i8*), i8* bitcast (i32 (%class.MLI_FEData*, i32, i32*, i32, i32**)* @_ZN10MLI_FEData22initFaceBlockNodeListsEiPKiiPKS1_ to i8*), i8* bitcast (i32 (%class.MLI_FEData*, i32, i32*, i32*, i32**)* @_ZN10MLI_FEData15initSharedFacesEiPKiS1_PKS1_ to i8*), i8* bitcast (i32 (%class.MLI_FEData*)* @_ZN10MLI_FEData12initCompleteEv to i8*), i8* bitcast (i32 (%class.MLI_FEData*, i32, i32, double**)* @_ZN10MLI_FEData21loadElemBlockMatricesEiiPKPKd to i8*), i8* bitcast (i32 (%class.MLI_FEData*, i32, i32*, i32, double**)* @_ZN10MLI_FEData23loadElemBlockNullSpacesEiPKiiPKPKd to i8*), i8* bitcast (i32 (%class.MLI_FEData*, i32, double*)* @_ZN10MLI_FEData20loadElemBlockVolumesEiPKd to i8*), i8* bitcast (i32 (%class.MLI_FEData*, i32, i32*)* @_ZN10MLI_FEData22loadElemBlockMaterialsEiPKi to i8*), i8* bitcast (i32 (%class.MLI_FEData*, i32, i32*)* @_ZN10MLI_FEData22loadElemBlockParentIDsEiPKi to i8*), i8* bitcast (i32 (%class.MLI_FEData*, i32, i32, double**)* @_ZN10MLI_FEData18loadElemBlockLoadsEiiPKPKd to i8*), i8* bitcast (i32 (%class.MLI_FEData*, i32, i32, double**)* @_ZN10MLI_FEData22loadElemBlockSolutionsEiiPKPKd to i8*), i8* bitcast (i32 (%class.MLI_FEData*, i32, i32*, i32, i8**, double**)* @_ZN10MLI_FEData11loadElemBCsEiPKiiPKPKcPKPKd to i8*), i8* bitcast (i32 (%class.MLI_FEData*, i32, i32, double*)* @_ZN10MLI_FEData14loadElemMatrixEiiPKd to i8*), i8* bitcast (i32 (%class.MLI_FEData*, i32, i32, i32, double*)* @_ZN10MLI_FEData17loadElemNullSpaceEiiiPKd to i8*), i8* bitcast (i32 (%class.MLI_FEData*, i32, i32, double*)* @_ZN10MLI_FEData12loadElemLoadEiiPKd to i8*), i8* bitcast (i32 (%class.MLI_FEData*, i32, i32, double*)* @_ZN10MLI_FEData16loadElemSolutionEiiPKd to i8*), i8* bitcast (i32 (%class.MLI_FEBase*, i8*, i32 (i8*, i32, i32, double*)*)* @_ZN10MLI_FEBase22loadFunc_getElemMatrixEPvPFiS0_iiPdE to i8*), i8* bitcast (i32 (%class.MLI_FEData*, i32, i32*, i32, i8**, double**)* @_ZN10MLI_FEData11loadNodeBCsEiPKiiPKPKcPKPKd to i8*), i8* bitcast (i32 (%class.MLI_FEData*, i32*)* @_ZN10MLI_FEData17getSpaceDimensionERi to i8*), i8* bitcast (i32 (%class.MLI_FEData*, i32*)* @_ZN10MLI_FEData13getOrderOfPDEERi to i8*), i8* bitcast (i32 (%class.MLI_FEData*, i32*)* @_ZN10MLI_FEData12getOrderOfFEERi to i8*), i8* bitcast (i32 (%class.MLI_FEData*, i32, i32*)* @_ZN10MLI_FEData12getFieldSizeEiRi to i8*), i8* bitcast (i32 (%class.MLI_FEData*, i32*)* @_ZN10MLI_FEData14getNumElementsERi to i8*), i8* bitcast (i32 (%class.MLI_FEData*, i32*)* @_ZN10MLI_FEData16getElemNumFieldsERi to i8*), i8* bitcast (i32 (%class.MLI_FEData*, i32, i32*)* @_ZN10MLI_FEData15getElemFieldIDsEiPi to i8*), i8* bitcast (i32 (%class.MLI_FEData*, i32, i32*)* @_ZN10MLI_FEData21getElemBlockGlobalIDsEiPi to i8*), i8* bitcast (i32 (%class.MLI_FEData*, i32*)* @_ZN10MLI_FEData15getElemNumNodesERi to i8*), i8* bitcast (i32 (%class.MLI_FEData*, i32, i32, i32**)* @_ZN10MLI_FEData21getElemBlockNodeListsEiiPPi to i8*), i8* bitcast (i32 (%class.MLI_FEData*, i32*)* @_ZN10MLI_FEData16getElemMatrixDimERi to i8*), i8* bitcast (i32 (%class.MLI_FEData*, i32, i32, double**)* @_ZN10MLI_FEData20getElemBlockMatricesEiiPPd to i8*), i8* bitcast (i32 (%class.MLI_FEData*, i32, i32*)* @_ZN10MLI_FEData26getElemBlockNullSpaceSizesEiPi to i8*), i8* bitcast (i32 (%class.MLI_FEData*, i32, i32*, i32, double**)* @_ZN10MLI_FEData22getElemBlockNullSpacesEiPKiiPPd to i8*), i8* bitcast (i32 (%class.MLI_FEData*, i32, double*)* @_ZN10MLI_FEData19getElemBlockVolumesEiPd to i8*), i8* bitcast (i32 (%class.MLI_FEData*, i32, i32*)* @_ZN10MLI_FEData21getElemBlockMaterialsEiPi to i8*), i8* bitcast (i32 (%class.MLI_FEData*, i32, i32*)* @_ZN10MLI_FEData21getElemBlockParentIDsEiPi to i8*), i8* bitcast (i32 (%class.MLI_FEData*, i32*)* @_ZN10MLI_FEData15getElemNumFacesERi to i8*), i8* bitcast (i32 (%class.MLI_FEData*, i32, i32, i32**)* @_ZN10MLI_FEData21getElemBlockFaceListsEiiPPi to i8*), i8* bitcast (i32 (%class.MLI_FEData*, i32, i32, i32*)* @_ZN10MLI_FEData15getElemNodeListEiiPi to i8*), i8* bitcast (i32 (%class.MLI_FEData*, i32, i32, double*)* @_ZN10MLI_FEData13getElemMatrixEiiPd to i8*), i8* bitcast (i32 (%class.MLI_FEData*, i32, i32*)* @_ZN10MLI_FEData20getElemNullSpaceSizeEiRi to i8*), i8* bitcast (i32 (%class.MLI_FEData*, i32, i32, i32, double*)* @_ZN10MLI_FEData16getElemNullSpaceEiiiPd to i8*), i8* bitcast (i32 (%class.MLI_FEData*, i32, double*)* @_ZN10MLI_FEData13getElemVolumeEiRd to i8*), i8* bitcast (i32 (%class.MLI_FEData*, i32, i32*)* @_ZN10MLI_FEData15getElemMaterialEiRi to i8*), i8* bitcast (i32 (%class.MLI_FEData*, i32, i32*)* @_ZN10MLI_FEData15getElemParentIDEiRi to i8*), i8* bitcast (i32 (%class.MLI_FEData*, i32, i32, i32*)* @_ZN10MLI_FEData15getElemFaceListEiiPi to i8*), i8* bitcast (i32 (%class.MLI_FEData*, i32*)* @_ZN10MLI_FEData13getNumBCElemsERi to i8*), i8* bitcast (i32 (%class.MLI_FEData*, i32, i32*, i32, i8**, double**)* @_ZN10MLI_FEData10getElemBCsEiPiiPPcPPd to i8*), i8* bitcast (i32 (%class.MLI_FEData*, i32*)* @_ZN10MLI_FEData11getNumNodesERi to i8*), i8* bitcast (i32 (%class.MLI_FEData*, i32, i32*)* @_ZN10MLI_FEData21getNodeBlockGlobalIDsEiPi to i8*), i8* bitcast (i32 (%class.MLI_FEData*, i32*)* @_ZN10MLI_FEData16getNodeNumFieldsERi to i8*), i8* bitcast (i32 (%class.MLI_FEData*, i32, i32*)* @_ZN10MLI_FEData15getNodeFieldIDsEiPi to i8*), i8* bitcast (i32 (%class.MLI_FEData*, i32, i32, double*)* @_ZN10MLI_FEData23getNodeBlockCoordinatesEiiPd to i8*), i8* bitcast (i32 (%class.MLI_FEData*, i32*)* @_ZN10MLI_FEData13getNumBCNodesERi to i8*), i8* bitcast (i32 (%class.MLI_FEData*, i32, i32*, i32, i8**, double**)* @_ZN10MLI_FEData10getNodeBCsEiPiiPPcPPd to i8*), i8* bitcast (i32 (%class.MLI_FEData*, i32*)* @_ZN10MLI_FEData17getNumSharedNodesERi to i8*), i8* bitcast (i32 (%class.MLI_FEData*, i32, i32*, i32*)* @_ZN10MLI_FEData21getSharedNodeNumProcsEiPiS0_ to i8*), i8* bitcast (i32 (%class.MLI_FEData*, i32, i32*, i32**)* @_ZN10MLI_FEData18getSharedNodeProcsEiPiPS0_ to i8*), i8* bitcast (i32 (%class.MLI_FEData*, i32*)* @_ZN10MLI_FEData11getNumFacesERi to i8*), i8* bitcast (i32 (%class.MLI_FEData*, i32, i32*)* @_ZN10MLI_FEData21getFaceBlockGlobalIDsEiPi to i8*), i8* bitcast (i32 (%class.MLI_FEData*, i32*)* @_ZN10MLI_FEData17getNumSharedFacesERi to i8*), i8* bitcast (i32 (%class.MLI_FEData*, i32, i32*, i32*)* @_ZN10MLI_FEData21getSharedFaceNumProcsEiPiS0_ to i8*), i8* bitcast (i32 (%class.MLI_FEData*, i32, i32*, i32**)* @_ZN10MLI_FEData18getSharedFaceProcsEiPiPS0_ to i8*), i8* bitcast (i32 (%class.MLI_FEData*, i32*)* @_ZN10MLI_FEData15getFaceNumNodesERi to i8*), i8* bitcast (i32 (%class.MLI_FEData*, i32, i32, i32**)* @_ZN10MLI_FEData21getFaceBlockNodeListsEiiPPi to i8*), i8* bitcast (i32 (%class.MLI_FEData*, i32, i32, i32*)* @_ZN10MLI_FEData15getFaceNodeListEiiPi to i8*), i8* bitcast (i32 (%class.MLI_FEData*, i8*, i32 (i8*, i32, i32, double*, double*)*)* @_ZN10MLI_FEData36loadFunc_computeShapeFuncInterpolantEPvPFiS0_iiPKdPdE to i8*), i8* bitcast (i32 (%class.MLI_FEData*, i32, i32, double*, double*)* @_ZN10MLI_FEData23getShapeFuncInterpolantEiiPKdPd to i8*), i8* bitcast (i32 (%class.MLI_FEData*, i8*, i32, i8**)* @_ZN10MLI_FEData19impSpecificRequestsEPciPS0_ to i8*), i8* bitcast (i32 (%class.MLI_FEData*, i8*)* @_ZN10MLI_FEData12readFromFileEPc to i8*), i8* bitcast (i32 (%class.MLI_FEData*, i8*)* @_ZN10MLI_FEData11writeToFileEPc to i8*)] }, align 8
@.str.2 = private unnamed_addr constant [24 x i8] c"setSpaceDimension = %d\0A\00", align 1
@.str.4 = private unnamed_addr constant [20 x i8] c"setOrderOfPDE = %d\0A\00", align 1
@.str.6 = private unnamed_addr constant [19 x i8] c"setOrderOfFE = %d\0A\00", align 1
@.str.8 = private unnamed_addr constant [28 x i8] c"setCurrentElemBlockID = %d\0A\00", align 1
@.str.10 = private unnamed_addr constant [37 x i8] c"\09initFields : number of fields = %d\0A\00", align 1
@.str.11 = private unnamed_addr constant [29 x i8] c"\09  fieldID and size = %d %d\0A\00", align 1
@.str.15 = private unnamed_addr constant [29 x i8] c"initElemBlock : nElems = %d\0A\00", align 1
@.str.16 = private unnamed_addr constant [35 x i8] c"initElemBlock : node nFields = %d\0A\00", align 1
@.str.17 = private unnamed_addr constant [35 x i8] c"initElemBlock : elem nFields = %d\0A\00", align 1
@.str.22 = private unnamed_addr constant [62 x i8] c"initElemBlockNodeLists ERROR : have not called initElemBlock.\00", align 1
@.str.25 = private unnamed_addr constant [56 x i8] c"initElemNodeList ERROR : have not called initElemBlock.\00", align 1
@.str.43 = private unnamed_addr constant [13 x i8] c"         %d\0A\00", align 1
@.str.44 = private unnamed_addr constant [17 x i8] c" nodeArray = %d\0A\00", align 1
@.str.63 = private unnamed_addr constant [47 x i8] c"loadElemBlockSolutions ERROR : solDim invalid.\00", align 1
@.str.157 = private unnamed_addr constant [5 x i8] c"help\00", align 1
@.str.169 = private unnamed_addr constant [14 x i8] c"getElemOffset\00", align 1
@.str.171 = private unnamed_addr constant [14 x i8] c"getNodeOffset\00", align 1
@.str.173 = private unnamed_addr constant [14 x i8] c"getFaceOffset\00", align 1
@.str.175 = private unnamed_addr constant [15 x i8] c"getNumExtNodes\00", align 1
@.str.177 = private unnamed_addr constant [15 x i8] c"getNumExtFaces\00", align 1
@.str.179 = private unnamed_addr constant [23 x i8] c"getExtNodeNewGlobalIDs\00", align 1
@.str.181 = private unnamed_addr constant [23 x i8] c"getExtFaceNewGlobalIDs\00", align 1
@.str.183 = private unnamed_addr constant [18 x i8] c"destroyElemMatrix\00", align 1
@.str.185 = private unnamed_addr constant [21 x i8] c"updateNodeElemMatrix\00", align 1
@.str.187 = private unnamed_addr constant [21 x i8] c"updatefaceElemMatrix\00", align 1
@.str.188 = private unnamed_addr constant [15 x i8] c"%s.elemConn.%d\00", align 1
@.str.189 = private unnamed_addr constant [2 x i8] c"r\00", align 1
@.str.191 = private unnamed_addr constant [3 x i8] c"%d\00", align 1
@.str.192 = private unnamed_addr constant [6 x i8] c"%d %d\00", align 1
@.str.193 = private unnamed_addr constant [16 x i8] c"%s.nodeCoord.%d\00", align 1
@.str.194 = private unnamed_addr constant [4 x i8] c"%lg\00", align 1
@.str.196 = private unnamed_addr constant [17 x i8] c"%s.nodeShared.%d\00", align 1
@.str.197 = private unnamed_addr constant [17 x i8] c"%s.elemMatrix.%d\00", align 1
@.str.200 = private unnamed_addr constant [13 x i8] c"%s.nodeBC.%d\00", align 1
@.str.202 = private unnamed_addr constant [2 x i8] c"w\00", align 1
@.str.204 = private unnamed_addr constant [16 x i8] c"# Data format \0A\00", align 1
@.str.205 = private unnamed_addr constant [23 x i8] c"# A. space dimension \0A\00", align 1
@.str.206 = private unnamed_addr constant [24 x i8] c"# B. number of fields \0A\00", align 1
@.str.207 = private unnamed_addr constant [27 x i8] c"# C. fieldIDs fieldSizes \0A\00", align 1
@.str.208 = private unnamed_addr constant [26 x i8] c"# D. number of elements \0A\00", align 1
@.str.209 = private unnamed_addr constant [35 x i8] c"# E. number of nodes per element \0A\00", align 1
@.str.210 = private unnamed_addr constant [31 x i8] c"# F. number of element fields\0A\00", align 1
@.str.211 = private unnamed_addr constant [24 x i8] c"# G. element field IDs\0A\00", align 1
@.str.212 = private unnamed_addr constant [29 x i8] c"# H. number of nodal fields\0A\00", align 1
@.str.213 = private unnamed_addr constant [22 x i8] c"# I. nodal field IDs\0A\00", align 1
@.str.214 = private unnamed_addr constant [25 x i8] c"# J. element globalIDs \0A\00", align 1
@.str.215 = private unnamed_addr constant [26 x i8] c"# K. element node lists \0A\00", align 1
@.str.216 = private unnamed_addr constant [3 x i8] c"#\0A\00", align 1
@.str.217 = private unnamed_addr constant [6 x i8] c"%12d\0A\00", align 1
@.str.218 = private unnamed_addr constant [11 x i8] c"%12d %12d\0A\00", align 1
@.str.220 = private unnamed_addr constant [4 x i8] c"%d \00", align 1
@.str.222 = private unnamed_addr constant [23 x i8] c"# A. number of nodes \0A\00", align 1
@.str.223 = private unnamed_addr constant [23 x i8] c"# B. space dimension \0A\00", align 1
@.str.224 = private unnamed_addr constant [36 x i8] c"# C. node ID  xcoord ycoord zcoord\0A\00", align 1
@.str.225 = private unnamed_addr constant [5 x i8] c"%12d\00", align 1
@.str.226 = private unnamed_addr constant [8 x i8] c"%20.12e\00", align 1
@.str.228 = private unnamed_addr constant [30 x i8] c"# A. number of shared nodes \0A\00", align 1
@.str.229 = private unnamed_addr constant [46 x i8] c"# B. shared node ID, nprocs, processor list \0A\00", align 1
@.str.230 = private unnamed_addr constant [4 x i8] c"%d\0A\00", align 1
@.str.232 = private unnamed_addr constant [26 x i8] c"# A. number of Elements \0A\00", align 1
@.str.233 = private unnamed_addr constant [35 x i8] c"# B. dimension of element matrix \0A\00", align 1
@.str.234 = private unnamed_addr constant [24 x i8] c"# C. element matrices \0A\00", align 1
@.str.235 = private unnamed_addr constant [5 x i8] c"%d\0A\0A\00", align 1
@.str.236 = private unnamed_addr constant [9 x i8] c"%25.16e \00", align 1
@.str.238 = private unnamed_addr constant [32 x i8] c"# A. number of boundary nodes \0A\00", align 1
@.str.239 = private unnamed_addr constant [31 x i8] c"# B. nodal degree of freedom \0A\00", align 1
@.str.240 = private unnamed_addr constant [42 x i8] c"# C. node ID   (1 or -1)  value (if 1) \0A\0A\00", align 1
@.str.241 = private unnamed_addr constant [18 x i8] c"%12d  1  %25.16e\0A\00", align 1
@.str.242 = private unnamed_addr constant [9 x i8] c"%12d -1\0A\00", align 1
@.str.243 = private unnamed_addr constant [40 x i8] c"createElemBlock : block ID %d invalid.\0A\00", align 1
@.str.244 = private unnamed_addr constant [40 x i8] c"deleteElemBlock : block ID %d invalid.\0A\00", align 1
@.str.245 = private unnamed_addr constant [34 x i8] c"deleteElemBlock : block %d NULL.\0A\00", align 1
@_ZTVN10__cxxabiv120__si_class_type_infoE = external dso_local global i8*
@_ZTS10MLI_FEData = dso_local constant [13 x i8] c"10MLI_FEData\00", align 1
@_ZTI10MLI_FEBase = external dso_local constant i8*
@_ZTI10MLI_FEData = dso_local constant { i8*, i8*, i8* } { i8* bitcast (i8** getelementptr inbounds (i8*, i8** @_ZTVN10__cxxabiv120__si_class_type_infoE, i64 2) to i8*), i8* getelementptr inbounds ([13 x i8], [13 x i8]* @_ZTS10MLI_FEData, i32 0, i32 0), i8* bitcast (i8** @_ZTI10MLI_FEBase to i8*) }, align 8
@str = private unnamed_addr constant [45 x i8] c"setOutputLevel ERROR : level should be >= 0.\00", align 1
@str.246 = private unnamed_addr constant [60 x i8] c"setSpaceDimension ERROR : dimension should be > 0 and <= 4.\00", align 1
@str.247 = private unnamed_addr constant [56 x i8] c"setOrderOfPDE ERROR : PDE order should be > 0 and <= 4.\00", align 1
@str.248 = private unnamed_addr constant [51 x i8] c"setOrderOfFE ERROR : order should be > 0 and <= 4.\00", align 1
@str.249 = private unnamed_addr constant [60 x i8] c"setCurrentElemBlockID ERROR : blockID other than 0 invalid.\00", align 1
@str.250 = private unnamed_addr constant [36 x i8] c"initFields ERROR : nFields invalid.\00", align 1
@str.251 = private unnamed_addr constant [51 x i8] c"initElemBlock ERROR : nNodesPerElem <= 0 or > 200.\00", align 1
@str.252 = private unnamed_addr constant [41 x i8] c"initElemBlock ERROR : nodeNumFields < 0.\00", align 1
@str.253 = private unnamed_addr constant [41 x i8] c"initElemBlock ERROR : elemNumFields < 0.\00", align 1
@str.254 = private unnamed_addr constant [35 x i8] c"initElemBlock ERROR : nElems <= 0.\00", align 1
@str.255 = private unnamed_addr constant [49 x i8] c"initElemBlockNodeLists ERROR : spaceDim invalid.\00", align 1
@str.256 = private unnamed_addr constant [54 x i8] c"initElemBlockNodeLists ERROR : nNodesPerElem invalid.\00", align 1
@str.257 = private unnamed_addr constant [52 x i8] c"initElemBlockNodeLists ERROR : nElems do not match.\00", align 1
@str.258 = private unnamed_addr constant [43 x i8] c"initElemNodeList ERROR : spaceDim invalid.\00", align 1
@str.259 = private unnamed_addr constant [48 x i8] c"initElemNodeList ERROR : nNodesPerElem invalid.\00", align 1
@str.260 = private unnamed_addr constant [52 x i8] c"initSharedNodes WARNING : already initialized (3) ?\00", align 1
@str.261 = private unnamed_addr constant [52 x i8] c"initSharedNodes WARNING : already initialized (2) ?\00", align 1
@str.262 = private unnamed_addr constant [52 x i8] c"initSharedNodes WARNING : already initialized (1) ?\00", align 1
@str.263 = private unnamed_addr constant [36 x i8] c"initSharedNodes ERROR : nNodes < 0.\00", align 1
@str.264 = private unnamed_addr constant [47 x i8] c"initElemBlockFaceLists ERROR : nFaces invalid.\00", align 1
@str.265 = private unnamed_addr constant [52 x i8] c"initElemBlockFaceLists ERROR : nElems do not match.\00", align 1
@str.266 = private unnamed_addr constant [58 x i8] c"initFaceBlockNodeLists ERROR : elem-face not initialized.\00", align 1
@str.267 = private unnamed_addr constant [44 x i8] c"initSharedFaces ERROR : numProcs not valid.\00", align 1
@str.268 = private unnamed_addr constant [52 x i8] c"initSharedFaces WARNING : already initialized (3) ?\00", align 1
@str.269 = private unnamed_addr constant [52 x i8] c"initSharedFaces WARNING : already initialized (2) ?\00", align 1
@str.270 = private unnamed_addr constant [52 x i8] c"initSharedFaces WARNING : already initialized (1) ?\00", align 1
@str.271 = private unnamed_addr constant [37 x i8] c"initSharedFaces ERROR : nFaces <= 0.\00", align 1
@str.273 = private unnamed_addr constant [51 x i8] c"initComplete ERROR : numbers of face do not match.\00", align 1
@str.274 = private unnamed_addr constant [49 x i8] c"initComplete WARNING : face IDs not initialized.\00", align 1
@str.275 = private unnamed_addr constant [54 x i8] c"FEData initComplete ERROR : ext node ID construction.\00", align 1
@str.276 = private unnamed_addr constant [50 x i8] c"initComplete ERROR : shared node not in elements.\00", align 1
@str.277 = private unnamed_addr constant [40 x i8] c"initComplete ERROR : duplicate elemIDs.\00", align 1
@str.278 = private unnamed_addr constant [39 x i8] c"initComplete ERROR : negative node ID.\00", align 1
@str.279 = private unnamed_addr constant [42 x i8] c"initComplete ERROR : negative element ID.\00", align 1
@str.280 = private unnamed_addr constant [56 x i8] c"initComplete ERROR : initElemBlockNodeLists not called.\00", align 1
@str.281 = private unnamed_addr constant [60 x i8] c"loadElemBlockMatrices ERROR : initialization not completed.\00", align 1
@str.282 = private unnamed_addr constant [47 x i8] c"loadElemBlockMatrices ERROR : sMatDim invalid.\00", align 1
@str.283 = private unnamed_addr constant [47 x i8] c"loadElemBlockMatrices ERROR : nElems mismatch.\00", align 1
@str.284 = private unnamed_addr constant [61 x i8] c"loadElemBlockNullSpaces ERROR : initialization not complete.\00", align 1
@str.285 = private unnamed_addr constant [53 x i8] c"loadElemBlockNullSpaces ERROR : nElems do not match.\00", align 1
@str.286 = private unnamed_addr constant [58 x i8] c"loadElemBlockVolumes ERROR : initialization not complete.\00", align 1
@str.287 = private unnamed_addr constant [50 x i8] c"loadElemBlockVolumes ERROR : nElems do not match.\00", align 1
@str.288 = private unnamed_addr constant [60 x i8] c"loadElemBlockMaterials ERROR : initialization not complete.\00", align 1
@str.289 = private unnamed_addr constant [52 x i8] c"loadElemBlockMaterials ERROR : nElems do not match.\00", align 1
@str.290 = private unnamed_addr constant [60 x i8] c"loadElemBlockParentIDs ERROR : initialization not complete.\00", align 1
@str.291 = private unnamed_addr constant [52 x i8] c"loadElemBlockParentIDs ERROR : nElems do not match.\00", align 1
@str.292 = private unnamed_addr constant [56 x i8] c"loadElemBlockLoads ERROR : initialization not complete.\00", align 1
@str.293 = private unnamed_addr constant [44 x i8] c"loadElemBlockLoads ERROR : loadDim invalid.\00", align 1
@str.294 = private unnamed_addr constant [48 x i8] c"loadElemBlockLoads ERROR : nElems do not match.\00", align 1
@str.295 = private unnamed_addr constant [60 x i8] c"loadElemBlockSolutions ERROR : initialization not complete.\00", align 1
@str.296 = private unnamed_addr constant [52 x i8] c"loadElemBlockSolutions ERROR : nElems do not match.\00", align 1
@str.297 = private unnamed_addr constant [49 x i8] c"loadElemBCs ERROR : initialization not complete.\00", align 1
@str.298 = private unnamed_addr constant [43 x i8] c"loadElemBCs ERROR : element DOF not valid.\00", align 1
@str.299 = private unnamed_addr constant [33 x i8] c"loadElemBCs ERROR : nElems <= 0.\00", align 1
@str.300 = private unnamed_addr constant [49 x i8] c"loadNodeBCs ERROR : initialization not complete.\00", align 1
@str.301 = private unnamed_addr constant [40 x i8] c"loadNodeBCs ERROR : node DOF not valid.\00", align 1
@str.302 = private unnamed_addr constant [33 x i8] c"loadNodeBCs ERROR : nNodes <= 0.\00", align 1
@str.303 = private unnamed_addr constant [53 x i8] c"getElemGlobalID ERROR : initialization not complete.\00", align 1
@str.304 = private unnamed_addr constant [47 x i8] c"getElemBlockGlobalIDs ERROR : nElems mismatch.\00", align 1
@str.305 = private unnamed_addr constant [57 x i8] c"getElemBlockNodeLists ERROR : elemNumNodes do not match.\00", align 1
@str.306 = private unnamed_addr constant [51 x i8] c"getElemBlockNodeLists ERROR : nElems do not match.\00", align 1
@str.307 = private unnamed_addr constant [47 x i8] c"getElemBlockNodeLists ERROR : not initialized.\00", align 1
@str.308 = private unnamed_addr constant [54 x i8] c"getElemBlockMatrices ERROR : elemMat not initialized.\00", align 1
@str.309 = private unnamed_addr constant [60 x i8] c"getElemBlockMatrices ERROR : matrix dimension do not match.\00", align 1
@str.310 = private unnamed_addr constant [50 x i8] c"getElemBlockMatrices ERROR : nElems do not match.\00", align 1
@str.311 = private unnamed_addr constant [46 x i8] c"getElemBlockMatrices ERROR : not initialized.\00", align 1
@str.312 = private unnamed_addr constant [56 x i8] c"getElemBlockNullSpaceSizes ERROR : nElems do not match.\00", align 1
@str.313 = private unnamed_addr constant [52 x i8] c"getElemBlockNullSpaceSizes ERROR : not initialized.\00", align 1
@str.314 = private unnamed_addr constant [55 x i8] c"getElemBlockNullSpaces ERROR : dimension do not match.\00", align 1
@str.315 = private unnamed_addr constant [58 x i8] c"getElemBlockNullSpaces ERROR : no null space information.\00", align 1
@str.316 = private unnamed_addr constant [53 x i8] c"getElemBlockNullSpaces ERROR : eMatDim do not match.\00", align 1
@str.317 = private unnamed_addr constant [52 x i8] c"getElemBlockNullSpaces ERROR : nElems do not match.\00", align 1
@str.318 = private unnamed_addr constant [48 x i8] c"getElemBlockNullSpaces ERROR : not initialized.\00", align 1
@str.319 = private unnamed_addr constant [50 x i8] c"getElemBlockVolumes ERROR : no volumes available.\00", align 1
@str.320 = private unnamed_addr constant [49 x i8] c"getElemBlockVolumes ERROR : nElems do not match.\00", align 1
@str.321 = private unnamed_addr constant [45 x i8] c"getElemBlockVolumes ERROR : not initialized.\00", align 1
@str.322 = private unnamed_addr constant [53 x i8] c"getElemBlockMaterials ERROR : no material available.\00", align 1
@str.323 = private unnamed_addr constant [51 x i8] c"getElemBlockMaterials ERROR : nElems do not match.\00", align 1
@str.324 = private unnamed_addr constant [47 x i8] c"getElemBlockMaterials ERROR : not initialized.\00", align 1
@str.325 = private unnamed_addr constant [54 x i8] c"getElemBlockParentIDs ERROR : no parent ID available.\00", align 1
@str.326 = private unnamed_addr constant [51 x i8] c"getElemBlockParentIDs ERROR : nElems do not match.\00", align 1
@str.327 = private unnamed_addr constant [47 x i8] c"getElemBlockParentIDs ERROR : not initialized.\00", align 1
@str.328 = private unnamed_addr constant [57 x i8] c"getElemBlockFaceLists ERROR : elemNumFaces do not match.\00", align 1
@str.329 = private unnamed_addr constant [51 x i8] c"getElemBlockFaceLists ERROR : nElems do not match.\00", align 1
@str.330 = private unnamed_addr constant [47 x i8] c"getElemBlockFaceLists ERROR : not initialized.\00", align 1
@str.331 = private unnamed_addr constant [43 x i8] c"getElemNodeList ERROR : element not found.\00", align 1
@str.332 = private unnamed_addr constant [51 x i8] c"getElemNodeList ERROR : elemNumNodes do not match.\00", align 1
@str.333 = private unnamed_addr constant [41 x i8] c"getElemNodeList ERROR : not initialized.\00", align 1
@str.334 = private unnamed_addr constant [52 x i8] c"getElemBlockMatrix ERROR : elemMat not initialized.\00", align 1
@str.335 = private unnamed_addr constant [41 x i8] c"getElemMatrix ERROR : element not found.\00", align 1
@str.336 = private unnamed_addr constant [53 x i8] c"getElemMatrix ERROR : matrix dimension do not match.\00", align 1
@str.337 = private unnamed_addr constant [39 x i8] c"getElemMatrix ERROR : not initialized.\00", align 1
@str.338 = private unnamed_addr constant [48 x i8] c"getElemNullSpaceSize ERROR : element not found.\00", align 1
@str.339 = private unnamed_addr constant [46 x i8] c"getElemNullSpaceSize ERROR : not initialized.\00", align 1
@str.340 = private unnamed_addr constant [44 x i8] c"getElemNullSpace ERROR : element not found.\00", align 1
@str.341 = private unnamed_addr constant [52 x i8] c"getElemNullSpace ERROR : no null space information.\00", align 1
@str.342 = private unnamed_addr constant [47 x i8] c"getElemNullSpace ERROR : eMatDim do not match.\00", align 1
@str.343 = private unnamed_addr constant [42 x i8] c"getElemNullSpace ERROR : not initialized.\00", align 1
@str.344 = private unnamed_addr constant [41 x i8] c"getElemVolume ERROR : element not found.\00", align 1
@str.345 = private unnamed_addr constant [45 x i8] c"getElemVolumes ERROR : no volumes available.\00", align 1
@str.346 = private unnamed_addr constant [39 x i8] c"getElemVolume ERROR : not initialized.\00", align 1
@str.347 = private unnamed_addr constant [43 x i8] c"getElemMaterial ERROR : element not found.\00", align 1
@str.348 = private unnamed_addr constant [47 x i8] c"getElemMaterial ERROR : no material available.\00", align 1
@str.349 = private unnamed_addr constant [41 x i8] c"getElemMaterial ERROR : not initialized.\00", align 1
@str.350 = private unnamed_addr constant [43 x i8] c"getElemParentId ERROR : element not found.\00", align 1
@str.351 = private unnamed_addr constant [48 x i8] c"getElemParentID ERROR : no parent ID available.\00", align 1
@str.352 = private unnamed_addr constant [41 x i8] c"getElemParentID ERROR : not initialized.\00", align 1
@str.353 = private unnamed_addr constant [43 x i8] c"getElemFaceList ERROR : element not found.\00", align 1
@str.354 = private unnamed_addr constant [51 x i8] c"getElemFaceList ERROR : elemNumFaces do not match.\00", align 1
@str.355 = private unnamed_addr constant [41 x i8] c"getElemFaceList ERROR : not initialized.\00", align 1
@str.356 = private unnamed_addr constant [48 x i8] c"getElemBCs ERROR : initialization not complete.\00", align 1
@str.357 = private unnamed_addr constant [41 x i8] c"getElemBCs ERROR : element DOF mismatch.\00", align 1
@str.358 = private unnamed_addr constant [36 x i8] c"getElemBCs ERROR : nElems mismatch.\00", align 1
@str.359 = private unnamed_addr constant [59 x i8] c"getNodeBlockGlobalIDs ERROR : initialization not complete.\00", align 1
@str.360 = private unnamed_addr constant [47 x i8] c"getNodeBlockGlobalIDs ERROR : nNodes mismatch.\00", align 1
@str.361 = private unnamed_addr constant [61 x i8] c"getNodeBlockCoordinates ERROR : initialization not complete.\00", align 1
@str.362 = private unnamed_addr constant [58 x i8] c"getNodeBlockCoordinates ERROR : space dimension mismatch.\00", align 1
@str.363 = private unnamed_addr constant [49 x i8] c"getNodeBlockCoordinates ERROR : nNodes mismatch.\00", align 1
@str.364 = private unnamed_addr constant [48 x i8] c"getNodeBCs ERROR : initialization not complete.\00", align 1
@str.365 = private unnamed_addr constant [39 x i8] c"getNodeBCs ERROR : nodal DOF mismatch.\00", align 1
@str.366 = private unnamed_addr constant [36 x i8] c"getNodeBCs ERROR : nNodes mismatch.\00", align 1
@str.367 = private unnamed_addr constant [59 x i8] c"getSharedNodeNumProcs ERROR : initialization not complete.\00", align 1
@str.368 = private unnamed_addr constant [47 x i8] c"getSharedNodeNumProcs ERROR : nNodes mismatch.\00", align 1
@str.369 = private unnamed_addr constant [56 x i8] c"getSharedNodeProcs ERROR : initialization not complete.\00", align 1
@str.370 = private unnamed_addr constant [46 x i8] c"NumSharedNodeProcs ERROR : numProcs mismatch.\00", align 1
@str.371 = private unnamed_addr constant [44 x i8] c"getSharedNodeProcs ERROR : nNodes mismatch.\00", align 1
@str.372 = private unnamed_addr constant [49 x i8] c"getNumFaces ERROR : initialization not complete.\00", align 1
@str.373 = private unnamed_addr constant [59 x i8] c"getFaceBlockGlobalIDs ERROR : initialization not complete.\00", align 1
@str.374 = private unnamed_addr constant [47 x i8] c"getFaceBlockGlobalIDs ERROR : nFaces mismatch.\00", align 1
@str.375 = private unnamed_addr constant [55 x i8] c"getNumSharedFaces ERROR : initialization not complete.\00", align 1
@str.376 = private unnamed_addr constant [59 x i8] c"getSharedFaceNumProcs ERROR : initialization not complete.\00", align 1
@str.377 = private unnamed_addr constant [47 x i8] c"getSharedFaceNumProcs ERROR : nFaces mismatch.\00", align 1
@str.378 = private unnamed_addr constant [56 x i8] c"getSharedFaceProcs ERROR : initialization not complete.\00", align 1
@str.379 = private unnamed_addr constant [46 x i8] c"NumSharedFaceProcs ERROR : numProcs mismatch.\00", align 1
@str.380 = private unnamed_addr constant [44 x i8] c"getSharedFaceProcs ERROR : nFaces mismatch.\00", align 1
@str.381 = private unnamed_addr constant [53 x i8] c"getFaceNumNodes ERROR : initialization not complete.\00", align 1
@str.382 = private unnamed_addr constant [59 x i8] c"getFaceBlockNodeLists ERROR : initialization not complete.\00", align 1
@str.383 = private unnamed_addr constant [54 x i8] c"getFaceBlockNodeLists ERROR : face numNodes mismatch.\00", align 1
@str.384 = private unnamed_addr constant [56 x i8] c"getFaceBlockNodeLists ERROR : number of faces mismatch.\00", align 1
@str.385 = private unnamed_addr constant [53 x i8] c"getFaceNodeList ERROR : initialization not complete.\00", align 1
@str.386 = private unnamed_addr constant [43 x i8] c"getFaceNodeList ERROR : face ID not found.\00", align 1
@str.387 = private unnamed_addr constant [48 x i8] c"getFaceNodeList ERROR : face numNodes mismatch.\00", align 1
@str.388 = private unnamed_addr constant [53 x i8] c"impSpecificRequests ERROR : call initComplete first.\00", align 1
@str.389 = private unnamed_addr constant [44 x i8] c"impSpecifRequests : Available requests are \00", align 1
@str.390 = private unnamed_addr constant [50 x i8] c"    getElemOffset : get element processor offset \00", align 1
@str.393 = private unnamed_addr constant [47 x i8] c"    getNodeOffset : get node processor offset \00", align 1
@str.396 = private unnamed_addr constant [47 x i8] c"    getFaceOffset : get face processor offset \00", align 1
@str.399 = private unnamed_addr constant [51 x i8] c"    getNumExtNodes : get number of external nodes \00", align 1
@str.402 = private unnamed_addr constant [51 x i8] c"    getNumExtFaces : get number of external faces \00", align 1
@str.404 = private unnamed_addr constant [49 x i8] c"                  argv[0] - (int *) of length 1.\00", align 1
@str.405 = private unnamed_addr constant [61 x i8] c"    getExtNodeNewGlobalIDs : get  external nodes' mapped IDs\00", align 1
@str.408 = private unnamed_addr constant [61 x i8] c"    getExtFaceNewGlobalIDs : get  external faces' mapped IDs\00", align 1
@str.409 = private unnamed_addr constant [34 x i8] c"                  argc    - >= 1.\00", align 1
@str.410 = private unnamed_addr constant [58 x i8] c"                  argv[0] - (int *) of length nNnodesExt.\00", align 1
@str.411 = private unnamed_addr constant [55 x i8] c"implSpecificRequests ERROR : getElemOffset - argc < 1.\00", align 1
@str.412 = private unnamed_addr constant [54 x i8] c"impSpecificRequests ERROR : getNodeOffset - argc < 1.\00", align 1
@str.413 = private unnamed_addr constant [54 x i8] c"impSpecificRequests ERROR : getFaceOffset - argc < 1.\00", align 1
@str.414 = private unnamed_addr constant [55 x i8] c"impSpecificRequests ERROR : getNumExtNodes - argc < 1.\00", align 1
@str.415 = private unnamed_addr constant [55 x i8] c"impSpecificRequests ERROR : getNumExtFaces - argc < 1.\00", align 1
@str.416 = private unnamed_addr constant [58 x i8] c"impSpecificRequests ERROR : getExtNodeNewGlobalIDs-argc<1\00", align 1
@str.417 = private unnamed_addr constant [58 x i8] c"impSpecificRequests ERROR : getExtFaceNewGlobalIDs-argc<1\00", align 1
@str.418 = private unnamed_addr constant [53 x i8] c"impSpecificRequests ERROR : getElemMatrix not found.\00", align 1
@str.419 = private unnamed_addr constant [47 x i8] c"updateNodeElemMatrix ERROR : in communication.\00", align 1
@str.420 = private unnamed_addr constant [53 x i8] c"readFromFile ERROR : elemMat dimension do not match.\00", align 1
@str.421 = private unnamed_addr constant [53 x i8] c"readFromFile ERROR : file elemMatrix does not exist.\00", align 1
@str.422 = private unnamed_addr constant [48 x i8] c"readFromFile ERROR : element node ID not found.\00", align 1
@str.423 = private unnamed_addr constant [51 x i8] c"readFromFile ERROR : file elemConn does not exist.\00", align 1
@str.424 = private unnamed_addr constant [49 x i8] c"writeToFile ERROR : initialization not complete.\00", align 1
@str.425 = private unnamed_addr constant [49 x i8] c"writeToFile ERROR : cannot write to nodeBC file.\00", align 1
@str.426 = private unnamed_addr constant [53 x i8] c"writeToFile ERROR : cannot write to elemMatrix file.\00", align 1
@str.427 = private unnamed_addr constant [53 x i8] c"writeToFile ERROR : cannot write to nodeShared file.\00", align 1
@str.428 = private unnamed_addr constant [52 x i8] c"writeToFile ERROR : cannot write to nodeCoord file.\00", align 1
@str.429 = private unnamed_addr constant [51 x i8] c"writeToFile ERROR : cannot write to elemConn file.\00", align 1

@_ZN10MLI_FEDataC1Ei = dso_local unnamed_addr alias void (%class.MLI_FEData*, i32), void (%class.MLI_FEData*, i32)* @_ZN10MLI_FEDataC2Ei
@_ZN10MLI_FEDataD1Ev = dso_local unnamed_addr alias void (%class.MLI_FEData*), void (%class.MLI_FEData*)* @_ZN10MLI_FEDataD2Ev

; Function Attrs: uwtable
define dso_local void @_ZN10MLI_FEDataC2Ei(%class.MLI_FEData* nonnull align 8 dereferenceable(88) %0, i32 %1) unnamed_addr #0 align 2 {
  %3 = getelementptr inbounds %class.MLI_FEData, %class.MLI_FEData* %0, i64 0, i32 0
  call void @_ZN10MLI_FEBaseC2Ev(%class.MLI_FEBase* nonnull align 8 dereferenceable(8) %3)
  %4 = getelementptr inbounds %class.MLI_FEData, %class.MLI_FEData* %0, i64 0, i32 0, i32 0
  store i32 (...)** bitcast (i8** getelementptr inbounds ({ [84 x i8*] }, { [84 x i8*] }* @_ZTV10MLI_FEData, i64 0, inrange i32 0, i64 2) to i32 (...)**), i32 (...)*** %4, align 8, !tbaa !3
  %5 = getelementptr inbounds %class.MLI_FEData, %class.MLI_FEData* %0, i64 0, i32 1
  store i32 %1, i32* %5, align 8, !tbaa !6
  %6 = getelementptr inbounds %class.MLI_FEData, %class.MLI_FEData* %0, i64 0, i32 2
  store i32 0, i32* %6, align 4, !tbaa !11
  %7 = getelementptr inbounds %class.MLI_FEData, %class.MLI_FEData* %0, i64 0, i32 3
  store i32 -1, i32* %7, align 8, !tbaa !12
  %8 = getelementptr inbounds %class.MLI_FEData, %class.MLI_FEData* %0, i64 0, i32 4
  store i32 -1, i32* %8, align 4, !tbaa !13
  %9 = getelementptr inbounds %class.MLI_FEData, %class.MLI_FEData* %0, i64 0, i32 5
  store i32 -1, i32* %9, align 8, !tbaa !14
  %10 = getelementptr inbounds %class.MLI_FEData, %class.MLI_FEData* %0, i64 0, i32 6
  store i32 0, i32* %10, align 4, !tbaa !15
  %11 = getelementptr inbounds %class.MLI_FEData, %class.MLI_FEData* %0, i64 0, i32 7
  store %struct.MLI_ElemBlock_Struct** null, %struct.MLI_ElemBlock_Struct*** %11, align 8, !tbaa !16
  %12 = getelementptr inbounds %class.MLI_FEData, %class.MLI_FEData* %0, i64 0, i32 9
  %13 = getelementptr inbounds %class.MLI_FEData, %class.MLI_FEData* %0, i64 0, i32 8
  %14 = bitcast i32* %12 to i8*
  call void @llvm.memset.p0i8.i64(i8* noundef nonnull align 4 dereferenceable(20) %14, i8 0, i64 20, i1 false)
  store i32 -1, i32* %13, align 8, !tbaa !17
  %15 = getelementptr inbounds %class.MLI_FEData, %class.MLI_FEData* %0, i64 0, i32 13
  %16 = bitcast i32 (i8*, i32, i32, double*, double*)** %15 to i8*
  call void @llvm.memset.p0i8.i64(i8* noundef nonnull align 8 dereferenceable(16) %16, i8 0, i64 16, i1 false)
  ret void
}

declare dso_local void @_ZN10MLI_FEBaseC2Ev(%class.MLI_FEBase* nonnull align 8 dereferenceable(8)) unnamed_addr #1

; Function Attrs: nounwind uwtable
define dso_local void @_ZN10MLI_FEDataD2Ev(%class.MLI_FEData* nonnull align 8 dereferenceable(88) %0) unnamed_addr #2 align 2 personality i8* bitcast (i32 (...)* @__gxx_personality_v0 to i8*) {
  %2 = getelementptr inbounds %class.MLI_FEData, %class.MLI_FEData* %0, i64 0, i32 0, i32 0
  store i32 (...)** bitcast (i8** getelementptr inbounds ({ [84 x i8*] }, { [84 x i8*] }* @_ZTV10MLI_FEData, i64 0, inrange i32 0, i64 2) to i32 (...)**), i32 (...)*** %2, align 8, !tbaa !3
  %3 = getelementptr inbounds %class.MLI_FEData, %class.MLI_FEData* %0, i64 0, i32 6
  %4 = load i32, i32* %3, align 4, !tbaa !15
  %5 = icmp sgt i32 %4, 0
  br i1 %5, label %10, label %6

6:                                                ; preds = %10, %1
  %7 = getelementptr inbounds %class.MLI_FEData, %class.MLI_FEData* %0, i64 0, i32 7
  %8 = load %struct.MLI_ElemBlock_Struct**, %struct.MLI_ElemBlock_Struct*** %7, align 8, !tbaa !16
  %9 = icmp eq %struct.MLI_ElemBlock_Struct** %8, null
  br i1 %9, label %18, label %16

10:                                               ; preds = %1, %10
  %11 = phi i32 [ %13, %10 ], [ 0, %1 ]
  %12 = call i32 @_ZN10MLI_FEData15deleteElemBlockEi(%class.MLI_FEData* nonnull align 8 dereferenceable(88) %0, i32 %11)
  %13 = add nuw nsw i32 %11, 1
  %14 = load i32, i32* %3, align 4, !tbaa !15
  %15 = icmp slt i32 %13, %14
  br i1 %15, label %10, label %6, !llvm.loop !18

16:                                               ; preds = %6
  %17 = bitcast %struct.MLI_ElemBlock_Struct** %8 to i8*
  call void @_ZdaPv(i8* %17) #20
  br label %18

18:                                               ; preds = %16, %6
  %19 = getelementptr inbounds %class.MLI_FEData, %class.MLI_FEData* %0, i64 0, i32 10
  %20 = load i32*, i32** %19, align 8, !tbaa !21
  %21 = icmp eq i32* %20, null
  br i1 %21, label %24, label %22

22:                                               ; preds = %18
  %23 = bitcast i32* %20 to i8*
  call void @_ZdaPv(i8* %23) #20
  br label %24

24:                                               ; preds = %22, %18
  %25 = getelementptr inbounds %class.MLI_FEData, %class.MLI_FEData* %0, i64 0, i32 11
  %26 = load i32*, i32** %25, align 8, !tbaa !22
  %27 = icmp eq i32* %26, null
  br i1 %27, label %30, label %28

28:                                               ; preds = %24
  %29 = bitcast i32* %26 to i8*
  call void @_ZdaPv(i8* %29) #20
  br label %30

30:                                               ; preds = %28, %24
  %31 = getelementptr inbounds %class.MLI_FEData, %class.MLI_FEData* %0, i64 0, i32 0
  call void @_ZN10MLI_FEBaseD2Ev(%class.MLI_FEBase* nonnull align 8 dereferenceable(8) %31) #21
  ret void
}

; Function Attrs: argmemonly mustprogress nofree nosync nounwind willreturn
declare void @llvm.lifetime.start.p0i8(i64 immarg, i8* nocapture) #3

; Function Attrs: mustprogress nounwind uwtable
define dso_local i32 @_ZN10MLI_FEData15deleteElemBlockEi(%class.MLI_FEData* nocapture nonnull readonly align 8 dereferenceable(88) %0, i32 %1) local_unnamed_addr #4 align 2 {
  %3 = getelementptr inbounds %class.MLI_FEData, %class.MLI_FEData* %0, i64 0, i32 6
  %4 = load i32, i32* %3, align 4, !tbaa !15
  %5 = icmp sle i32 %4, %1
  %6 = icmp slt i32 %1, 0
  %7 = or i1 %6, %5
  br i1 %7, label %8, label %10

8:                                                ; preds = %2
  %9 = call i32 (i8*, ...) @printf(i8* nonnull dereferenceable(1) getelementptr inbounds ([40 x i8], [40 x i8]* @.str.244, i64 0, i64 0), i32 %1)
  call void @exit(i32 1) #22
  unreachable

10:                                               ; preds = %2
  %11 = getelementptr inbounds %class.MLI_FEData, %class.MLI_FEData* %0, i64 0, i32 7
  %12 = load %struct.MLI_ElemBlock_Struct**, %struct.MLI_ElemBlock_Struct*** %11, align 8, !tbaa !16
  %13 = sext i32 %1 to i64
  %14 = getelementptr inbounds %struct.MLI_ElemBlock_Struct*, %struct.MLI_ElemBlock_Struct** %12, i64 %13
  %15 = load %struct.MLI_ElemBlock_Struct*, %struct.MLI_ElemBlock_Struct** %14, align 8, !tbaa !23
  %16 = icmp eq %struct.MLI_ElemBlock_Struct* %15, null
  br i1 %16, label %17, label %19

17:                                               ; preds = %10
  %18 = call i32 (i8*, ...) @printf(i8* nonnull dereferenceable(1) getelementptr inbounds ([34 x i8], [34 x i8]* @.str.245, i64 0, i64 0), i32 %1)
  call void @exit(i32 1) #22
  unreachable

19:                                               ; preds = %10
  %20 = getelementptr inbounds %struct.MLI_ElemBlock_Struct, %struct.MLI_ElemBlock_Struct* %15, i64 0, i32 1
  %21 = load i32*, i32** %20, align 8, !tbaa !24
  %22 = icmp eq i32* %21, null
  br i1 %22, label %25, label %23

23:                                               ; preds = %19
  %24 = bitcast i32* %21 to i8*
  call void @_ZdaPv(i8* %24) #20
  br label %25

25:                                               ; preds = %23, %19
  %26 = getelementptr inbounds %struct.MLI_ElemBlock_Struct, %struct.MLI_ElemBlock_Struct* %15, i64 0, i32 2
  %27 = load i32*, i32** %26, align 8, !tbaa !26
  %28 = icmp eq i32* %27, null
  br i1 %28, label %31, label %29

29:                                               ; preds = %25
  %30 = bitcast i32* %27 to i8*
  call void @_ZdaPv(i8* %30) #20
  br label %31

31:                                               ; preds = %29, %25
  %32 = getelementptr inbounds %struct.MLI_ElemBlock_Struct, %struct.MLI_ElemBlock_Struct* %15, i64 0, i32 6
  %33 = load i32*, i32** %32, align 8, !tbaa !27
  %34 = icmp eq i32* %33, null
  br i1 %34, label %37, label %35

35:                                               ; preds = %31
  %36 = bitcast i32* %33 to i8*
  call void @_ZdaPv(i8* %36) #20
  br label %37

37:                                               ; preds = %35, %31
  %38 = getelementptr inbounds %struct.MLI_ElemBlock_Struct, %struct.MLI_ElemBlock_Struct* %15, i64 0, i32 4
  %39 = load i32**, i32*** %38, align 8, !tbaa !28
  %40 = icmp eq i32** %39, null
  br i1 %40, label %63, label %41

41:                                               ; preds = %37
  %42 = getelementptr inbounds %struct.MLI_ElemBlock_Struct, %struct.MLI_ElemBlock_Struct* %15, i64 0, i32 0
  %43 = load i32, i32* %42, align 8, !tbaa !29
  %44 = icmp sgt i32 %43, 0
  br i1 %44, label %45, label %58

45:                                               ; preds = %41, %53
  %46 = phi i64 [ %54, %53 ], [ 0, %41 ]
  %47 = load i32**, i32*** %38, align 8, !tbaa !28
  %48 = getelementptr inbounds i32*, i32** %47, i64 %46
  %49 = load i32*, i32** %48, align 8, !tbaa !23
  %50 = icmp eq i32* %49, null
  br i1 %50, label %53, label %51

51:                                               ; preds = %45
  %52 = bitcast i32* %49 to i8*
  call void @_ZdaPv(i8* %52) #20
  br label %53

53:                                               ; preds = %45, %51
  %54 = add nuw nsw i64 %46, 1
  %55 = load i32, i32* %42, align 8, !tbaa !29
  %56 = sext i32 %55 to i64
  %57 = icmp slt i64 %54, %56
  br i1 %57, label %45, label %58, !llvm.loop !30

58:                                               ; preds = %53, %41
  %59 = load i32**, i32*** %38, align 8, !tbaa !28
  %60 = icmp eq i32** %59, null
  br i1 %60, label %63, label %61

61:                                               ; preds = %58
  %62 = bitcast i32** %59 to i8*
  call void @_ZdaPv(i8* %62) #20
  br label %63

63:                                               ; preds = %58, %61, %37
  %64 = getelementptr inbounds %struct.MLI_ElemBlock_Struct, %struct.MLI_ElemBlock_Struct* %15, i64 0, i32 9
  %65 = load double**, double*** %64, align 8, !tbaa !31
  %66 = icmp eq double** %65, null
  br i1 %66, label %89, label %67

67:                                               ; preds = %63
  %68 = getelementptr inbounds %struct.MLI_ElemBlock_Struct, %struct.MLI_ElemBlock_Struct* %15, i64 0, i32 0
  %69 = load i32, i32* %68, align 8, !tbaa !29
  %70 = icmp sgt i32 %69, 0
  br i1 %70, label %71, label %84

71:                                               ; preds = %67, %79
  %72 = phi i64 [ %80, %79 ], [ 0, %67 ]
  %73 = load double**, double*** %64, align 8, !tbaa !31
  %74 = getelementptr inbounds double*, double** %73, i64 %72
  %75 = load double*, double** %74, align 8, !tbaa !23
  %76 = icmp eq double* %75, null
  br i1 %76, label %79, label %77

77:                                               ; preds = %71
  %78 = bitcast double* %75 to i8*
  call void @_ZdaPv(i8* %78) #20
  br label %79

79:                                               ; preds = %71, %77
  %80 = add nuw nsw i64 %72, 1
  %81 = load i32, i32* %68, align 8, !tbaa !29
  %82 = sext i32 %81 to i64
  %83 = icmp slt i64 %80, %82
  br i1 %83, label %71, label %84, !llvm.loop !32

84:                                               ; preds = %79, %67
  %85 = load double**, double*** %64, align 8, !tbaa !31
  %86 = icmp eq double** %85, null
  br i1 %86, label %89, label %87

87:                                               ; preds = %84
  %88 = bitcast double** %85 to i8*
  call void @_ZdaPv(i8* %88) #20
  br label %89

89:                                               ; preds = %84, %87, %63
  %90 = getelementptr inbounds %struct.MLI_ElemBlock_Struct, %struct.MLI_ElemBlock_Struct* %15, i64 0, i32 10
  %91 = load i32*, i32** %90, align 8, !tbaa !33
  %92 = icmp eq i32* %91, null
  br i1 %92, label %95, label %93

93:                                               ; preds = %89
  %94 = bitcast i32* %91 to i8*
  call void @_ZdaPv(i8* %94) #20
  br label %95

95:                                               ; preds = %93, %89
  %96 = getelementptr inbounds %struct.MLI_ElemBlock_Struct, %struct.MLI_ElemBlock_Struct* %15, i64 0, i32 11
  %97 = load double**, double*** %96, align 8, !tbaa !34
  %98 = icmp eq double** %97, null
  br i1 %98, label %101, label %99

99:                                               ; preds = %95
  %100 = bitcast double** %97 to i8*
  call void @_ZdaPv(i8* %100) #20
  br label %101

101:                                              ; preds = %99, %95
  %102 = getelementptr inbounds %struct.MLI_ElemBlock_Struct, %struct.MLI_ElemBlock_Struct* %15, i64 0, i32 12
  %103 = load double*, double** %102, align 8, !tbaa !35
  %104 = icmp eq double* %103, null
  br i1 %104, label %107, label %105

105:                                              ; preds = %101
  %106 = bitcast double* %103 to i8*
  call void @_ZdaPv(i8* %106) #20
  br label %107

107:                                              ; preds = %105, %101
  %108 = getelementptr inbounds %struct.MLI_ElemBlock_Struct, %struct.MLI_ElemBlock_Struct* %15, i64 0, i32 13
  %109 = load i32*, i32** %108, align 8, !tbaa !36
  %110 = icmp eq i32* %109, null
  br i1 %110, label %113, label %111

111:                                              ; preds = %107
  %112 = bitcast i32* %109 to i8*
  call void @_ZdaPv(i8* %112) #20
  br label %113

113:                                              ; preds = %111, %107
  %114 = getelementptr inbounds %struct.MLI_ElemBlock_Struct, %struct.MLI_ElemBlock_Struct* %15, i64 0, i32 14
  %115 = load i32*, i32** %114, align 8, !tbaa !37
  %116 = icmp eq i32* %115, null
  br i1 %116, label %119, label %117

117:                                              ; preds = %113
  %118 = bitcast i32* %115 to i8*
  call void @_ZdaPv(i8* %118) #20
  br label %119

119:                                              ; preds = %117, %113
  %120 = getelementptr inbounds %struct.MLI_ElemBlock_Struct, %struct.MLI_ElemBlock_Struct* %15, i64 0, i32 15
  %121 = load double**, double*** %120, align 8, !tbaa !38
  %122 = icmp eq double** %121, null
  br i1 %122, label %145, label %123

123:                                              ; preds = %119
  %124 = getelementptr inbounds %struct.MLI_ElemBlock_Struct, %struct.MLI_ElemBlock_Struct* %15, i64 0, i32 0
  %125 = load i32, i32* %124, align 8, !tbaa !29
  %126 = icmp sgt i32 %125, 0
  br i1 %126, label %127, label %140

127:                                              ; preds = %123, %135
  %128 = phi i64 [ %136, %135 ], [ 0, %123 ]
  %129 = load double**, double*** %120, align 8, !tbaa !38
  %130 = getelementptr inbounds double*, double** %129, i64 %128
  %131 = load double*, double** %130, align 8, !tbaa !23
  %132 = icmp eq double* %131, null
  br i1 %132, label %135, label %133

133:                                              ; preds = %127
  %134 = bitcast double* %131 to i8*
  call void @_ZdaPv(i8* %134) #20
  br label %135

135:                                              ; preds = %127, %133
  %136 = add nuw nsw i64 %128, 1
  %137 = load i32, i32* %124, align 8, !tbaa !29
  %138 = sext i32 %137 to i64
  %139 = icmp slt i64 %136, %138
  br i1 %139, label %127, label %140, !llvm.loop !39

140:                                              ; preds = %135, %123
  %141 = load double**, double*** %120, align 8, !tbaa !38
  %142 = icmp eq double** %141, null
  br i1 %142, label %145, label %143

143:                                              ; preds = %140
  %144 = bitcast double** %141 to i8*
  call void @_ZdaPv(i8* %144) #20
  br label %145

145:                                              ; preds = %140, %143, %119
  %146 = getelementptr inbounds %struct.MLI_ElemBlock_Struct, %struct.MLI_ElemBlock_Struct* %15, i64 0, i32 16
  %147 = load double**, double*** %146, align 8, !tbaa !40
  %148 = icmp eq double** %147, null
  br i1 %148, label %171, label %149

149:                                              ; preds = %145
  %150 = getelementptr inbounds %struct.MLI_ElemBlock_Struct, %struct.MLI_ElemBlock_Struct* %15, i64 0, i32 0
  %151 = load i32, i32* %150, align 8, !tbaa !29
  %152 = icmp sgt i32 %151, 0
  br i1 %152, label %153, label %166

153:                                              ; preds = %149, %161
  %154 = phi i64 [ %162, %161 ], [ 0, %149 ]
  %155 = load double**, double*** %146, align 8, !tbaa !40
  %156 = getelementptr inbounds double*, double** %155, i64 %154
  %157 = load double*, double** %156, align 8, !tbaa !23
  %158 = icmp eq double* %157, null
  br i1 %158, label %161, label %159

159:                                              ; preds = %153
  %160 = bitcast double* %157 to i8*
  call void @_ZdaPv(i8* %160) #20
  br label %161

161:                                              ; preds = %153, %159
  %162 = add nuw nsw i64 %154, 1
  %163 = load i32, i32* %150, align 8, !tbaa !29
  %164 = sext i32 %163 to i64
  %165 = icmp slt i64 %162, %164
  br i1 %165, label %153, label %166, !llvm.loop !41

166:                                              ; preds = %161, %149
  %167 = load double**, double*** %146, align 8, !tbaa !40
  %168 = icmp eq double** %167, null
  br i1 %168, label %171, label %169

169:                                              ; preds = %166
  %170 = bitcast double** %167 to i8*
  call void @_ZdaPv(i8* %170) #20
  br label %171

171:                                              ; preds = %166, %169, %145
  %172 = getelementptr inbounds %struct.MLI_ElemBlock_Struct, %struct.MLI_ElemBlock_Struct* %15, i64 0, i32 18
  %173 = load i32**, i32*** %172, align 8, !tbaa !42
  %174 = icmp eq i32** %173, null
  br i1 %174, label %197, label %175

175:                                              ; preds = %171
  %176 = getelementptr inbounds %struct.MLI_ElemBlock_Struct, %struct.MLI_ElemBlock_Struct* %15, i64 0, i32 0
  %177 = load i32, i32* %176, align 8, !tbaa !29
  %178 = icmp sgt i32 %177, 0
  br i1 %178, label %179, label %192

179:                                              ; preds = %175, %187
  %180 = phi i64 [ %188, %187 ], [ 0, %175 ]
  %181 = load i32**, i32*** %172, align 8, !tbaa !42
  %182 = getelementptr inbounds i32*, i32** %181, i64 %180
  %183 = load i32*, i32** %182, align 8, !tbaa !23
  %184 = icmp eq i32* %183, null
  br i1 %184, label %187, label %185

185:                                              ; preds = %179
  %186 = bitcast i32* %183 to i8*
  call void @_ZdaPv(i8* %186) #20
  br label %187

187:                                              ; preds = %179, %185
  %188 = add nuw nsw i64 %180, 1
  %189 = load i32, i32* %176, align 8, !tbaa !29
  %190 = sext i32 %189 to i64
  %191 = icmp slt i64 %188, %190
  br i1 %191, label %179, label %192, !llvm.loop !43

192:                                              ; preds = %187, %175
  %193 = load i32**, i32*** %172, align 8, !tbaa !42
  %194 = icmp eq i32** %193, null
  br i1 %194, label %197, label %195

195:                                              ; preds = %192
  %196 = bitcast i32** %193 to i8*
  call void @_ZdaPv(i8* %196) #20
  br label %197

197:                                              ; preds = %192, %195, %171
  %198 = getelementptr inbounds %struct.MLI_ElemBlock_Struct, %struct.MLI_ElemBlock_Struct* %15, i64 0, i32 20
  %199 = load i32*, i32** %198, align 8, !tbaa !44
  %200 = icmp eq i32* %199, null
  br i1 %200, label %203, label %201

201:                                              ; preds = %197
  %202 = bitcast i32* %199 to i8*
  call void @_ZdaPv(i8* %202) #20
  br label %203

203:                                              ; preds = %201, %197
  %204 = getelementptr inbounds %struct.MLI_ElemBlock_Struct, %struct.MLI_ElemBlock_Struct* %15, i64 0, i32 21
  %205 = load i8**, i8*** %204, align 8, !tbaa !45
  %206 = icmp eq i8** %205, null
  br i1 %206, label %252, label %207

207:                                              ; preds = %203
  %208 = getelementptr inbounds %struct.MLI_ElemBlock_Struct, %struct.MLI_ElemBlock_Struct* %15, i64 0, i32 0
  %209 = load i32, i32* %208, align 8, !tbaa !29
  %210 = icmp sgt i32 %209, 0
  br i1 %210, label %211, label %223

211:                                              ; preds = %207, %218
  %212 = phi i64 [ %219, %218 ], [ 0, %207 ]
  %213 = load i8**, i8*** %204, align 8, !tbaa !45
  %214 = getelementptr inbounds i8*, i8** %213, i64 %212
  %215 = load i8*, i8** %214, align 8, !tbaa !23
  %216 = icmp eq i8* %215, null
  br i1 %216, label %218, label %217

217:                                              ; preds = %211
  call void @_ZdaPv(i8* %215) #20
  br label %218

218:                                              ; preds = %211, %217
  %219 = add nuw nsw i64 %212, 1
  %220 = load i32, i32* %208, align 8, !tbaa !29
  %221 = sext i32 %220 to i64
  %222 = icmp slt i64 %219, %221
  br i1 %222, label %211, label %223, !llvm.loop !46

223:                                              ; preds = %218, %207
  %224 = getelementptr inbounds %struct.MLI_ElemBlock_Struct, %struct.MLI_ElemBlock_Struct* %15, i64 0, i32 0
  %225 = load i8**, i8*** %204, align 8, !tbaa !45
  %226 = icmp eq i8** %225, null
  br i1 %226, label %229, label %227

227:                                              ; preds = %223
  %228 = bitcast i8** %225 to i8*
  call void @_ZdaPv(i8* %228) #20
  br label %229

229:                                              ; preds = %227, %223
  %230 = getelementptr inbounds %struct.MLI_ElemBlock_Struct, %struct.MLI_ElemBlock_Struct* %15, i64 0, i32 22
  %231 = load i32, i32* %224, align 8, !tbaa !29
  %232 = icmp sgt i32 %231, 0
  br i1 %232, label %233, label %246

233:                                              ; preds = %229, %241
  %234 = phi i64 [ %242, %241 ], [ 0, %229 ]
  %235 = load double**, double*** %230, align 8, !tbaa !47
  %236 = getelementptr inbounds double*, double** %235, i64 %234
  %237 = load double*, double** %236, align 8, !tbaa !23
  %238 = icmp eq double* %237, null
  br i1 %238, label %241, label %239

239:                                              ; preds = %233
  %240 = bitcast double* %237 to i8*
  call void @_ZdaPv(i8* %240) #20
  br label %241

241:                                              ; preds = %233, %239
  %242 = add nuw nsw i64 %234, 1
  %243 = load i32, i32* %224, align 8, !tbaa !29
  %244 = sext i32 %243 to i64
  %245 = icmp slt i64 %242, %244
  br i1 %245, label %233, label %246, !llvm.loop !48

246:                                              ; preds = %241, %229
  %247 = getelementptr inbounds %struct.MLI_ElemBlock_Struct, %struct.MLI_ElemBlock_Struct* %15, i64 0, i32 22
  %248 = load double**, double*** %247, align 8, !tbaa !47
  %249 = icmp eq double** %248, null
  br i1 %249, label %252, label %250

250:                                              ; preds = %246
  %251 = bitcast double** %248 to i8*
  call void @_ZdaPv(i8* %251) #20
  br label %252

252:                                              ; preds = %246, %250, %203
  %253 = getelementptr inbounds %struct.MLI_ElemBlock_Struct, %struct.MLI_ElemBlock_Struct* %15, i64 0, i32 5
  store i32 0, i32* %253, align 8, !tbaa !49
  %254 = getelementptr inbounds %struct.MLI_ElemBlock_Struct, %struct.MLI_ElemBlock_Struct* %15, i64 0, i32 7
  store i32 0, i32* %254, align 8, !tbaa !50
  %255 = getelementptr inbounds %struct.MLI_ElemBlock_Struct, %struct.MLI_ElemBlock_Struct* %15, i64 0, i32 3
  store i32 0, i32* %255, align 8, !tbaa !51
  %256 = getelementptr inbounds %struct.MLI_ElemBlock_Struct, %struct.MLI_ElemBlock_Struct* %15, i64 0, i32 8
  store i32 0, i32* %256, align 4, !tbaa !52
  %257 = getelementptr inbounds %struct.MLI_ElemBlock_Struct, %struct.MLI_ElemBlock_Struct* %15, i64 0, i32 0
  store i32 0, i32* %257, align 8, !tbaa !29
  %258 = getelementptr inbounds %struct.MLI_ElemBlock_Struct, %struct.MLI_ElemBlock_Struct* %15, i64 0, i32 17
  store i32 0, i32* %258, align 8, !tbaa !53
  %259 = getelementptr inbounds %struct.MLI_ElemBlock_Struct, %struct.MLI_ElemBlock_Struct* %15, i64 0, i32 19
  store i32 0, i32* %259, align 8, !tbaa !54
  %260 = getelementptr inbounds %struct.MLI_ElemBlock_Struct, %struct.MLI_ElemBlock_Struct* %15, i64 0, i32 23
  store i32 0, i32* %260, align 8, !tbaa !55
  %261 = getelementptr inbounds %struct.MLI_ElemBlock_Struct, %struct.MLI_ElemBlock_Struct* %15, i64 0, i32 26
  %262 = load i32*, i32** %261, align 8, !tbaa !56
  %263 = icmp eq i32* %262, null
  br i1 %263, label %266, label %264

264:                                              ; preds = %252
  %265 = bitcast i32* %262 to i8*
  call void @_ZdaPv(i8* %265) #20
  br label %266

266:                                              ; preds = %264, %252
  %267 = getelementptr inbounds %struct.MLI_ElemBlock_Struct, %struct.MLI_ElemBlock_Struct* %15, i64 0, i32 28
  %268 = load i32*, i32** %267, align 8, !tbaa !57
  %269 = icmp eq i32* %268, null
  br i1 %269, label %272, label %270

270:                                              ; preds = %266
  %271 = bitcast i32* %268 to i8*
  call void @_ZdaPv(i8* %271) #20
  br label %272

272:                                              ; preds = %270, %266
  %273 = getelementptr inbounds %struct.MLI_ElemBlock_Struct, %struct.MLI_ElemBlock_Struct* %15, i64 0, i32 30
  %274 = load double*, double** %273, align 8, !tbaa !58
  %275 = icmp eq double* %274, null
  br i1 %275, label %278, label %276

276:                                              ; preds = %272
  %277 = bitcast double* %274 to i8*
  call void @_ZdaPv(i8* %277) #20
  br label %278

278:                                              ; preds = %276, %272
  %279 = getelementptr inbounds %struct.MLI_ElemBlock_Struct, %struct.MLI_ElemBlock_Struct* %15, i64 0, i32 32
  %280 = load i32*, i32** %279, align 8, !tbaa !59
  %281 = icmp eq i32* %280, null
  br i1 %281, label %284, label %282

282:                                              ; preds = %278
  %283 = bitcast i32* %280 to i8*
  call void @_ZdaPv(i8* %283) #20
  br label %284

284:                                              ; preds = %282, %278
  %285 = getelementptr inbounds %struct.MLI_ElemBlock_Struct, %struct.MLI_ElemBlock_Struct* %15, i64 0, i32 33
  %286 = load i8**, i8*** %285, align 8, !tbaa !60
  %287 = icmp eq i8** %286, null
  br i1 %287, label %333, label %288

288:                                              ; preds = %284
  %289 = getelementptr inbounds %struct.MLI_ElemBlock_Struct, %struct.MLI_ElemBlock_Struct* %15, i64 0, i32 31
  %290 = load i32, i32* %289, align 8, !tbaa !61
  %291 = icmp sgt i32 %290, 0
  br i1 %291, label %292, label %304

292:                                              ; preds = %288, %299
  %293 = phi i64 [ %300, %299 ], [ 0, %288 ]
  %294 = load i8**, i8*** %285, align 8, !tbaa !60
  %295 = getelementptr inbounds i8*, i8** %294, i64 %293
  %296 = load i8*, i8** %295, align 8, !tbaa !23
  %297 = icmp eq i8* %296, null
  br i1 %297, label %299, label %298

298:                                              ; preds = %292
  call void @_ZdaPv(i8* %296) #20
  br label %299

299:                                              ; preds = %292, %298
  %300 = add nuw nsw i64 %293, 1
  %301 = load i32, i32* %289, align 8, !tbaa !61
  %302 = sext i32 %301 to i64
  %303 = icmp slt i64 %300, %302
  br i1 %303, label %292, label %304, !llvm.loop !62

304:                                              ; preds = %299, %288
  %305 = getelementptr inbounds %struct.MLI_ElemBlock_Struct, %struct.MLI_ElemBlock_Struct* %15, i64 0, i32 31
  %306 = load i8**, i8*** %285, align 8, !tbaa !60
  %307 = icmp eq i8** %306, null
  br i1 %307, label %310, label %308

308:                                              ; preds = %304
  %309 = bitcast i8** %306 to i8*
  call void @_ZdaPv(i8* %309) #20
  br label %310

310:                                              ; preds = %308, %304
  %311 = getelementptr inbounds %struct.MLI_ElemBlock_Struct, %struct.MLI_ElemBlock_Struct* %15, i64 0, i32 34
  %312 = load i32, i32* %305, align 8, !tbaa !61
  %313 = icmp sgt i32 %312, 0
  br i1 %313, label %314, label %327

314:                                              ; preds = %310, %322
  %315 = phi i64 [ %323, %322 ], [ 0, %310 ]
  %316 = load double**, double*** %311, align 8, !tbaa !63
  %317 = getelementptr inbounds double*, double** %316, i64 %315
  %318 = load double*, double** %317, align 8, !tbaa !23
  %319 = icmp eq double* %318, null
  br i1 %319, label %322, label %320

320:                                              ; preds = %314
  %321 = bitcast double* %318 to i8*
  call void @_ZdaPv(i8* %321) #20
  br label %322

322:                                              ; preds = %314, %320
  %323 = add nuw nsw i64 %315, 1
  %324 = load i32, i32* %305, align 8, !tbaa !61
  %325 = sext i32 %324 to i64
  %326 = icmp slt i64 %323, %325
  br i1 %326, label %314, label %327, !llvm.loop !64

327:                                              ; preds = %322, %310
  %328 = getelementptr inbounds %struct.MLI_ElemBlock_Struct, %struct.MLI_ElemBlock_Struct* %15, i64 0, i32 34
  %329 = load double**, double*** %328, align 8, !tbaa !63
  %330 = icmp eq double** %329, null
  br i1 %330, label %333, label %331

331:                                              ; preds = %327
  %332 = bitcast double** %329 to i8*
  call void @_ZdaPv(i8* %332) #20
  br label %333

333:                                              ; preds = %327, %331, %284
  %334 = getelementptr inbounds %struct.MLI_ElemBlock_Struct, %struct.MLI_ElemBlock_Struct* %15, i64 0, i32 36
  %335 = load i32*, i32** %334, align 8, !tbaa !65
  %336 = icmp eq i32* %335, null
  br i1 %336, label %339, label %337

337:                                              ; preds = %333
  %338 = bitcast i32* %335 to i8*
  call void @_ZdaPv(i8* %338) #20
  br label %339

339:                                              ; preds = %337, %333
  %340 = getelementptr inbounds %struct.MLI_ElemBlock_Struct, %struct.MLI_ElemBlock_Struct* %15, i64 0, i32 37
  %341 = load i32*, i32** %340, align 8, !tbaa !66
  %342 = icmp eq i32* %341, null
  br i1 %342, label %345, label %343

343:                                              ; preds = %339
  %344 = bitcast i32* %341 to i8*
  call void @_ZdaPv(i8* %344) #20
  br label %345

345:                                              ; preds = %343, %339
  %346 = getelementptr inbounds %struct.MLI_ElemBlock_Struct, %struct.MLI_ElemBlock_Struct* %15, i64 0, i32 38
  %347 = load i32**, i32*** %346, align 8, !tbaa !67
  %348 = icmp eq i32** %347, null
  br i1 %348, label %371, label %349

349:                                              ; preds = %345
  %350 = getelementptr inbounds %struct.MLI_ElemBlock_Struct, %struct.MLI_ElemBlock_Struct* %15, i64 0, i32 35
  %351 = load i32, i32* %350, align 8, !tbaa !68
  %352 = icmp sgt i32 %351, 0
  br i1 %352, label %353, label %366

353:                                              ; preds = %349, %361
  %354 = phi i64 [ %362, %361 ], [ 0, %349 ]
  %355 = load i32**, i32*** %346, align 8, !tbaa !67
  %356 = getelementptr inbounds i32*, i32** %355, i64 %354
  %357 = load i32*, i32** %356, align 8, !tbaa !23
  %358 = icmp eq i32* %357, null
  br i1 %358, label %361, label %359

359:                                              ; preds = %353
  %360 = bitcast i32* %357 to i8*
  call void @_ZdaPv(i8* %360) #20
  br label %361

361:                                              ; preds = %353, %359
  %362 = add nuw nsw i64 %354, 1
  %363 = load i32, i32* %350, align 8, !tbaa !68
  %364 = sext i32 %363 to i64
  %365 = icmp slt i64 %362, %364
  br i1 %365, label %353, label %366, !llvm.loop !69

366:                                              ; preds = %361, %349
  %367 = load i32**, i32*** %346, align 8, !tbaa !67
  %368 = icmp eq i32** %367, null
  br i1 %368, label %371, label %369

369:                                              ; preds = %366
  %370 = bitcast i32** %367 to i8*
  call void @_ZdaPv(i8* %370) #20
  br label %371

371:                                              ; preds = %366, %369, %345
  %372 = getelementptr inbounds %struct.MLI_ElemBlock_Struct, %struct.MLI_ElemBlock_Struct* %15, i64 0, i32 39
  %373 = load i32*, i32** %372, align 8, !tbaa !70
  %374 = icmp eq i32* %373, null
  br i1 %374, label %377, label %375

375:                                              ; preds = %371
  %376 = bitcast i32* %373 to i8*
  call void @_ZdaPv(i8* %376) #20
  br label %377

377:                                              ; preds = %375, %371
  %378 = getelementptr inbounds %struct.MLI_ElemBlock_Struct, %struct.MLI_ElemBlock_Struct* %15, i64 0, i32 24
  store i32 0, i32* %378, align 4, !tbaa !71
  %379 = getelementptr inbounds %struct.MLI_ElemBlock_Struct, %struct.MLI_ElemBlock_Struct* %15, i64 0, i32 25
  store i32 0, i32* %379, align 8, !tbaa !72
  %380 = getelementptr inbounds %struct.MLI_ElemBlock_Struct, %struct.MLI_ElemBlock_Struct* %15, i64 0, i32 27
  store i32 0, i32* %380, align 8, !tbaa !73
  %381 = getelementptr inbounds %struct.MLI_ElemBlock_Struct, %struct.MLI_ElemBlock_Struct* %15, i64 0, i32 29
  store i32 0, i32* %381, align 8, !tbaa !74
  %382 = getelementptr inbounds %struct.MLI_ElemBlock_Struct, %struct.MLI_ElemBlock_Struct* %15, i64 0, i32 31
  store i32 0, i32* %382, align 8, !tbaa !61
  %383 = getelementptr inbounds %struct.MLI_ElemBlock_Struct, %struct.MLI_ElemBlock_Struct* %15, i64 0, i32 35
  store i32 0, i32* %383, align 8, !tbaa !68
  %384 = getelementptr inbounds %struct.MLI_ElemBlock_Struct, %struct.MLI_ElemBlock_Struct* %15, i64 0, i32 40
  store i32 0, i32* %384, align 8, !tbaa !75
  %385 = getelementptr inbounds %struct.MLI_ElemBlock_Struct, %struct.MLI_ElemBlock_Struct* %15, i64 0, i32 43
  %386 = load i32*, i32** %385, align 8, !tbaa !76
  %387 = icmp eq i32* %386, null
  br i1 %387, label %390, label %388

388:                                              ; preds = %377
  %389 = bitcast i32* %386 to i8*
  call void @_ZdaPv(i8* %389) #20
  br label %390

390:                                              ; preds = %388, %377
  %391 = getelementptr inbounds %struct.MLI_ElemBlock_Struct, %struct.MLI_ElemBlock_Struct* %15, i64 0, i32 45
  %392 = load i32**, i32*** %391, align 8, !tbaa !77
  %393 = icmp eq i32** %392, null
  br i1 %393, label %420, label %394

394:                                              ; preds = %390
  %395 = getelementptr inbounds %struct.MLI_ElemBlock_Struct, %struct.MLI_ElemBlock_Struct* %15, i64 0, i32 41
  %396 = load i32, i32* %395, align 4, !tbaa !78
  %397 = getelementptr inbounds %struct.MLI_ElemBlock_Struct, %struct.MLI_ElemBlock_Struct* %15, i64 0, i32 42
  %398 = load i32, i32* %397, align 8, !tbaa !79
  %399 = add nsw i32 %398, %396
  %400 = icmp sgt i32 %399, 0
  br i1 %400, label %401, label %415

401:                                              ; preds = %394
  %402 = add i32 %398, %396
  %403 = zext i32 %402 to i64
  br label %404

404:                                              ; preds = %401, %412
  %405 = phi i64 [ 0, %401 ], [ %413, %412 ]
  %406 = load i32**, i32*** %391, align 8, !tbaa !77
  %407 = getelementptr inbounds i32*, i32** %406, i64 %405
  %408 = load i32*, i32** %407, align 8, !tbaa !23
  %409 = icmp eq i32* %408, null
  br i1 %409, label %412, label %410

410:                                              ; preds = %404
  %411 = bitcast i32* %408 to i8*
  call void @_ZdaPv(i8* %411) #20
  br label %412

412:                                              ; preds = %404, %410
  %413 = add nuw nsw i64 %405, 1
  %414 = icmp eq i64 %413, %403
  br i1 %414, label %415, label %404, !llvm.loop !80

415:                                              ; preds = %412, %394
  %416 = load i32**, i32*** %391, align 8, !tbaa !77
  %417 = icmp eq i32** %416, null
  br i1 %417, label %420, label %418

418:                                              ; preds = %415
  %419 = bitcast i32** %416 to i8*
  call void @_ZdaPv(i8* %419) #20
  br label %420

420:                                              ; preds = %415, %418, %390
  %421 = getelementptr inbounds %struct.MLI_ElemBlock_Struct, %struct.MLI_ElemBlock_Struct* %15, i64 0, i32 47
  %422 = load i32*, i32** %421, align 8, !tbaa !81
  %423 = icmp eq i32* %422, null
  br i1 %423, label %426, label %424

424:                                              ; preds = %420
  %425 = bitcast i32* %422 to i8*
  call void @_ZdaPv(i8* %425) #20
  br label %426

426:                                              ; preds = %424, %420
  %427 = getelementptr inbounds %struct.MLI_ElemBlock_Struct, %struct.MLI_ElemBlock_Struct* %15, i64 0, i32 48
  %428 = load i32*, i32** %427, align 8, !tbaa !82
  %429 = icmp eq i32* %428, null
  br i1 %429, label %432, label %430

430:                                              ; preds = %426
  %431 = bitcast i32* %428 to i8*
  call void @_ZdaPv(i8* %431) #20
  br label %432

432:                                              ; preds = %430, %426
  %433 = getelementptr inbounds %struct.MLI_ElemBlock_Struct, %struct.MLI_ElemBlock_Struct* %15, i64 0, i32 49
  %434 = load i32**, i32*** %433, align 8, !tbaa !83
  %435 = icmp eq i32** %434, null
  br i1 %435, label %458, label %436

436:                                              ; preds = %432
  %437 = getelementptr inbounds %struct.MLI_ElemBlock_Struct, %struct.MLI_ElemBlock_Struct* %15, i64 0, i32 46
  %438 = load i32, i32* %437, align 8, !tbaa !84
  %439 = icmp sgt i32 %438, 0
  br i1 %439, label %440, label %453

440:                                              ; preds = %436, %448
  %441 = phi i64 [ %449, %448 ], [ 0, %436 ]
  %442 = load i32**, i32*** %433, align 8, !tbaa !83
  %443 = getelementptr inbounds i32*, i32** %442, i64 %441
  %444 = load i32*, i32** %443, align 8, !tbaa !23
  %445 = icmp eq i32* %444, null
  br i1 %445, label %448, label %446

446:                                              ; preds = %440
  %447 = bitcast i32* %444 to i8*
  call void @_ZdaPv(i8* %447) #20
  br label %448

448:                                              ; preds = %440, %446
  %449 = add nuw nsw i64 %441, 1
  %450 = load i32, i32* %437, align 8, !tbaa !84
  %451 = sext i32 %450 to i64
  %452 = icmp slt i64 %449, %451
  br i1 %452, label %440, label %453, !llvm.loop !85

453:                                              ; preds = %448, %436
  %454 = load i32**, i32*** %433, align 8, !tbaa !83
  %455 = icmp eq i32** %454, null
  br i1 %455, label %458, label %456

456:                                              ; preds = %453
  %457 = bitcast i32** %454 to i8*
  call void @_ZdaPv(i8* %457) #20
  br label %458

458:                                              ; preds = %453, %456, %432
  %459 = getelementptr inbounds %struct.MLI_ElemBlock_Struct, %struct.MLI_ElemBlock_Struct* %15, i64 0, i32 50
  %460 = load i32*, i32** %459, align 8, !tbaa !86
  %461 = icmp eq i32* %460, null
  br i1 %461, label %464, label %462

462:                                              ; preds = %458
  %463 = bitcast i32* %460 to i8*
  call void @_ZdaPv(i8* %463) #20
  br label %464

464:                                              ; preds = %462, %458
  %465 = getelementptr inbounds %struct.MLI_ElemBlock_Struct, %struct.MLI_ElemBlock_Struct* %15, i64 0, i32 41
  store i32 0, i32* %465, align 4, !tbaa !78
  %466 = getelementptr inbounds %struct.MLI_ElemBlock_Struct, %struct.MLI_ElemBlock_Struct* %15, i64 0, i32 42
  store i32 0, i32* %466, align 8, !tbaa !79
  %467 = getelementptr inbounds %struct.MLI_ElemBlock_Struct, %struct.MLI_ElemBlock_Struct* %15, i64 0, i32 44
  store i32 0, i32* %467, align 8, !tbaa !87
  %468 = getelementptr inbounds %struct.MLI_ElemBlock_Struct, %struct.MLI_ElemBlock_Struct* %15, i64 0, i32 46
  store i32 0, i32* %468, align 8, !tbaa !84
  %469 = getelementptr inbounds %struct.MLI_ElemBlock_Struct, %struct.MLI_ElemBlock_Struct* %15, i64 0, i32 51
  store i32 0, i32* %469, align 8, !tbaa !88
  %470 = getelementptr inbounds %struct.MLI_ElemBlock_Struct, %struct.MLI_ElemBlock_Struct* %15, i64 0, i32 52
  store i32 0, i32* %470, align 4, !tbaa !89
  ret i32 0
}

declare dso_local i32 @__gxx_personality_v0(...)

; Function Attrs: argmemonly mustprogress nofree nosync nounwind willreturn
declare void @llvm.lifetime.end.p0i8(i64 immarg, i8* nocapture) #3

; Function Attrs: nobuiltin nounwind
declare dso_local void @_ZdaPv(i8*) local_unnamed_addr #5

; Function Attrs: nounwind
declare dso_local void @_ZN10MLI_FEBaseD2Ev(%class.MLI_FEBase* nonnull align 8 dereferenceable(8)) unnamed_addr #6

; Function Attrs: nounwind uwtable
define dso_local void @_ZN10MLI_FEDataD0Ev(%class.MLI_FEData* nonnull align 8 dereferenceable(88) %0) unnamed_addr #2 align 2 {
  call void @_ZN10MLI_FEDataD2Ev(%class.MLI_FEData* nonnull align 8 dereferenceable(88) %0) #21
  %2 = bitcast %class.MLI_FEData* %0 to i8*
  call void @_ZdlPv(i8* %2) #20
  ret void
}

; Function Attrs: nobuiltin nounwind
declare dso_local void @_ZdlPv(i8*) local_unnamed_addr #5

; Function Attrs: mustprogress nofree nounwind uwtable
define dso_local i32 @_ZN10MLI_FEData14setOutputLevelEi(%class.MLI_FEData* nocapture nonnull align 8 dereferenceable(88) %0, i32 %1) unnamed_addr #7 align 2 {
  %3 = icmp slt i32 %1, 0
  br i1 %3, label %4, label %6

4:                                                ; preds = %2
  %5 = call i32 @puts(i8* nonnull dereferenceable(1) getelementptr inbounds ([45 x i8], [45 x i8]* @str, i64 0, i64 0))
  br label %8

6:                                                ; preds = %2
  %7 = getelementptr inbounds %class.MLI_FEData, %class.MLI_FEData* %0, i64 0, i32 2
  store i32 %1, i32* %7, align 4, !tbaa !11
  br label %8

8:                                                ; preds = %6, %4
  %9 = phi i32 [ 0, %4 ], [ 1, %6 ]
  ret i32 %9
}

; Function Attrs: nofree nounwind
declare dso_local noundef i32 @printf(i8* nocapture noundef readonly, ...) local_unnamed_addr #8

; Function Attrs: mustprogress nounwind uwtable
define dso_local i32 @_ZN10MLI_FEData17setSpaceDimensionEi(%class.MLI_FEData* nocapture nonnull align 8 dereferenceable(88) %0, i32 %1) unnamed_addr #4 align 2 {
  %3 = add i32 %1, -1
  %4 = icmp ugt i32 %3, 3
  br i1 %4, label %5, label %7

5:                                                ; preds = %2
  %6 = call i32 @puts(i8* nonnull dereferenceable(1) getelementptr inbounds ([60 x i8], [60 x i8]* @str.246, i64 0, i64 0))
  call void @exit(i32 1) #22
  unreachable

7:                                                ; preds = %2
  %8 = getelementptr inbounds %class.MLI_FEData, %class.MLI_FEData* %0, i64 0, i32 2
  %9 = load i32, i32* %8, align 4, !tbaa !11
  %10 = icmp sgt i32 %9, 0
  br i1 %10, label %11, label %13

11:                                               ; preds = %7
  %12 = call i32 (i8*, ...) @printf(i8* nonnull dereferenceable(1) getelementptr inbounds ([24 x i8], [24 x i8]* @.str.2, i64 0, i64 0), i32 %1)
  br label %13

13:                                               ; preds = %11, %7
  %14 = getelementptr inbounds %class.MLI_FEData, %class.MLI_FEData* %0, i64 0, i32 3
  store i32 %1, i32* %14, align 8, !tbaa !12
  ret i32 1
}

; Function Attrs: noreturn nounwind
declare dso_local void @exit(i32) local_unnamed_addr #9

; Function Attrs: mustprogress nounwind uwtable
define dso_local i32 @_ZN10MLI_FEData13setOrderOfPDEEi(%class.MLI_FEData* nocapture nonnull align 8 dereferenceable(88) %0, i32 %1) unnamed_addr #4 align 2 {
  %3 = add i32 %1, -1
  %4 = icmp ugt i32 %3, 3
  br i1 %4, label %5, label %7

5:                                                ; preds = %2
  %6 = call i32 @puts(i8* nonnull dereferenceable(1) getelementptr inbounds ([56 x i8], [56 x i8]* @str.247, i64 0, i64 0))
  call void @exit(i32 1) #22
  unreachable

7:                                                ; preds = %2
  %8 = getelementptr inbounds %class.MLI_FEData, %class.MLI_FEData* %0, i64 0, i32 2
  %9 = load i32, i32* %8, align 4, !tbaa !11
  %10 = icmp sgt i32 %9, 0
  br i1 %10, label %11, label %13

11:                                               ; preds = %7
  %12 = call i32 (i8*, ...) @printf(i8* nonnull dereferenceable(1) getelementptr inbounds ([20 x i8], [20 x i8]* @.str.4, i64 0, i64 0), i32 %1)
  br label %13

13:                                               ; preds = %11, %7
  %14 = getelementptr inbounds %class.MLI_FEData, %class.MLI_FEData* %0, i64 0, i32 4
  store i32 %1, i32* %14, align 4, !tbaa !13
  ret i32 1
}

; Function Attrs: mustprogress nounwind uwtable
define dso_local i32 @_ZN10MLI_FEData12setOrderOfFEEi(%class.MLI_FEData* nocapture nonnull align 8 dereferenceable(88) %0, i32 %1) unnamed_addr #4 align 2 {
  %3 = add i32 %1, -1
  %4 = icmp ugt i32 %3, 3
  br i1 %4, label %5, label %7

5:                                                ; preds = %2
  %6 = call i32 @puts(i8* nonnull dereferenceable(1) getelementptr inbounds ([51 x i8], [51 x i8]* @str.248, i64 0, i64 0))
  call void @exit(i32 1) #22
  unreachable

7:                                                ; preds = %2
  %8 = getelementptr inbounds %class.MLI_FEData, %class.MLI_FEData* %0, i64 0, i32 2
  %9 = load i32, i32* %8, align 4, !tbaa !11
  %10 = icmp sgt i32 %9, 0
  br i1 %10, label %11, label %13

11:                                               ; preds = %7
  %12 = call i32 (i8*, ...) @printf(i8* nonnull dereferenceable(1) getelementptr inbounds ([19 x i8], [19 x i8]* @.str.6, i64 0, i64 0), i32 %1)
  br label %13

13:                                               ; preds = %11, %7
  %14 = getelementptr inbounds %class.MLI_FEData, %class.MLI_FEData* %0, i64 0, i32 5
  store i32 %1, i32* %14, align 8, !tbaa !14
  ret i32 1
}

; Function Attrs: mustprogress nounwind uwtable
define dso_local i32 @_ZN10MLI_FEData21setCurrentElemBlockIDEi(%class.MLI_FEData* nocapture nonnull align 8 dereferenceable(88) %0, i32 %1) unnamed_addr #4 align 2 {
  %3 = icmp eq i32 %1, 0
  br i1 %3, label %6, label %4

4:                                                ; preds = %2
  %5 = call i32 @puts(i8* nonnull dereferenceable(1) getelementptr inbounds ([60 x i8], [60 x i8]* @str.249, i64 0, i64 0))
  call void @exit(i32 1) #22
  unreachable

6:                                                ; preds = %2
  %7 = getelementptr inbounds %class.MLI_FEData, %class.MLI_FEData* %0, i64 0, i32 2
  %8 = load i32, i32* %7, align 4, !tbaa !11
  %9 = icmp sgt i32 %8, 0
  br i1 %9, label %10, label %12

10:                                               ; preds = %6
  %11 = call i32 (i8*, ...) @printf(i8* nonnull dereferenceable(1) getelementptr inbounds ([28 x i8], [28 x i8]* @.str.8, i64 0, i64 0), i32 0)
  br label %12

12:                                               ; preds = %10, %6
  %13 = getelementptr inbounds %class.MLI_FEData, %class.MLI_FEData* %0, i64 0, i32 8
  store i32 0, i32* %13, align 8, !tbaa !17
  ret i32 1
}

; Function Attrs: mustprogress uwtable
define dso_local i32 @_ZN10MLI_FEData10initFieldsEiPKiS1_(%class.MLI_FEData* nocapture nonnull align 8 dereferenceable(88) %0, i32 %1, i32* nocapture readonly %2, i32* nocapture readonly %3) unnamed_addr #10 align 2 {
  %5 = bitcast i32* %2 to i8*
  %6 = bitcast i32* %3 to i8*
  %7 = alloca i32, align 4
  %8 = bitcast i32* %7 to i8*
  call void @llvm.lifetime.start.p0i8(i64 4, i8* nonnull %8) #21
  %9 = add i32 %1, -1
  %10 = icmp ugt i32 %9, 9
  br i1 %10, label %11, label %13

11:                                               ; preds = %4
  %12 = call i32 @puts(i8* nonnull dereferenceable(1) getelementptr inbounds ([36 x i8], [36 x i8]* @str.250, i64 0, i64 0))
  call void @exit(i32 1) #22
  unreachable

13:                                               ; preds = %4
  %14 = getelementptr inbounds %class.MLI_FEData, %class.MLI_FEData* %0, i64 0, i32 1
  %15 = load i32, i32* %14, align 8, !tbaa !6
  %16 = call i32 @MPI_Comm_rank(i32 %15, i32* nonnull %7)
  %17 = getelementptr inbounds %class.MLI_FEData, %class.MLI_FEData* %0, i64 0, i32 2
  %18 = load i32, i32* %17, align 4, !tbaa !11
  %19 = icmp sgt i32 %18, 0
  %20 = load i32, i32* %7, align 4
  %21 = icmp eq i32 %20, 0
  %22 = select i1 %19, i1 %21, i1 false
  br i1 %22, label %23, label %37

23:                                               ; preds = %13
  %24 = call i32 (i8*, ...) @printf(i8* nonnull dereferenceable(1) getelementptr inbounds ([37 x i8], [37 x i8]* @.str.10, i64 0, i64 0), i32 %1)
  %25 = icmp sgt i32 %1, 0
  br i1 %25, label %26, label %37

26:                                               ; preds = %23
  %27 = zext i32 %1 to i64
  br label %28

28:                                               ; preds = %26, %28
  %29 = phi i64 [ 0, %26 ], [ %35, %28 ]
  %30 = getelementptr inbounds i32, i32* %3, i64 %29
  %31 = load i32, i32* %30, align 4, !tbaa !90
  %32 = getelementptr inbounds i32, i32* %2, i64 %29
  %33 = load i32, i32* %32, align 4, !tbaa !90
  %34 = call i32 (i8*, ...) @printf(i8* nonnull dereferenceable(1) getelementptr inbounds ([29 x i8], [29 x i8]* @.str.11, i64 0, i64 0), i32 %31, i32 %33)
  %35 = add nuw nsw i64 %29, 1
  %36 = icmp eq i64 %35, %27
  br i1 %36, label %37, label %28, !llvm.loop !91

37:                                               ; preds = %28, %23, %13
  %38 = getelementptr inbounds %class.MLI_FEData, %class.MLI_FEData* %0, i64 0, i32 9
  store i32 %1, i32* %38, align 4, !tbaa !92
  %39 = getelementptr inbounds %class.MLI_FEData, %class.MLI_FEData* %0, i64 0, i32 11
  %40 = load i32*, i32** %39, align 8, !tbaa !22
  %41 = icmp eq i32* %40, null
  br i1 %41, label %44, label %42

42:                                               ; preds = %37
  %43 = bitcast i32* %40 to i8*
  call void @_ZdaPv(i8* %43) #20
  br label %44

44:                                               ; preds = %42, %37
  %45 = sext i32 %1 to i64
  %46 = call { i64, i1 } @llvm.umul.with.overflow.i64(i64 %45, i64 4)
  %47 = extractvalue { i64, i1 } %46, 1
  %48 = extractvalue { i64, i1 } %46, 0
  %49 = select i1 %47, i64 -1, i64 %48
  %50 = call noalias nonnull i8* @_Znam(i64 %49) #23
  %51 = bitcast i32** %39 to i8**
  store i8* %50, i8** %51, align 8, !tbaa !22
  %52 = icmp sgt i32 %1, 0
  br i1 %52, label %53, label %56

53:                                               ; preds = %44
  %54 = zext i32 %1 to i64
  %55 = shl nuw nsw i64 %54, 2
  call void @llvm.memcpy.p0i8.p0i8.i64(i8* nonnull align 4 %50, i8* align 4 %5, i64 %55, i1 false)
  br label %56

56:                                               ; preds = %53, %44
  %57 = getelementptr inbounds %class.MLI_FEData, %class.MLI_FEData* %0, i64 0, i32 10
  %58 = load i32*, i32** %57, align 8, !tbaa !21
  %59 = icmp eq i32* %58, null
  br i1 %59, label %62, label %60

60:                                               ; preds = %56
  %61 = bitcast i32* %58 to i8*
  call void @_ZdaPv(i8* %61) #20
  br label %62

62:                                               ; preds = %60, %56
  %63 = call noalias nonnull i8* @_Znam(i64 %49) #23
  %64 = bitcast i32** %57 to i8**
  store i8* %63, i8** %64, align 8, !tbaa !21
  %65 = icmp sgt i32 %1, 0
  br i1 %65, label %66, label %69

66:                                               ; preds = %62
  %67 = zext i32 %1 to i64
  %68 = shl nuw nsw i64 %67, 2
  call void @llvm.memcpy.p0i8.p0i8.i64(i8* nonnull align 4 %63, i8* align 4 %6, i64 %68, i1 false)
  br label %69

69:                                               ; preds = %66, %62
  call void @llvm.lifetime.end.p0i8(i64 4, i8* nonnull %8) #21
  ret i32 1
}

declare dso_local i32 @MPI_Comm_rank(i32, i32*) local_unnamed_addr #1

; Function Attrs: mustprogress nofree nosync nounwind readnone speculatable willreturn
declare { i64, i1 } @llvm.umul.with.overflow.i64(i64, i64) #11

; Function Attrs: nobuiltin allocsize(0)
declare dso_local nonnull i8* @_Znam(i64) local_unnamed_addr #12

; Function Attrs: mustprogress uwtable
define dso_local i32 @_ZN10MLI_FEData13initElemBlockEiiiPKiiS1_(%class.MLI_FEData* nocapture nonnull align 8 dereferenceable(88) %0, i32 %1, i32 %2, i32 %3, i32* nocapture readonly %4, i32 %5, i32* nocapture readonly %6) unnamed_addr #10 align 2 {
  %8 = bitcast i32* %6 to i8*
  %9 = icmp slt i32 %1, 1
  br i1 %9, label %10, label %12

10:                                               ; preds = %7
  %11 = call i32 @puts(i8* nonnull dereferenceable(1) getelementptr inbounds ([35 x i8], [35 x i8]* @str.254, i64 0, i64 0))
  call void @exit(i32 1) #22
  unreachable

12:                                               ; preds = %7
  %13 = icmp slt i32 %5, 0
  br i1 %13, label %14, label %16

14:                                               ; preds = %12
  %15 = call i32 @puts(i8* nonnull dereferenceable(1) getelementptr inbounds ([41 x i8], [41 x i8]* @str.253, i64 0, i64 0))
  call void @exit(i32 1) #22
  unreachable

16:                                               ; preds = %12
  %17 = icmp slt i32 %3, 0
  br i1 %17, label %18, label %20

18:                                               ; preds = %16
  %19 = call i32 @puts(i8* nonnull dereferenceable(1) getelementptr inbounds ([41 x i8], [41 x i8]* @str.252, i64 0, i64 0))
  call void @exit(i32 1) #22
  unreachable

20:                                               ; preds = %16
  %21 = getelementptr inbounds %class.MLI_FEData, %class.MLI_FEData* %0, i64 0, i32 2
  %22 = load i32, i32* %21, align 4, !tbaa !11
  %23 = icmp sgt i32 %22, 0
  br i1 %23, label %24, label %28

24:                                               ; preds = %20
  %25 = call i32 (i8*, ...) @printf(i8* nonnull dereferenceable(1) getelementptr inbounds ([29 x i8], [29 x i8]* @.str.15, i64 0, i64 0), i32 %1)
  %26 = call i32 (i8*, ...) @printf(i8* nonnull dereferenceable(1) getelementptr inbounds ([35 x i8], [35 x i8]* @.str.16, i64 0, i64 0), i32 %3)
  %27 = call i32 (i8*, ...) @printf(i8* nonnull dereferenceable(1) getelementptr inbounds ([35 x i8], [35 x i8]* @.str.17, i64 0, i64 0), i32 %5)
  br label %28

28:                                               ; preds = %24, %20
  %29 = getelementptr inbounds %class.MLI_FEData, %class.MLI_FEData* %0, i64 0, i32 8
  %30 = load i32, i32* %29, align 8, !tbaa !17
  %31 = icmp sgt i32 %30, -1
  br i1 %31, label %32, label %51

32:                                               ; preds = %28
  %33 = getelementptr inbounds %class.MLI_FEData, %class.MLI_FEData* %0, i64 0, i32 6
  %34 = load i32, i32* %33, align 4, !tbaa !15
  %35 = icmp slt i32 %30, %34
  br i1 %35, label %36, label %46

36:                                               ; preds = %32
  %37 = getelementptr inbounds %class.MLI_FEData, %class.MLI_FEData* %0, i64 0, i32 7
  %38 = load %struct.MLI_ElemBlock_Struct**, %struct.MLI_ElemBlock_Struct*** %37, align 8, !tbaa !16
  %39 = sext i32 %30 to i64
  %40 = getelementptr inbounds %struct.MLI_ElemBlock_Struct*, %struct.MLI_ElemBlock_Struct** %38, i64 %39
  %41 = load %struct.MLI_ElemBlock_Struct*, %struct.MLI_ElemBlock_Struct** %40, align 8, !tbaa !23
  %42 = icmp eq %struct.MLI_ElemBlock_Struct* %41, null
  br i1 %42, label %46, label %43

43:                                               ; preds = %36
  %44 = call i32 @_ZN10MLI_FEData15deleteElemBlockEi(%class.MLI_FEData* nonnull align 8 dereferenceable(88) %0, i32 %30)
  %45 = load i32, i32* %29, align 8, !tbaa !17
  br label %53

46:                                               ; preds = %36, %32
  br i1 %31, label %47, label %51

47:                                               ; preds = %46
  %48 = getelementptr inbounds %class.MLI_FEData, %class.MLI_FEData* %0, i64 0, i32 6
  %49 = load i32, i32* %48, align 4, !tbaa !15
  %50 = icmp slt i32 %30, %49
  br i1 %50, label %53, label %51

51:                                               ; preds = %28, %47, %46
  %52 = add nsw i32 %30, 1
  store i32 %52, i32* %29, align 8, !tbaa !17
  br label %53

53:                                               ; preds = %47, %51, %43
  %54 = phi i32 [ %52, %51 ], [ %45, %43 ], [ %30, %47 ]
  %55 = call i32 @_ZN10MLI_FEData15createElemBlockEi(%class.MLI_FEData* nonnull align 8 dereferenceable(88) %0, i32 %54)
  %56 = getelementptr inbounds %class.MLI_FEData, %class.MLI_FEData* %0, i64 0, i32 7
  %57 = load %struct.MLI_ElemBlock_Struct**, %struct.MLI_ElemBlock_Struct*** %56, align 8, !tbaa !16
  %58 = load i32, i32* %29, align 8, !tbaa !17
  %59 = sext i32 %58 to i64
  %60 = getelementptr inbounds %struct.MLI_ElemBlock_Struct*, %struct.MLI_ElemBlock_Struct** %57, i64 %59
  %61 = load %struct.MLI_ElemBlock_Struct*, %struct.MLI_ElemBlock_Struct** %60, align 8, !tbaa !23
  %62 = getelementptr inbounds %struct.MLI_ElemBlock_Struct, %struct.MLI_ElemBlock_Struct* %61, i64 0, i32 0
  store i32 %1, i32* %62, align 8, !tbaa !29
  %63 = sext i32 %1 to i64
  %64 = call { i64, i1 } @llvm.umul.with.overflow.i64(i64 %63, i64 4)
  %65 = extractvalue { i64, i1 } %64, 1
  %66 = extractvalue { i64, i1 } %64, 0
  %67 = select i1 %65, i64 -1, i64 %66
  %68 = call noalias nonnull i8* @_Znam(i64 %67) #23
  %69 = getelementptr inbounds %struct.MLI_ElemBlock_Struct, %struct.MLI_ElemBlock_Struct* %61, i64 0, i32 1
  %70 = bitcast i32** %69 to i8**
  store i8* %68, i8** %70, align 8, !tbaa !24
  %71 = icmp sgt i32 %1, 0
  br i1 %71, label %72, label %77

72:                                               ; preds = %53
  %73 = bitcast i32** %69 to i8**
  %74 = load i8*, i8** %73, align 8, !tbaa !24
  %75 = zext i32 %1 to i64
  %76 = shl nuw nsw i64 %75, 2
  call void @llvm.memset.p0i8.i64(i8* align 4 %74, i8 -1, i64 %76, i1 false)
  br label %77

77:                                               ; preds = %72, %53
  %78 = call { i64, i1 } @llvm.umul.with.overflow.i64(i64 %63, i64 8)
  %79 = extractvalue { i64, i1 } %78, 1
  %80 = extractvalue { i64, i1 } %78, 0
  %81 = select i1 %79, i64 -1, i64 %80
  %82 = call noalias nonnull i8* @_Znam(i64 %81) #23
  %83 = getelementptr inbounds %struct.MLI_ElemBlock_Struct, %struct.MLI_ElemBlock_Struct* %61, i64 0, i32 4
  %84 = bitcast i32*** %83 to i8**
  store i8* %82, i8** %84, align 8, !tbaa !28
  %85 = icmp sgt i32 %1, 0
  br i1 %85, label %86, label %94

86:                                               ; preds = %77
  %87 = zext i32 %1 to i64
  br label %88

88:                                               ; preds = %86, %88
  %89 = phi i64 [ 0, %86 ], [ %92, %88 ]
  %90 = load i32**, i32*** %83, align 8, !tbaa !28
  %91 = getelementptr inbounds i32*, i32** %90, i64 %89
  store i32* null, i32** %91, align 8, !tbaa !23
  %92 = add nuw nsw i64 %89, 1
  %93 = icmp eq i64 %92, %87
  br i1 %93, label %94, label %88, !llvm.loop !93

94:                                               ; preds = %88, %77
  %95 = add i32 %2, -1
  %96 = icmp ugt i32 %95, 199
  br i1 %96, label %97, label %99

97:                                               ; preds = %94
  %98 = call i32 @puts(i8* nonnull dereferenceable(1) getelementptr inbounds ([51 x i8], [51 x i8]* @str.251, i64 0, i64 0))
  call void @exit(i32 1) #22
  unreachable

99:                                               ; preds = %94
  %100 = getelementptr inbounds %struct.MLI_ElemBlock_Struct, %struct.MLI_ElemBlock_Struct* %61, i64 0, i32 3
  store i32 %2, i32* %100, align 8, !tbaa !51
  %101 = getelementptr inbounds %struct.MLI_ElemBlock_Struct, %struct.MLI_ElemBlock_Struct* %61, i64 0, i32 27
  store i32 %3, i32* %101, align 8, !tbaa !73
  %102 = sext i32 %3 to i64
  %103 = call { i64, i1 } @llvm.umul.with.overflow.i64(i64 %102, i64 4)
  %104 = extractvalue { i64, i1 } %103, 1
  %105 = extractvalue { i64, i1 } %103, 0
  %106 = select i1 %104, i64 -1, i64 %105
  %107 = call noalias nonnull i8* @_Znam(i64 %106) #23
  %108 = getelementptr inbounds %struct.MLI_ElemBlock_Struct, %struct.MLI_ElemBlock_Struct* %61, i64 0, i32 28
  %109 = bitcast i32** %108 to i8**
  store i8* %107, i8** %109, align 8, !tbaa !57
  %110 = icmp sgt i32 %3, 0
  br i1 %110, label %111, label %121

111:                                              ; preds = %99
  %112 = load i32*, i32** %108, align 8, !tbaa !57
  %113 = zext i32 %3 to i64
  br label %114

114:                                              ; preds = %111, %114
  %115 = phi i64 [ 0, %111 ], [ %119, %114 ]
  %116 = getelementptr inbounds i32, i32* %4, i64 %115
  %117 = load i32, i32* %116, align 4, !tbaa !90
  %118 = getelementptr inbounds i32, i32* %112, i64 %115
  store i32 %117, i32* %118, align 4, !tbaa !90
  %119 = add nuw nsw i64 %115, 1
  %120 = icmp eq i64 %119, %113
  br i1 %120, label %121, label %114, !llvm.loop !94

121:                                              ; preds = %114, %99
  %122 = getelementptr inbounds %struct.MLI_ElemBlock_Struct, %struct.MLI_ElemBlock_Struct* %61, i64 0, i32 5
  store i32 %5, i32* %122, align 8, !tbaa !49
  %123 = icmp sgt i32 %5, 0
  br i1 %123, label %124, label %135

124:                                              ; preds = %121
  %125 = sext i32 %5 to i64
  %126 = call { i64, i1 } @llvm.umul.with.overflow.i64(i64 %125, i64 4)
  %127 = extractvalue { i64, i1 } %126, 1
  %128 = extractvalue { i64, i1 } %126, 0
  %129 = select i1 %127, i64 -1, i64 %128
  %130 = call noalias nonnull i8* @_Znam(i64 %129) #23
  %131 = getelementptr inbounds %struct.MLI_ElemBlock_Struct, %struct.MLI_ElemBlock_Struct* %61, i64 0, i32 6
  %132 = bitcast i32** %131 to i8**
  store i8* %130, i8** %132, align 8, !tbaa !27
  %133 = zext i32 %5 to i64
  %134 = shl nuw nsw i64 %133, 2
  call void @llvm.memcpy.p0i8.p0i8.i64(i8* nonnull align 4 %130, i8* align 4 %8, i64 %134, i1 false)
  br label %135

135:                                              ; preds = %124, %121
  ret i32 1
}

; Function Attrs: mustprogress uwtable
define dso_local i32 @_ZN10MLI_FEData15createElemBlockEi(%class.MLI_FEData* nocapture nonnull align 8 dereferenceable(88) %0, i32 %1) local_unnamed_addr #10 align 2 {
  %3 = getelementptr inbounds %class.MLI_FEData, %class.MLI_FEData* %0, i64 0, i32 6
  %4 = load i32, i32* %3, align 4, !tbaa !15
  %5 = icmp slt i32 %4, %1
  br i1 %5, label %6, label %8

6:                                                ; preds = %2
  %7 = call i32 (i8*, ...) @printf(i8* nonnull dereferenceable(1) getelementptr inbounds ([40 x i8], [40 x i8]* @.str.243, i64 0, i64 0), i32 %1)
  call void @exit(i32 1) #22
  unreachable

8:                                                ; preds = %2
  %9 = icmp eq i32 %4, %1
  br i1 %9, label %10, label %41

10:                                               ; preds = %8
  %11 = getelementptr inbounds %class.MLI_FEData, %class.MLI_FEData* %0, i64 0, i32 7
  %12 = load %struct.MLI_ElemBlock_Struct**, %struct.MLI_ElemBlock_Struct*** %11, align 8, !tbaa !16
  %13 = add nsw i32 %4, 1
  store i32 %13, i32* %3, align 4, !tbaa !15
  %14 = sext i32 %13 to i64
  %15 = call { i64, i1 } @llvm.umul.with.overflow.i64(i64 %14, i64 8)
  %16 = extractvalue { i64, i1 } %15, 1
  %17 = extractvalue { i64, i1 } %15, 0
  %18 = select i1 %16, i64 -1, i64 %17
  %19 = call noalias nonnull i8* @_Znam(i64 %18) #23
  %20 = bitcast %struct.MLI_ElemBlock_Struct*** %11 to i8**
  store i8* %19, i8** %20, align 8, !tbaa !16
  %21 = icmp sgt i32 %4, 0
  br i1 %21, label %22, label %32

22:                                               ; preds = %10
  %23 = zext i32 %4 to i64
  br label %24

24:                                               ; preds = %22, %24
  %25 = phi i64 [ 0, %22 ], [ %30, %24 ]
  %26 = getelementptr inbounds %struct.MLI_ElemBlock_Struct*, %struct.MLI_ElemBlock_Struct** %12, i64 %25
  %27 = load %struct.MLI_ElemBlock_Struct*, %struct.MLI_ElemBlock_Struct** %26, align 8, !tbaa !23
  %28 = load %struct.MLI_ElemBlock_Struct**, %struct.MLI_ElemBlock_Struct*** %11, align 8, !tbaa !16
  %29 = getelementptr inbounds %struct.MLI_ElemBlock_Struct*, %struct.MLI_ElemBlock_Struct** %28, i64 %25
  store %struct.MLI_ElemBlock_Struct* %27, %struct.MLI_ElemBlock_Struct** %29, align 8, !tbaa !23
  %30 = add nuw nsw i64 %25, 1
  %31 = icmp eq i64 %30, %23
  br i1 %31, label %32, label %24, !llvm.loop !95

32:                                               ; preds = %24, %10
  %33 = call noalias nonnull dereferenceable(392) i8* @_Znwm(i64 392) #23
  call void @llvm.memset.p0i8.i64(i8* noundef nonnull align 16 dereferenceable(392) %33, i8 0, i64 392, i1 false)
  %34 = load %struct.MLI_ElemBlock_Struct**, %struct.MLI_ElemBlock_Struct*** %11, align 8, !tbaa !16
  %35 = sext i32 %4 to i64
  %36 = getelementptr inbounds %struct.MLI_ElemBlock_Struct*, %struct.MLI_ElemBlock_Struct** %34, i64 %35
  %37 = bitcast %struct.MLI_ElemBlock_Struct** %36 to i8**
  store i8* %33, i8** %37, align 8, !tbaa !23
  %38 = icmp eq %struct.MLI_ElemBlock_Struct** %12, null
  br i1 %38, label %41, label %39

39:                                               ; preds = %32
  %40 = bitcast %struct.MLI_ElemBlock_Struct** %12 to i8*
  call void @_ZdaPv(i8* %40) #20
  br label %41

41:                                               ; preds = %32, %39, %8
  %42 = getelementptr inbounds %class.MLI_FEData, %class.MLI_FEData* %0, i64 0, i32 7
  %43 = load %struct.MLI_ElemBlock_Struct**, %struct.MLI_ElemBlock_Struct*** %42, align 8, !tbaa !16
  %44 = sext i32 %1 to i64
  %45 = getelementptr inbounds %struct.MLI_ElemBlock_Struct*, %struct.MLI_ElemBlock_Struct** %43, i64 %44
  %46 = load %struct.MLI_ElemBlock_Struct*, %struct.MLI_ElemBlock_Struct** %45, align 8, !tbaa !23
  %47 = getelementptr inbounds %struct.MLI_ElemBlock_Struct, %struct.MLI_ElemBlock_Struct* %46, i64 0, i32 0
  store i32 0, i32* %47, align 8, !tbaa !29
  %48 = getelementptr inbounds %struct.MLI_ElemBlock_Struct, %struct.MLI_ElemBlock_Struct* %46, i64 0, i32 1
  %49 = getelementptr inbounds %struct.MLI_ElemBlock_Struct, %struct.MLI_ElemBlock_Struct* %46, i64 0, i32 5
  store i32 0, i32* %49, align 8, !tbaa !49
  %50 = getelementptr inbounds %struct.MLI_ElemBlock_Struct, %struct.MLI_ElemBlock_Struct* %46, i64 0, i32 6
  %51 = getelementptr inbounds %struct.MLI_ElemBlock_Struct, %struct.MLI_ElemBlock_Struct* %46, i64 0, i32 4
  store i32** null, i32*** %51, align 8, !tbaa !28
  %52 = getelementptr inbounds %struct.MLI_ElemBlock_Struct, %struct.MLI_ElemBlock_Struct* %46, i64 0, i32 18
  store i32** null, i32*** %52, align 8, !tbaa !42
  %53 = getelementptr inbounds %struct.MLI_ElemBlock_Struct, %struct.MLI_ElemBlock_Struct* %46, i64 0, i32 19
  store i32 0, i32* %53, align 8, !tbaa !54
  %54 = getelementptr inbounds %struct.MLI_ElemBlock_Struct, %struct.MLI_ElemBlock_Struct* %46, i64 0, i32 20
  %55 = getelementptr inbounds %struct.MLI_ElemBlock_Struct, %struct.MLI_ElemBlock_Struct* %46, i64 0, i32 26
  store i32* null, i32** %55, align 8, !tbaa !56
  %56 = getelementptr inbounds %struct.MLI_ElemBlock_Struct, %struct.MLI_ElemBlock_Struct* %46, i64 0, i32 27
  store i32 0, i32* %56, align 8, !tbaa !73
  %57 = getelementptr inbounds %struct.MLI_ElemBlock_Struct, %struct.MLI_ElemBlock_Struct* %46, i64 0, i32 28
  store i32* null, i32** %57, align 8, !tbaa !57
  %58 = getelementptr inbounds %struct.MLI_ElemBlock_Struct, %struct.MLI_ElemBlock_Struct* %46, i64 0, i32 29
  store i32 0, i32* %58, align 8, !tbaa !74
  %59 = getelementptr inbounds %struct.MLI_ElemBlock_Struct, %struct.MLI_ElemBlock_Struct* %46, i64 0, i32 30
  store double* null, double** %59, align 8, !tbaa !58
  %60 = getelementptr inbounds %struct.MLI_ElemBlock_Struct, %struct.MLI_ElemBlock_Struct* %46, i64 0, i32 31
  store i32 0, i32* %60, align 8, !tbaa !61
  %61 = getelementptr inbounds %struct.MLI_ElemBlock_Struct, %struct.MLI_ElemBlock_Struct* %46, i64 0, i32 32
  %62 = getelementptr inbounds %struct.MLI_ElemBlock_Struct, %struct.MLI_ElemBlock_Struct* %46, i64 0, i32 36
  %63 = getelementptr inbounds %struct.MLI_ElemBlock_Struct, %struct.MLI_ElemBlock_Struct* %46, i64 0, i32 43
  store i32* null, i32** %63, align 8, !tbaa !76
  %64 = getelementptr inbounds %struct.MLI_ElemBlock_Struct, %struct.MLI_ElemBlock_Struct* %46, i64 0, i32 44
  store i32 0, i32* %64, align 8, !tbaa !87
  %65 = getelementptr inbounds %struct.MLI_ElemBlock_Struct, %struct.MLI_ElemBlock_Struct* %46, i64 0, i32 45
  store i32** null, i32*** %65, align 8, !tbaa !77
  %66 = getelementptr inbounds %struct.MLI_ElemBlock_Struct, %struct.MLI_ElemBlock_Struct* %46, i64 0, i32 46
  store i32 0, i32* %66, align 8, !tbaa !84
  %67 = getelementptr inbounds %struct.MLI_ElemBlock_Struct, %struct.MLI_ElemBlock_Struct* %46, i64 0, i32 47
  %68 = bitcast i32** %48 to i8*
  call void @llvm.memset.p0i8.i64(i8* noundef nonnull align 8 dereferenceable(20) %68, i8 0, i64 20, i1 false)
  %69 = bitcast i32** %50 to i8*
  call void @llvm.memset.p0i8.i64(i8* noundef nonnull align 8 dereferenceable(84) %69, i8 0, i64 84, i1 false)
  %70 = bitcast i32** %54 to i8*
  call void @llvm.memset.p0i8.i64(i8* noundef nonnull align 8 dereferenceable(36) %70, i8 0, i64 36, i1 false)
  %71 = bitcast i32** %61 to i8*
  call void @llvm.memset.p0i8.i64(i8* noundef nonnull align 8 dereferenceable(28) %71, i8 0, i64 28, i1 false)
  %72 = bitcast i32** %62 to i8*
  call void @llvm.memset.p0i8.i64(i8* noundef nonnull align 8 dereferenceable(44) %72, i8 0, i64 44, i1 false)
  %73 = bitcast i32** %67 to i8*
  call void @llvm.memset.p0i8.i64(i8* noundef nonnull align 8 dereferenceable(40) %73, i8 0, i64 40, i1 false)
  ret i32 0
}

; Function Attrs: mustprogress uwtable
define dso_local i32 @_ZN10MLI_FEData22initElemBlockNodeListsEiPKiiPKS1_iPKPKd(%class.MLI_FEData* nocapture nonnull readonly align 8 dereferenceable(88) %0, i32 %1, i32* nocapture readonly %2, i32 %3, i32** nocapture readonly %4, i32 %5, double** readonly %6) unnamed_addr #10 align 2 {
  %8 = getelementptr inbounds %class.MLI_FEData, %class.MLI_FEData* %0, i64 0, i32 7
  %9 = load %struct.MLI_ElemBlock_Struct**, %struct.MLI_ElemBlock_Struct*** %8, align 8, !tbaa !16
  %10 = getelementptr inbounds %class.MLI_FEData, %class.MLI_FEData* %0, i64 0, i32 8
  %11 = load i32, i32* %10, align 8, !tbaa !17
  %12 = sext i32 %11 to i64
  %13 = getelementptr inbounds %struct.MLI_ElemBlock_Struct*, %struct.MLI_ElemBlock_Struct** %9, i64 %12
  %14 = load %struct.MLI_ElemBlock_Struct*, %struct.MLI_ElemBlock_Struct** %13, align 8, !tbaa !23
  %15 = getelementptr inbounds %struct.MLI_ElemBlock_Struct, %struct.MLI_ElemBlock_Struct* %14, i64 0, i32 0
  %16 = load i32, i32* %15, align 8, !tbaa !29
  %17 = icmp eq i32 %16, %1
  br i1 %17, label %20, label %18

18:                                               ; preds = %7
  %19 = call i32 @puts(i8* nonnull dereferenceable(1) getelementptr inbounds ([52 x i8], [52 x i8]* @str.257, i64 0, i64 0))
  call void @exit(i32 1) #22
  unreachable

20:                                               ; preds = %7
  %21 = getelementptr inbounds %struct.MLI_ElemBlock_Struct, %struct.MLI_ElemBlock_Struct* %14, i64 0, i32 3
  %22 = load i32, i32* %21, align 8, !tbaa !51
  %23 = icmp eq i32 %22, %3
  br i1 %23, label %26, label %24

24:                                               ; preds = %20
  %25 = call i32 @puts(i8* nonnull dereferenceable(1) getelementptr inbounds ([54 x i8], [54 x i8]* @str.256, i64 0, i64 0))
  call void @exit(i32 1) #22
  unreachable

26:                                               ; preds = %20
  %27 = getelementptr inbounds %class.MLI_FEData, %class.MLI_FEData* %0, i64 0, i32 3
  %28 = load i32, i32* %27, align 8, !tbaa !12
  %29 = icmp ne i32 %28, %5
  %30 = icmp ne double** %6, null
  %31 = select i1 %29, i1 %30, i1 false
  br i1 %31, label %32, label %34

32:                                               ; preds = %26
  %33 = call i32 @puts(i8* nonnull dereferenceable(1) getelementptr inbounds ([49 x i8], [49 x i8]* @str.255, i64 0, i64 0))
  call void @exit(i32 1) #22
  unreachable

34:                                               ; preds = %26
  %35 = getelementptr inbounds %struct.MLI_ElemBlock_Struct, %struct.MLI_ElemBlock_Struct* %14, i64 0, i32 1
  %36 = load i32*, i32** %35, align 8, !tbaa !24
  %37 = icmp eq i32* %36, null
  br i1 %37, label %42, label %38

38:                                               ; preds = %34
  %39 = icmp sgt i32 %1, 0
  br i1 %39, label %40, label %44

40:                                               ; preds = %38
  %41 = zext i32 %1 to i64
  br label %56

42:                                               ; preds = %34
  %43 = call i32 (i8*, ...) @printf(i8* nonnull dereferenceable(1) getelementptr inbounds ([62 x i8], [62 x i8]* @.str.22, i64 0, i64 0))
  call void @exit(i32 1) #22
  unreachable

44:                                               ; preds = %56, %38
  %45 = sext i32 %3 to i64
  %46 = call { i64, i1 } @llvm.umul.with.overflow.i64(i64 %45, i64 4)
  %47 = extractvalue { i64, i1 } %46, 1
  %48 = extractvalue { i64, i1 } %46, 0
  %49 = select i1 %47, i64 -1, i64 %48
  %50 = getelementptr inbounds %struct.MLI_ElemBlock_Struct, %struct.MLI_ElemBlock_Struct* %14, i64 0, i32 4
  %51 = icmp sgt i32 %3, 0
  %52 = icmp sgt i32 %1, 0
  br i1 %52, label %53, label %85

53:                                               ; preds = %44
  %54 = zext i32 %1 to i64
  %55 = zext i32 %3 to i64
  br label %63

56:                                               ; preds = %40, %56
  %57 = phi i64 [ 0, %40 ], [ %61, %56 ]
  %58 = getelementptr inbounds i32, i32* %2, i64 %57
  %59 = load i32, i32* %58, align 4, !tbaa !90
  %60 = getelementptr inbounds i32, i32* %36, i64 %57
  store i32 %59, i32* %60, align 4, !tbaa !90
  %61 = add nuw nsw i64 %57, 1
  %62 = icmp eq i64 %61, %41
  br i1 %62, label %44, label %56, !llvm.loop !96

63:                                               ; preds = %53, %82
  %64 = phi i64 [ 0, %53 ], [ %83, %82 ]
  %65 = call noalias nonnull i8* @_Znam(i64 %49) #23
  %66 = load i32**, i32*** %50, align 8, !tbaa !28
  %67 = getelementptr inbounds i32*, i32** %66, i64 %64
  %68 = bitcast i32** %67 to i8**
  store i8* %65, i8** %68, align 8, !tbaa !23
  %69 = load i32**, i32*** %50, align 8, !tbaa !28
  %70 = getelementptr inbounds i32*, i32** %69, i64 %64
  %71 = load i32*, i32** %70, align 8, !tbaa !23
  br i1 %51, label %72, label %82

72:                                               ; preds = %63
  %73 = getelementptr inbounds i32*, i32** %4, i64 %64
  %74 = load i32*, i32** %73, align 8, !tbaa !23
  br label %75

75:                                               ; preds = %72, %75
  %76 = phi i64 [ 0, %72 ], [ %80, %75 ]
  %77 = getelementptr inbounds i32, i32* %74, i64 %76
  %78 = load i32, i32* %77, align 4, !tbaa !90
  %79 = getelementptr inbounds i32, i32* %71, i64 %76
  store i32 %78, i32* %79, align 4, !tbaa !90
  %80 = add nuw nsw i64 %76, 1
  %81 = icmp eq i64 %80, %55
  br i1 %81, label %82, label %75, !llvm.loop !97

82:                                               ; preds = %75, %63
  %83 = add nuw nsw i64 %64, 1
  %84 = icmp eq i64 %83, %54
  br i1 %84, label %85, label %63, !llvm.loop !98

85:                                               ; preds = %82, %44
  %86 = icmp eq double** %6, null
  br i1 %86, label %125, label %87

87:                                               ; preds = %85
  %88 = load i32, i32* %27, align 8, !tbaa !12
  %89 = mul nsw i32 %88, %3
  %90 = mul nsw i32 %89, %1
  %91 = sext i32 %90 to i64
  %92 = call { i64, i1 } @llvm.umul.with.overflow.i64(i64 %91, i64 8)
  %93 = extractvalue { i64, i1 } %92, 1
  %94 = extractvalue { i64, i1 } %92, 0
  %95 = select i1 %93, i64 -1, i64 %94
  %96 = call noalias nonnull i8* @_Znam(i64 %95) #23
  %97 = getelementptr inbounds %struct.MLI_ElemBlock_Struct, %struct.MLI_ElemBlock_Struct* %14, i64 0, i32 30
  %98 = bitcast double** %97 to i8**
  store i8* %96, i8** %98, align 8, !tbaa !58
  %99 = icmp sgt i32 %89, 0
  %100 = icmp sgt i32 %1, 0
  br i1 %100, label %101, label %125

101:                                              ; preds = %87
  %102 = mul i32 %88, %3
  %103 = zext i32 %1 to i64
  %104 = zext i32 %102 to i64
  br label %105

105:                                              ; preds = %101, %122
  %106 = phi i64 [ 0, %101 ], [ %123, %122 ]
  br i1 %99, label %107, label %122

107:                                              ; preds = %105
  %108 = trunc i64 %106 to i32
  %109 = mul nsw i32 %89, %108
  %110 = getelementptr inbounds double*, double** %6, i64 %106
  %111 = load double*, double** %110, align 8, !tbaa !23
  %112 = load double*, double** %97, align 8, !tbaa !58
  %113 = sext i32 %109 to i64
  br label %114

114:                                              ; preds = %107, %114
  %115 = phi i64 [ 0, %107 ], [ %120, %114 ]
  %116 = getelementptr inbounds double, double* %111, i64 %115
  %117 = load double, double* %116, align 8, !tbaa !99
  %118 = add nsw i64 %115, %113
  %119 = getelementptr inbounds double, double* %112, i64 %118
  store double %117, double* %119, align 8, !tbaa !99
  %120 = add nuw nsw i64 %115, 1
  %121 = icmp eq i64 %120, %104
  br i1 %121, label %122, label %114, !llvm.loop !101

122:                                              ; preds = %114, %105
  %123 = add nuw nsw i64 %106, 1
  %124 = icmp eq i64 %123, %103
  br i1 %124, label %125, label %105, !llvm.loop !102

125:                                              ; preds = %122, %87, %85
  ret i32 1
}

; Function Attrs: mustprogress uwtable
define dso_local i32 @_ZN10MLI_FEData16initElemNodeListEiiPKiiPKd(%class.MLI_FEData* nocapture nonnull readonly align 8 dereferenceable(88) %0, i32 %1, i32 %2, i32* nocapture readonly %3, i32 %4, double* readonly %5) unnamed_addr #10 align 2 {
  %7 = getelementptr inbounds %class.MLI_FEData, %class.MLI_FEData* %0, i64 0, i32 7
  %8 = load %struct.MLI_ElemBlock_Struct**, %struct.MLI_ElemBlock_Struct*** %7, align 8, !tbaa !16
  %9 = getelementptr inbounds %class.MLI_FEData, %class.MLI_FEData* %0, i64 0, i32 8
  %10 = load i32, i32* %9, align 8, !tbaa !17
  %11 = sext i32 %10 to i64
  %12 = getelementptr inbounds %struct.MLI_ElemBlock_Struct*, %struct.MLI_ElemBlock_Struct** %8, i64 %11
  %13 = load %struct.MLI_ElemBlock_Struct*, %struct.MLI_ElemBlock_Struct** %12, align 8, !tbaa !23
  %14 = getelementptr inbounds %struct.MLI_ElemBlock_Struct, %struct.MLI_ElemBlock_Struct* %13, i64 0, i32 3
  %15 = load i32, i32* %14, align 8, !tbaa !51
  %16 = icmp eq i32 %15, %2
  br i1 %16, label %19, label %17

17:                                               ; preds = %6
  %18 = call i32 @puts(i8* nonnull dereferenceable(1) getelementptr inbounds ([48 x i8], [48 x i8]* @str.259, i64 0, i64 0))
  call void @exit(i32 1) #22
  unreachable

19:                                               ; preds = %6
  %20 = getelementptr inbounds %class.MLI_FEData, %class.MLI_FEData* %0, i64 0, i32 3
  %21 = load i32, i32* %20, align 8, !tbaa !12
  %22 = icmp ne i32 %21, %4
  %23 = icmp ne double* %5, null
  %24 = select i1 %22, i1 %23, i1 false
  br i1 %24, label %25, label %27

25:                                               ; preds = %19
  %26 = call i32 @puts(i8* nonnull dereferenceable(1) getelementptr inbounds ([43 x i8], [43 x i8]* @str.258, i64 0, i64 0))
  call void @exit(i32 1) #22
  unreachable

27:                                               ; preds = %19
  %28 = getelementptr inbounds %struct.MLI_ElemBlock_Struct, %struct.MLI_ElemBlock_Struct* %13, i64 0, i32 1
  %29 = load i32*, i32** %28, align 8, !tbaa !24
  %30 = icmp eq i32* %29, null
  br i1 %30, label %31, label %33

31:                                               ; preds = %27
  %32 = call i32 (i8*, ...) @printf(i8* nonnull dereferenceable(1) getelementptr inbounds ([56 x i8], [56 x i8]* @.str.25, i64 0, i64 0))
  call void @exit(i32 1) #22
  unreachable

33:                                               ; preds = %27
  %34 = getelementptr inbounds %struct.MLI_ElemBlock_Struct, %struct.MLI_ElemBlock_Struct* %13, i64 0, i32 23
  %35 = load i32, i32* %34, align 8, !tbaa !55
  %36 = add nsw i32 %35, 1
  store i32 %36, i32* %34, align 8, !tbaa !55
  %37 = sext i32 %35 to i64
  %38 = getelementptr inbounds i32, i32* %29, i64 %37
  store i32 %1, i32* %38, align 4, !tbaa !90
  %39 = sext i32 %2 to i64
  %40 = call { i64, i1 } @llvm.umul.with.overflow.i64(i64 %39, i64 4)
  %41 = extractvalue { i64, i1 } %40, 1
  %42 = extractvalue { i64, i1 } %40, 0
  %43 = select i1 %41, i64 -1, i64 %42
  %44 = call noalias nonnull i8* @_Znam(i64 %43) #23
  %45 = getelementptr inbounds %struct.MLI_ElemBlock_Struct, %struct.MLI_ElemBlock_Struct* %13, i64 0, i32 4
  %46 = load i32**, i32*** %45, align 8, !tbaa !28
  %47 = getelementptr inbounds i32*, i32** %46, i64 %37
  %48 = bitcast i32** %47 to i8**
  store i8* %44, i8** %48, align 8, !tbaa !23
  %49 = load i32**, i32*** %45, align 8, !tbaa !28
  %50 = getelementptr inbounds i32*, i32** %49, i64 %37
  %51 = load i32*, i32** %50, align 8, !tbaa !23
  %52 = icmp sgt i32 %2, 0
  br i1 %52, label %53, label %62

53:                                               ; preds = %33
  %54 = zext i32 %2 to i64
  br label %55

55:                                               ; preds = %53, %55
  %56 = phi i64 [ 0, %53 ], [ %60, %55 ]
  %57 = getelementptr inbounds i32, i32* %3, i64 %56
  %58 = load i32, i32* %57, align 4, !tbaa !90
  %59 = getelementptr inbounds i32, i32* %51, i64 %56
  store i32 %58, i32* %59, align 4, !tbaa !90
  %60 = add nuw nsw i64 %56, 1
  %61 = icmp eq i64 %60, %54
  br i1 %61, label %62, label %55, !llvm.loop !103

62:                                               ; preds = %55, %33
  %63 = icmp eq double* %5, null
  br i1 %63, label %99, label %64

64:                                               ; preds = %62
  %65 = getelementptr inbounds %struct.MLI_ElemBlock_Struct, %struct.MLI_ElemBlock_Struct* %13, i64 0, i32 30
  %66 = load double*, double** %65, align 8, !tbaa !58
  %67 = icmp eq double* %66, null
  br i1 %67, label %68, label %81

68:                                               ; preds = %64
  %69 = load i32, i32* %20, align 8, !tbaa !12
  %70 = mul nsw i32 %69, %2
  %71 = getelementptr inbounds %struct.MLI_ElemBlock_Struct, %struct.MLI_ElemBlock_Struct* %13, i64 0, i32 0
  %72 = load i32, i32* %71, align 8, !tbaa !29
  %73 = mul nsw i32 %70, %72
  %74 = sext i32 %73 to i64
  %75 = call { i64, i1 } @llvm.umul.with.overflow.i64(i64 %74, i64 8)
  %76 = extractvalue { i64, i1 } %75, 1
  %77 = extractvalue { i64, i1 } %75, 0
  %78 = select i1 %76, i64 -1, i64 %77
  %79 = call noalias nonnull i8* @_Znam(i64 %78) #23
  %80 = bitcast double** %65 to i8**
  store i8* %79, i8** %80, align 8, !tbaa !58
  br label %81

81:                                               ; preds = %68, %64
  %82 = load i32, i32* %20, align 8, !tbaa !12
  %83 = mul nsw i32 %82, %2
  %84 = icmp sgt i32 %83, 0
  br i1 %84, label %85, label %99

85:                                               ; preds = %81
  %86 = mul nsw i32 %83, %35
  %87 = load double*, double** %65, align 8, !tbaa !58
  %88 = sext i32 %86 to i64
  %89 = mul i32 %82, %2
  %90 = zext i32 %89 to i64
  br label %91

91:                                               ; preds = %85, %91
  %92 = phi i64 [ 0, %85 ], [ %97, %91 ]
  %93 = getelementptr inbounds double, double* %5, i64 %92
  %94 = load double, double* %93, align 8, !tbaa !99
  %95 = add nsw i64 %92, %88
  %96 = getelementptr inbounds double, double* %87, i64 %95
  store double %94, double* %96, align 8, !tbaa !99
  %97 = add nuw nsw i64 %92, 1
  %98 = icmp eq i64 %97, %90
  br i1 %98, label %99, label %91, !llvm.loop !104

99:                                               ; preds = %91, %81, %62
  ret i32 1
}

; Function Attrs: mustprogress uwtable
define dso_local i32 @_ZN10MLI_FEData15initSharedNodesEiPKiS1_PKS1_(%class.MLI_FEData* nocapture nonnull readonly align 8 dereferenceable(88) %0, i32 %1, i32* nocapture readonly %2, i32* nocapture readonly %3, i32** nocapture readonly %4) unnamed_addr #10 align 2 {
  %6 = bitcast i32* %2 to i8*
  %7 = icmp slt i32 %1, 0
  br i1 %7, label %8, label %10

8:                                                ; preds = %5
  %9 = call i32 @puts(i8* nonnull dereferenceable(1) getelementptr inbounds ([36 x i8], [36 x i8]* @str.263, i64 0, i64 0))
  call void @exit(i32 1) #22
  unreachable

10:                                               ; preds = %5
  %11 = icmp eq i32 %1, 0
  br i1 %11, label %241, label %12

12:                                               ; preds = %10
  %13 = getelementptr inbounds %class.MLI_FEData, %class.MLI_FEData* %0, i64 0, i32 7
  %14 = load %struct.MLI_ElemBlock_Struct**, %struct.MLI_ElemBlock_Struct*** %13, align 8, !tbaa !16
  %15 = getelementptr inbounds %class.MLI_FEData, %class.MLI_FEData* %0, i64 0, i32 8
  %16 = load i32, i32* %15, align 8, !tbaa !17
  %17 = sext i32 %16 to i64
  %18 = getelementptr inbounds %struct.MLI_ElemBlock_Struct*, %struct.MLI_ElemBlock_Struct** %14, i64 %17
  %19 = load %struct.MLI_ElemBlock_Struct*, %struct.MLI_ElemBlock_Struct** %18, align 8, !tbaa !23
  %20 = getelementptr inbounds %struct.MLI_ElemBlock_Struct, %struct.MLI_ElemBlock_Struct* %19, i64 0, i32 36
  %21 = load i32*, i32** %20, align 8, !tbaa !65
  %22 = icmp eq i32* %21, null
  br i1 %22, label %25, label %23

23:                                               ; preds = %12
  %24 = call i32 @puts(i8* nonnull dereferenceable(1) getelementptr inbounds ([52 x i8], [52 x i8]* @str.262, i64 0, i64 0))
  br label %25

25:                                               ; preds = %23, %12
  %26 = getelementptr inbounds %struct.MLI_ElemBlock_Struct, %struct.MLI_ElemBlock_Struct* %19, i64 0, i32 37
  %27 = load i32*, i32** %26, align 8, !tbaa !66
  %28 = icmp eq i32* %27, null
  br i1 %28, label %31, label %29

29:                                               ; preds = %25
  %30 = call i32 @puts(i8* nonnull dereferenceable(1) getelementptr inbounds ([52 x i8], [52 x i8]* @str.261, i64 0, i64 0))
  br label %31

31:                                               ; preds = %29, %25
  %32 = getelementptr inbounds %struct.MLI_ElemBlock_Struct, %struct.MLI_ElemBlock_Struct* %19, i64 0, i32 38
  %33 = load i32**, i32*** %32, align 8, !tbaa !67
  %34 = icmp eq i32** %33, null
  br i1 %34, label %37, label %35

35:                                               ; preds = %31
  %36 = call i32 @puts(i8* nonnull dereferenceable(1) getelementptr inbounds ([52 x i8], [52 x i8]* @str.260, i64 0, i64 0))
  br label %37

37:                                               ; preds = %35, %31
  %38 = sext i32 %1 to i64
  %39 = call { i64, i1 } @llvm.umul.with.overflow.i64(i64 %38, i64 4)
  %40 = extractvalue { i64, i1 } %39, 1
  %41 = extractvalue { i64, i1 } %39, 0
  %42 = select i1 %40, i64 -1, i64 %41
  %43 = call noalias nonnull i8* @_Znam(i64 %42) #23
  %44 = bitcast i8* %43 to i32*
  %45 = call noalias nonnull i8* @_Znam(i64 %42) #23
  %46 = bitcast i8* %45 to i32*
  %47 = icmp sgt i32 %1, 0
  br i1 %47, label %48, label %51

48:                                               ; preds = %37
  %49 = zext i32 %1 to i64
  %50 = shl nuw nsw i64 %49, 2
  call void @llvm.memcpy.p0i8.p0i8.i64(i8* nonnull align 4 %43, i8* align 4 %6, i64 %50, i1 false)
  br label %51

51:                                               ; preds = %48, %37
  %52 = icmp sgt i32 %1, 0
  br i1 %52, label %53, label %61

53:                                               ; preds = %51
  %54 = zext i32 %1 to i64
  br label %55

55:                                               ; preds = %53, %55
  %56 = phi i64 [ 0, %53 ], [ %59, %55 ]
  %57 = getelementptr inbounds i32, i32* %46, i64 %56
  %58 = trunc i64 %56 to i32
  store i32 %58, i32* %57, align 4, !tbaa !90
  %59 = add nuw nsw i64 %56, 1
  %60 = icmp eq i64 %59, %54
  br i1 %60, label %61, label %55, !llvm.loop !105

61:                                               ; preds = %55, %51
  %62 = add nsw i32 %1, -1
  %63 = call i32 @MLI_Utils_IntQSort2(i32* nonnull %44, i32* nonnull %46, i32 0, i32 %62)
  %64 = icmp sgt i32 %1, 1
  br i1 %64, label %65, label %83

65:                                               ; preds = %61
  %66 = zext i32 %1 to i64
  br label %67

67:                                               ; preds = %65, %67
  %68 = phi i64 [ 1, %65 ], [ %79, %67 ]
  %69 = phi i32 [ 1, %65 ], [ %78, %67 ]
  %70 = getelementptr inbounds i32, i32* %44, i64 %68
  %71 = load i32, i32* %70, align 4, !tbaa !90
  %72 = add nsw i32 %69, -1
  %73 = sext i32 %72 to i64
  %74 = getelementptr inbounds i32, i32* %44, i64 %73
  %75 = load i32, i32* %74, align 4, !tbaa !90
  %76 = icmp ne i32 %71, %75
  %77 = zext i1 %76 to i32
  %78 = add nuw nsw i32 %69, %77
  %79 = add nuw nsw i64 %68, 1
  %80 = icmp eq i64 %79, %66
  br i1 %80, label %81, label %67, !llvm.loop !106

81:                                               ; preds = %67
  %82 = zext i32 %78 to i64
  br label %83

83:                                               ; preds = %81, %61
  %84 = phi i64 [ 1, %61 ], [ %82, %81 ]
  %85 = shl nuw nsw i64 %84, 2
  %86 = call noalias nonnull i8* @_Znam(i64 %85) #23
  %87 = bitcast i8* %86 to i32*
  %88 = call noalias nonnull i8* @_Znam(i64 %85) #23
  %89 = bitcast i8* %88 to i32*
  %90 = shl nuw nsw i64 %84, 3
  %91 = call noalias nonnull i8* @_Znam(i64 %90) #23
  %92 = bitcast i8* %91 to i32**
  %93 = load i32, i32* %44, align 4, !tbaa !90
  store i32 %93, i32* %87, align 4, !tbaa !90
  %94 = icmp sgt i32 %1, 1
  br i1 %94, label %95, label %97

95:                                               ; preds = %83
  %96 = zext i32 %1 to i64
  br label %103

97:                                               ; preds = %117, %83
  %98 = phi i32 [ 1, %83 ], [ %118, %117 ]
  %99 = icmp sgt i32 %98, 0
  br i1 %99, label %100, label %121

100:                                              ; preds = %97
  %101 = zext i32 %98 to i64
  %102 = shl nuw nsw i64 %101, 2
  call void @llvm.memset.p0i8.i64(i8* nonnull align 4 %88, i8 0, i64 %102, i1 false)
  br label %121

103:                                              ; preds = %95, %117
  %104 = phi i64 [ 1, %95 ], [ %119, %117 ]
  %105 = phi i32 [ 1, %95 ], [ %118, %117 ]
  %106 = getelementptr inbounds i32, i32* %44, i64 %104
  %107 = load i32, i32* %106, align 4, !tbaa !90
  %108 = add nsw i32 %105, -1
  %109 = sext i32 %108 to i64
  %110 = getelementptr inbounds i32, i32* %87, i64 %109
  %111 = load i32, i32* %110, align 4, !tbaa !90
  %112 = icmp eq i32 %107, %111
  br i1 %112, label %117, label %113

113:                                              ; preds = %103
  %114 = add nsw i32 %105, 1
  %115 = sext i32 %105 to i64
  %116 = getelementptr inbounds i32, i32* %87, i64 %115
  store i32 %107, i32* %116, align 4, !tbaa !90
  br label %117

117:                                              ; preds = %103, %113
  %118 = phi i32 [ %114, %113 ], [ %105, %103 ]
  %119 = add nuw nsw i64 %104, 1
  %120 = icmp eq i64 %119, %96
  br i1 %120, label %97, label %103, !llvm.loop !107

121:                                              ; preds = %100, %97
  %122 = icmp sgt i32 %1, 0
  br i1 %122, label %123, label %125

123:                                              ; preds = %121
  %124 = zext i32 %1 to i64
  br label %129

125:                                              ; preds = %129, %121
  %126 = icmp sgt i32 %98, 0
  br i1 %126, label %127, label %145

127:                                              ; preds = %125
  %128 = zext i32 %98 to i64
  br label %149

129:                                              ; preds = %123, %129
  %130 = phi i64 [ 0, %123 ], [ %143, %129 ]
  %131 = getelementptr inbounds i32, i32* %44, i64 %130
  %132 = load i32, i32* %131, align 4, !tbaa !90
  %133 = call i32 @MLI_Utils_BinarySearch(i32 %132, i32* nonnull %87, i32 %98)
  %134 = getelementptr inbounds i32, i32* %46, i64 %130
  %135 = load i32, i32* %134, align 4, !tbaa !90
  %136 = sext i32 %135 to i64
  %137 = getelementptr inbounds i32, i32* %3, i64 %136
  %138 = load i32, i32* %137, align 4, !tbaa !90
  %139 = sext i32 %133 to i64
  %140 = getelementptr inbounds i32, i32* %89, i64 %139
  %141 = load i32, i32* %140, align 4, !tbaa !90
  %142 = add nsw i32 %141, %138
  store i32 %142, i32* %140, align 4, !tbaa !90
  %143 = add nuw nsw i64 %130, 1
  %144 = icmp eq i64 %143, %124
  br i1 %144, label %125, label %129, !llvm.loop !108

145:                                              ; preds = %149, %125
  %146 = icmp sgt i32 %1, 0
  br i1 %146, label %147, label %196

147:                                              ; preds = %145
  %148 = zext i32 %1 to i64
  br label %163

149:                                              ; preds = %127, %149
  %150 = phi i64 [ 0, %127 ], [ %161, %149 ]
  %151 = getelementptr inbounds i32, i32* %89, i64 %150
  %152 = load i32, i32* %151, align 4, !tbaa !90
  %153 = sext i32 %152 to i64
  %154 = call { i64, i1 } @llvm.umul.with.overflow.i64(i64 %153, i64 4)
  %155 = extractvalue { i64, i1 } %154, 1
  %156 = extractvalue { i64, i1 } %154, 0
  %157 = select i1 %155, i64 -1, i64 %156
  %158 = call noalias nonnull i8* @_Znam(i64 %157) #23
  %159 = getelementptr inbounds i32*, i32** %92, i64 %150
  %160 = bitcast i32** %159 to i8**
  store i8* %158, i8** %160, align 8, !tbaa !23
  store i32 0, i32* %151, align 4, !tbaa !90
  %161 = add nuw nsw i64 %150, 1
  %162 = icmp eq i64 %161, %128
  br i1 %162, label %145, label %149, !llvm.loop !109

163:                                              ; preds = %147, %193
  %164 = phi i64 [ 0, %147 ], [ %194, %193 ]
  %165 = getelementptr inbounds i32, i32* %44, i64 %164
  %166 = load i32, i32* %165, align 4, !tbaa !90
  %167 = call i32 @MLI_Utils_BinarySearch(i32 %166, i32* nonnull %87, i32 %98)
  %168 = getelementptr inbounds i32, i32* %46, i64 %164
  %169 = load i32, i32* %168, align 4, !tbaa !90
  %170 = sext i32 %169 to i64
  %171 = getelementptr inbounds i32, i32* %3, i64 %170
  %172 = sext i32 %167 to i64
  %173 = getelementptr inbounds i32, i32* %89, i64 %172
  %174 = load i32, i32* %171, align 4, !tbaa !90
  %175 = icmp sgt i32 %174, 0
  br i1 %175, label %176, label %193

176:                                              ; preds = %163
  %177 = getelementptr inbounds i32*, i32** %92, i64 %172
  %178 = getelementptr inbounds i32*, i32** %4, i64 %170
  %179 = load i32*, i32** %178, align 8, !tbaa !23
  %180 = load i32*, i32** %177, align 8, !tbaa !23
  br label %181

181:                                              ; preds = %176, %181
  %182 = phi i64 [ 0, %176 ], [ %189, %181 ]
  %183 = getelementptr inbounds i32, i32* %179, i64 %182
  %184 = load i32, i32* %183, align 4, !tbaa !90
  %185 = load i32, i32* %173, align 4, !tbaa !90
  %186 = add nsw i32 %185, 1
  store i32 %186, i32* %173, align 4, !tbaa !90
  %187 = sext i32 %185 to i64
  %188 = getelementptr inbounds i32, i32* %180, i64 %187
  store i32 %184, i32* %188, align 4, !tbaa !90
  %189 = add nuw nsw i64 %182, 1
  %190 = load i32, i32* %171, align 4, !tbaa !90
  %191 = sext i32 %190 to i64
  %192 = icmp slt i64 %189, %191
  br i1 %192, label %181, label %193, !llvm.loop !110

193:                                              ; preds = %181, %163
  %194 = add nuw nsw i64 %164, 1
  %195 = icmp eq i64 %194, %148
  br i1 %195, label %196, label %163, !llvm.loop !111

196:                                              ; preds = %193, %145
  call void @_ZdaPv(i8* %43) #20
  call void @_ZdaPv(i8* %45) #20
  %197 = icmp sgt i32 %98, 0
  br i1 %197, label %198, label %236

198:                                              ; preds = %196
  %199 = zext i32 %98 to i64
  br label %200

200:                                              ; preds = %198, %232
  %201 = phi i64 [ 0, %198 ], [ %234, %232 ]
  %202 = getelementptr inbounds i32*, i32** %92, i64 %201
  %203 = load i32*, i32** %202, align 8, !tbaa !23
  %204 = getelementptr inbounds i32, i32* %89, i64 %201
  %205 = load i32, i32* %204, align 4, !tbaa !90
  %206 = add nsw i32 %205, -1
  %207 = call i32 @MLI_Utils_IntQSort2(i32* %203, i32* null, i32 0, i32 %206)
  %208 = load i32, i32* %204, align 4, !tbaa !90
  %209 = icmp sgt i32 %208, 1
  br i1 %209, label %210, label %232

210:                                              ; preds = %200
  %211 = load i32*, i32** %202, align 8, !tbaa !23
  br label %212

212:                                              ; preds = %210, %226
  %213 = phi i64 [ 1, %210 ], [ %228, %226 ]
  %214 = phi i32 [ 1, %210 ], [ %227, %226 ]
  %215 = getelementptr inbounds i32, i32* %211, i64 %213
  %216 = load i32, i32* %215, align 4, !tbaa !90
  %217 = add nsw i32 %214, -1
  %218 = sext i32 %217 to i64
  %219 = getelementptr inbounds i32, i32* %211, i64 %218
  %220 = load i32, i32* %219, align 4, !tbaa !90
  %221 = icmp eq i32 %216, %220
  br i1 %221, label %226, label %222

222:                                              ; preds = %212
  %223 = add nsw i32 %214, 1
  %224 = sext i32 %214 to i64
  %225 = getelementptr inbounds i32, i32* %211, i64 %224
  store i32 %216, i32* %225, align 4, !tbaa !90
  br label %226

226:                                              ; preds = %212, %222
  %227 = phi i32 [ %223, %222 ], [ %214, %212 ]
  %228 = add nuw nsw i64 %213, 1
  %229 = load i32, i32* %204, align 4, !tbaa !90
  %230 = sext i32 %229 to i64
  %231 = icmp slt i64 %228, %230
  br i1 %231, label %212, label %232, !llvm.loop !112

232:                                              ; preds = %226, %200
  %233 = phi i32 [ 1, %200 ], [ %227, %226 ]
  store i32 %233, i32* %204, align 4, !tbaa !90
  %234 = add nuw nsw i64 %201, 1
  %235 = icmp eq i64 %234, %199
  br i1 %235, label %236, label %200, !llvm.loop !113

236:                                              ; preds = %232, %196
  %237 = getelementptr inbounds %struct.MLI_ElemBlock_Struct, %struct.MLI_ElemBlock_Struct* %19, i64 0, i32 35
  store i32 %98, i32* %237, align 8, !tbaa !68
  %238 = bitcast i32** %20 to i8**
  store i8* %86, i8** %238, align 8, !tbaa !65
  %239 = bitcast i32** %26 to i8**
  store i8* %88, i8** %239, align 8, !tbaa !66
  %240 = bitcast i32*** %32 to i8**
  store i8* %91, i8** %240, align 8, !tbaa !67
  br label %241

241:                                              ; preds = %10, %236
  %242 = phi i32 [ 1, %236 ], [ 0, %10 ]
  ret i32 %242
}

declare dso_local i32 @MLI_Utils_IntQSort2(i32*, i32*, i32, i32) local_unnamed_addr #1

declare dso_local i32 @MLI_Utils_BinarySearch(i32, i32*, i32) local_unnamed_addr #1

; Function Attrs: mustprogress uwtable
define dso_local i32 @_ZN10MLI_FEData22initElemBlockFaceListsEiiPKPKi(%class.MLI_FEData* nocapture nonnull readonly align 8 dereferenceable(88) %0, i32 %1, i32 %2, i32** nocapture readonly %3) unnamed_addr #10 align 2 {
  %5 = getelementptr inbounds %class.MLI_FEData, %class.MLI_FEData* %0, i64 0, i32 7
  %6 = load %struct.MLI_ElemBlock_Struct**, %struct.MLI_ElemBlock_Struct*** %5, align 8, !tbaa !16
  %7 = getelementptr inbounds %class.MLI_FEData, %class.MLI_FEData* %0, i64 0, i32 8
  %8 = load i32, i32* %7, align 8, !tbaa !17
  %9 = sext i32 %8 to i64
  %10 = getelementptr inbounds %struct.MLI_ElemBlock_Struct*, %struct.MLI_ElemBlock_Struct** %6, i64 %9
  %11 = load %struct.MLI_ElemBlock_Struct*, %struct.MLI_ElemBlock_Struct** %10, align 8, !tbaa !23
  %12 = getelementptr inbounds %struct.MLI_ElemBlock_Struct, %struct.MLI_ElemBlock_Struct* %11, i64 0, i32 0
  %13 = load i32, i32* %12, align 8, !tbaa !29
  %14 = icmp eq i32 %13, %1
  br i1 %14, label %17, label %15

15:                                               ; preds = %4
  %16 = call i32 @puts(i8* nonnull dereferenceable(1) getelementptr inbounds ([52 x i8], [52 x i8]* @str.265, i64 0, i64 0))
  call void @exit(i32 1) #22
  unreachable

17:                                               ; preds = %4
  %18 = add i32 %2, -1
  %19 = icmp ugt i32 %18, 99
  br i1 %19, label %20, label %22

20:                                               ; preds = %17
  %21 = call i32 @puts(i8* nonnull dereferenceable(1) getelementptr inbounds ([47 x i8], [47 x i8]* @str.264, i64 0, i64 0))
  call void @exit(i32 1) #22
  unreachable

22:                                               ; preds = %17
  %23 = getelementptr inbounds %struct.MLI_ElemBlock_Struct, %struct.MLI_ElemBlock_Struct* %11, i64 0, i32 18
  %24 = load i32**, i32*** %23, align 8, !tbaa !42
  %25 = icmp eq i32** %24, null
  br i1 %25, label %26, label %51

26:                                               ; preds = %22
  %27 = sext i32 %1 to i64
  %28 = call { i64, i1 } @llvm.umul.with.overflow.i64(i64 %27, i64 8)
  %29 = extractvalue { i64, i1 } %28, 1
  %30 = extractvalue { i64, i1 } %28, 0
  %31 = select i1 %29, i64 -1, i64 %30
  %32 = call noalias nonnull i8* @_Znam(i64 %31) #23
  %33 = bitcast i32*** %23 to i8**
  store i8* %32, i8** %33, align 8, !tbaa !42
  %34 = getelementptr inbounds %struct.MLI_ElemBlock_Struct, %struct.MLI_ElemBlock_Struct* %11, i64 0, i32 17
  store i32 %2, i32* %34, align 8, !tbaa !53
  %35 = sext i32 %2 to i64
  %36 = call { i64, i1 } @llvm.umul.with.overflow.i64(i64 %35, i64 4)
  %37 = extractvalue { i64, i1 } %36, 1
  %38 = extractvalue { i64, i1 } %36, 0
  %39 = select i1 %37, i64 -1, i64 %38
  %40 = icmp sgt i32 %1, 0
  br i1 %40, label %41, label %51

41:                                               ; preds = %26
  %42 = zext i32 %1 to i64
  br label %43

43:                                               ; preds = %41, %43
  %44 = phi i64 [ 0, %41 ], [ %49, %43 ]
  %45 = call noalias nonnull i8* @_Znam(i64 %39) #23
  %46 = load i32**, i32*** %23, align 8, !tbaa !42
  %47 = getelementptr inbounds i32*, i32** %46, i64 %44
  %48 = bitcast i32** %47 to i8**
  store i8* %45, i8** %48, align 8, !tbaa !23
  %49 = add nuw nsw i64 %44, 1
  %50 = icmp eq i64 %49, %42
  br i1 %50, label %51, label %43, !llvm.loop !114

51:                                               ; preds = %43, %26, %22
  %52 = icmp sgt i32 %2, 0
  %53 = icmp sgt i32 %1, 0
  br i1 %53, label %54, label %80

54:                                               ; preds = %51
  %55 = getelementptr inbounds %struct.MLI_ElemBlock_Struct, %struct.MLI_ElemBlock_Struct* %11, i64 0, i32 2
  %56 = load i32*, i32** %55, align 8, !tbaa !26
  %57 = load i32**, i32*** %23, align 8, !tbaa !42
  %58 = zext i32 %1 to i64
  %59 = zext i32 %2 to i64
  br label %60

60:                                               ; preds = %54, %77
  %61 = phi i64 [ 0, %54 ], [ %78, %77 ]
  %62 = getelementptr inbounds i32*, i32** %57, i64 %61
  %63 = load i32*, i32** %62, align 8, !tbaa !23
  br i1 %52, label %64, label %77

64:                                               ; preds = %60
  %65 = getelementptr inbounds i32, i32* %56, i64 %61
  %66 = load i32, i32* %65, align 4, !tbaa !90
  %67 = sext i32 %66 to i64
  %68 = getelementptr inbounds i32*, i32** %3, i64 %67
  %69 = load i32*, i32** %68, align 8, !tbaa !23
  br label %70

70:                                               ; preds = %64, %70
  %71 = phi i64 [ 0, %64 ], [ %75, %70 ]
  %72 = getelementptr inbounds i32, i32* %69, i64 %71
  %73 = load i32, i32* %72, align 4, !tbaa !90
  %74 = getelementptr inbounds i32, i32* %63, i64 %71
  store i32 %73, i32* %74, align 4, !tbaa !90
  %75 = add nuw nsw i64 %71, 1
  %76 = icmp eq i64 %75, %59
  br i1 %76, label %77, label %70, !llvm.loop !115

77:                                               ; preds = %70, %60
  %78 = add nuw nsw i64 %61, 1
  %79 = icmp eq i64 %78, %58
  br i1 %79, label %80, label %60, !llvm.loop !116

80:                                               ; preds = %77, %51
  ret i32 1
}

; Function Attrs: mustprogress uwtable
define dso_local i32 @_ZN10MLI_FEData22initFaceBlockNodeListsEiPKiiPKS1_(%class.MLI_FEData* nocapture nonnull readonly align 8 dereferenceable(88) %0, i32 %1, i32* nocapture readonly %2, i32 %3, i32** nocapture readonly %4) unnamed_addr #10 align 2 {
  %6 = getelementptr inbounds %class.MLI_FEData, %class.MLI_FEData* %0, i64 0, i32 7
  %7 = load %struct.MLI_ElemBlock_Struct**, %struct.MLI_ElemBlock_Struct*** %6, align 8, !tbaa !16
  %8 = getelementptr inbounds %class.MLI_FEData, %class.MLI_FEData* %0, i64 0, i32 8
  %9 = load i32, i32* %8, align 8, !tbaa !17
  %10 = sext i32 %9 to i64
  %11 = getelementptr inbounds %struct.MLI_ElemBlock_Struct*, %struct.MLI_ElemBlock_Struct** %7, i64 %10
  %12 = load %struct.MLI_ElemBlock_Struct*, %struct.MLI_ElemBlock_Struct** %11, align 8, !tbaa !23
  %13 = getelementptr inbounds %struct.MLI_ElemBlock_Struct, %struct.MLI_ElemBlock_Struct* %12, i64 0, i32 18
  %14 = load i32**, i32*** %13, align 8, !tbaa !42
  %15 = icmp eq i32** %14, null
  br i1 %15, label %16, label %18

16:                                               ; preds = %5
  %17 = call i32 @puts(i8* nonnull dereferenceable(1) getelementptr inbounds ([58 x i8], [58 x i8]* @str.266, i64 0, i64 0))
  call void @exit(i32 1) #22
  unreachable

18:                                               ; preds = %5
  %19 = getelementptr inbounds %struct.MLI_ElemBlock_Struct, %struct.MLI_ElemBlock_Struct* %12, i64 0, i32 41
  store i32 %1, i32* %19, align 4, !tbaa !78
  %20 = getelementptr inbounds %struct.MLI_ElemBlock_Struct, %struct.MLI_ElemBlock_Struct* %12, i64 0, i32 44
  store i32 %3, i32* %20, align 8, !tbaa !87
  %21 = getelementptr inbounds %struct.MLI_ElemBlock_Struct, %struct.MLI_ElemBlock_Struct* %12, i64 0, i32 42
  store i32 0, i32* %21, align 8, !tbaa !79
  %22 = sext i32 %1 to i64
  %23 = call { i64, i1 } @llvm.umul.with.overflow.i64(i64 %22, i64 4)
  %24 = extractvalue { i64, i1 } %23, 1
  %25 = extractvalue { i64, i1 } %23, 0
  %26 = select i1 %24, i64 -1, i64 %25
  %27 = call noalias nonnull i8* @_Znam(i64 %26) #23
  %28 = getelementptr inbounds %struct.MLI_ElemBlock_Struct, %struct.MLI_ElemBlock_Struct* %12, i64 0, i32 43
  %29 = bitcast i32** %28 to i8**
  store i8* %27, i8** %29, align 8, !tbaa !76
  %30 = call { i64, i1 } @llvm.umul.with.overflow.i64(i64 %22, i64 8)
  %31 = extractvalue { i64, i1 } %30, 1
  %32 = extractvalue { i64, i1 } %30, 0
  %33 = select i1 %31, i64 -1, i64 %32
  %34 = call noalias nonnull i8* @_Znam(i64 %33) #23
  %35 = getelementptr inbounds %struct.MLI_ElemBlock_Struct, %struct.MLI_ElemBlock_Struct* %12, i64 0, i32 45
  %36 = bitcast i32*** %35 to i8**
  store i8* %34, i8** %36, align 8, !tbaa !77
  %37 = call noalias nonnull i8* @_Znam(i64 %26) #23
  %38 = bitcast i8* %37 to i32*
  %39 = icmp sgt i32 %1, 0
  br i1 %39, label %40, label %54

40:                                               ; preds = %18
  %41 = zext i32 %1 to i64
  br label %42

42:                                               ; preds = %40, %42
  %43 = phi i64 [ 0, %40 ], [ %52, %42 ]
  %44 = getelementptr inbounds i32, i32* %2, i64 %43
  %45 = load i32, i32* %44, align 4, !tbaa !90
  %46 = load i32*, i32** %28, align 8, !tbaa !76
  %47 = getelementptr inbounds i32, i32* %46, i64 %43
  store i32 %45, i32* %47, align 4, !tbaa !90
  %48 = load i32**, i32*** %35, align 8, !tbaa !77
  %49 = getelementptr inbounds i32*, i32** %48, i64 %43
  store i32* null, i32** %49, align 8, !tbaa !23
  %50 = getelementptr inbounds i32, i32* %38, i64 %43
  %51 = trunc i64 %43 to i32
  store i32 %51, i32* %50, align 4, !tbaa !90
  %52 = add nuw nsw i64 %43, 1
  %53 = icmp eq i64 %52, %41
  br i1 %53, label %54, label %42, !llvm.loop !117

54:                                               ; preds = %42, %18
  %55 = load i32*, i32** %28, align 8, !tbaa !76
  %56 = add nsw i32 %1, -1
  %57 = call i32 @MLI_Utils_IntQSort2(i32* %55, i32* nonnull %38, i32 0, i32 %56)
  %58 = load i32**, i32*** %35, align 8, !tbaa !77
  %59 = sext i32 %3 to i64
  %60 = call { i64, i1 } @llvm.umul.with.overflow.i64(i64 %59, i64 4)
  %61 = extractvalue { i64, i1 } %60, 1
  %62 = extractvalue { i64, i1 } %60, 0
  %63 = select i1 %61, i64 -1, i64 %62
  %64 = icmp sgt i32 %3, 0
  %65 = icmp sgt i32 %1, 0
  br i1 %65, label %66, label %95

66:                                               ; preds = %54
  %67 = zext i32 %1 to i64
  %68 = zext i32 %3 to i64
  br label %69

69:                                               ; preds = %66, %92
  %70 = phi i64 [ 0, %66 ], [ %93, %92 ]
  %71 = getelementptr inbounds i32, i32* %38, i64 %70
  %72 = load i32, i32* %71, align 4, !tbaa !90
  %73 = sext i32 %72 to i64
  %74 = getelementptr inbounds i32, i32* %38, i64 %73
  %75 = load i32, i32* %74, align 4, !tbaa !90
  %76 = call noalias nonnull i8* @_Znam(i64 %63) #23
  %77 = sext i32 %75 to i64
  %78 = getelementptr inbounds i32*, i32** %58, i64 %77
  %79 = bitcast i32** %78 to i8**
  store i8* %76, i8** %79, align 8, !tbaa !23
  br i1 %64, label %80, label %92

80:                                               ; preds = %69
  %81 = getelementptr inbounds i32*, i32** %58, i64 %70
  %82 = getelementptr inbounds i32*, i32** %4, i64 %77
  %83 = load i32*, i32** %82, align 8, !tbaa !23
  %84 = load i32*, i32** %81, align 8, !tbaa !23
  br label %85

85:                                               ; preds = %80, %85
  %86 = phi i64 [ 0, %80 ], [ %90, %85 ]
  %87 = getelementptr inbounds i32, i32* %83, i64 %86
  %88 = load i32, i32* %87, align 4, !tbaa !90
  %89 = getelementptr inbounds i32, i32* %84, i64 %86
  store i32 %88, i32* %89, align 4, !tbaa !90
  %90 = add nuw nsw i64 %86, 1
  %91 = icmp eq i64 %90, %68
  br i1 %91, label %92, label %85, !llvm.loop !118

92:                                               ; preds = %85, %69
  %93 = add nuw nsw i64 %70, 1
  %94 = icmp eq i64 %93, %67
  br i1 %94, label %95, label %69, !llvm.loop !119

95:                                               ; preds = %92, %54
  call void @_ZdaPv(i8* %37) #20
  ret i32 1
}

; Function Attrs: mustprogress uwtable
define dso_local i32 @_ZN10MLI_FEData15initSharedFacesEiPKiS1_PKS1_(%class.MLI_FEData* nocapture nonnull readonly align 8 dereferenceable(88) %0, i32 %1, i32* nocapture readonly %2, i32* nocapture readonly %3, i32** nocapture readonly %4) unnamed_addr #10 align 2 {
  %6 = icmp slt i32 %1, 1
  br i1 %6, label %7, label %9

7:                                                ; preds = %5
  %8 = call i32 @puts(i8* nonnull dereferenceable(1) getelementptr inbounds ([37 x i8], [37 x i8]* @str.271, i64 0, i64 0))
  call void @exit(i32 1) #22
  unreachable

9:                                                ; preds = %5
  %10 = getelementptr inbounds %class.MLI_FEData, %class.MLI_FEData* %0, i64 0, i32 7
  %11 = load %struct.MLI_ElemBlock_Struct**, %struct.MLI_ElemBlock_Struct*** %10, align 8, !tbaa !16
  %12 = getelementptr inbounds %class.MLI_FEData, %class.MLI_FEData* %0, i64 0, i32 8
  %13 = load i32, i32* %12, align 8, !tbaa !17
  %14 = sext i32 %13 to i64
  %15 = getelementptr inbounds %struct.MLI_ElemBlock_Struct*, %struct.MLI_ElemBlock_Struct** %11, i64 %14
  %16 = load %struct.MLI_ElemBlock_Struct*, %struct.MLI_ElemBlock_Struct** %15, align 8, !tbaa !23
  %17 = getelementptr inbounds %struct.MLI_ElemBlock_Struct, %struct.MLI_ElemBlock_Struct* %16, i64 0, i32 47
  %18 = load i32*, i32** %17, align 8, !tbaa !81
  %19 = icmp eq i32* %18, null
  br i1 %19, label %22, label %20

20:                                               ; preds = %9
  %21 = call i32 @puts(i8* nonnull dereferenceable(1) getelementptr inbounds ([52 x i8], [52 x i8]* @str.270, i64 0, i64 0))
  br label %22

22:                                               ; preds = %20, %9
  %23 = getelementptr inbounds %struct.MLI_ElemBlock_Struct, %struct.MLI_ElemBlock_Struct* %16, i64 0, i32 48
  %24 = load i32*, i32** %23, align 8, !tbaa !82
  %25 = icmp eq i32* %24, null
  br i1 %25, label %28, label %26

26:                                               ; preds = %22
  %27 = call i32 @puts(i8* nonnull dereferenceable(1) getelementptr inbounds ([52 x i8], [52 x i8]* @str.269, i64 0, i64 0))
  br label %28

28:                                               ; preds = %26, %22
  %29 = getelementptr inbounds %struct.MLI_ElemBlock_Struct, %struct.MLI_ElemBlock_Struct* %16, i64 0, i32 49
  %30 = load i32**, i32*** %29, align 8, !tbaa !83
  %31 = icmp eq i32** %30, null
  br i1 %31, label %34, label %32

32:                                               ; preds = %28
  %33 = call i32 @puts(i8* nonnull dereferenceable(1) getelementptr inbounds ([52 x i8], [52 x i8]* @str.268, i64 0, i64 0))
  br label %34

34:                                               ; preds = %32, %28
  %35 = getelementptr inbounds %struct.MLI_ElemBlock_Struct, %struct.MLI_ElemBlock_Struct* %16, i64 0, i32 46
  store i32 %1, i32* %35, align 8, !tbaa !84
  %36 = sext i32 %1 to i64
  %37 = call { i64, i1 } @llvm.umul.with.overflow.i64(i64 %36, i64 4)
  %38 = extractvalue { i64, i1 } %37, 1
  %39 = extractvalue { i64, i1 } %37, 0
  %40 = select i1 %38, i64 -1, i64 %39
  %41 = call noalias nonnull i8* @_Znam(i64 %40) #23
  %42 = bitcast i32** %17 to i8**
  store i8* %41, i8** %42, align 8, !tbaa !81
  %43 = call noalias nonnull i8* @_Znam(i64 %40) #23
  %44 = bitcast i32** %23 to i8**
  store i8* %43, i8** %44, align 8, !tbaa !82
  %45 = call { i64, i1 } @llvm.umul.with.overflow.i64(i64 %36, i64 8)
  %46 = extractvalue { i64, i1 } %45, 1
  %47 = extractvalue { i64, i1 } %45, 0
  %48 = select i1 %46, i64 -1, i64 %47
  %49 = call noalias nonnull i8* @_Znam(i64 %48) #23
  %50 = bitcast i32*** %29 to i8**
  store i8* %49, i8** %50, align 8, !tbaa !83
  %51 = call noalias nonnull i8* @_Znam(i64 %40) #23
  %52 = bitcast i8* %51 to i32*
  %53 = icmp sgt i32 %1, 0
  br i1 %53, label %54, label %57

54:                                               ; preds = %34
  %55 = load i32*, i32** %17, align 8, !tbaa !81
  %56 = zext i32 %1 to i64
  br label %61

57:                                               ; preds = %61, %34
  %58 = icmp sgt i32 %1, 0
  br i1 %58, label %59, label %74

59:                                               ; preds = %57
  %60 = zext i32 %1 to i64
  br label %68

61:                                               ; preds = %54, %61
  %62 = phi i64 [ 0, %54 ], [ %66, %61 ]
  %63 = getelementptr inbounds i32, i32* %2, i64 %62
  %64 = load i32, i32* %63, align 4, !tbaa !90
  %65 = getelementptr inbounds i32, i32* %55, i64 %62
  store i32 %64, i32* %65, align 4, !tbaa !90
  %66 = add nuw nsw i64 %62, 1
  %67 = icmp eq i64 %66, %56
  br i1 %67, label %57, label %61, !llvm.loop !120

68:                                               ; preds = %59, %68
  %69 = phi i64 [ 0, %59 ], [ %72, %68 ]
  %70 = getelementptr inbounds i32, i32* %52, i64 %69
  %71 = trunc i64 %69 to i32
  store i32 %71, i32* %70, align 4, !tbaa !90
  %72 = add nuw nsw i64 %69, 1
  %73 = icmp eq i64 %72, %60
  br i1 %73, label %74, label %68, !llvm.loop !121

74:                                               ; preds = %68, %57
  %75 = load i32*, i32** %17, align 8, !tbaa !81
  %76 = add nsw i32 %1, -1
  %77 = call i32 @MLI_Utils_IntQSort2(i32* %75, i32* nonnull %52, i32 0, i32 %76)
  %78 = icmp sgt i32 %1, 0
  br i1 %78, label %79, label %130

79:                                               ; preds = %74
  %80 = zext i32 %1 to i64
  br label %81

81:                                               ; preds = %79, %121
  %82 = phi i64 [ 0, %79 ], [ %128, %121 ]
  %83 = getelementptr inbounds i32, i32* %52, i64 %82
  %84 = load i32, i32* %83, align 4, !tbaa !90
  %85 = sext i32 %84 to i64
  %86 = getelementptr inbounds i32, i32* %3, i64 %85
  %87 = load i32, i32* %86, align 4, !tbaa !90
  %88 = icmp slt i32 %87, 1
  br i1 %88, label %89, label %91

89:                                               ; preds = %81
  %90 = call i32 @puts(i8* nonnull dereferenceable(1) getelementptr inbounds ([44 x i8], [44 x i8]* @str.267, i64 0, i64 0))
  call void @exit(i32 1) #22
  unreachable

91:                                               ; preds = %81
  %92 = load i32*, i32** %23, align 8, !tbaa !82
  %93 = getelementptr inbounds i32, i32* %92, i64 %82
  store i32 %87, i32* %93, align 4, !tbaa !90
  %94 = load i32, i32* %86, align 4, !tbaa !90
  %95 = sext i32 %94 to i64
  %96 = call { i64, i1 } @llvm.umul.with.overflow.i64(i64 %95, i64 4)
  %97 = extractvalue { i64, i1 } %96, 1
  %98 = extractvalue { i64, i1 } %96, 0
  %99 = select i1 %97, i64 -1, i64 %98
  %100 = call noalias nonnull i8* @_Znam(i64 %99) #23
  %101 = load i32**, i32*** %29, align 8, !tbaa !83
  %102 = getelementptr inbounds i32*, i32** %101, i64 %82
  %103 = bitcast i32** %102 to i8**
  store i8* %100, i8** %103, align 8, !tbaa !23
  %104 = load i32, i32* %86, align 4, !tbaa !90
  %105 = icmp sgt i32 %104, 0
  br i1 %105, label %106, label %121

106:                                              ; preds = %91
  %107 = getelementptr inbounds i32*, i32** %4, i64 %85
  %108 = load i32*, i32** %107, align 8, !tbaa !23
  %109 = load i32**, i32*** %29, align 8, !tbaa !83
  %110 = getelementptr inbounds i32*, i32** %109, i64 %82
  %111 = load i32*, i32** %110, align 8, !tbaa !23
  br label %112

112:                                              ; preds = %106, %112
  %113 = phi i64 [ 0, %106 ], [ %117, %112 ]
  %114 = getelementptr inbounds i32, i32* %108, i64 %113
  %115 = load i32, i32* %114, align 4, !tbaa !90
  %116 = getelementptr inbounds i32, i32* %111, i64 %113
  store i32 %115, i32* %116, align 4, !tbaa !90
  %117 = add nuw nsw i64 %113, 1
  %118 = load i32, i32* %86, align 4, !tbaa !90
  %119 = sext i32 %118 to i64
  %120 = icmp slt i64 %117, %119
  br i1 %120, label %112, label %121, !llvm.loop !122

121:                                              ; preds = %112, %91
  %122 = phi i32 [ %104, %91 ], [ %118, %112 ]
  %123 = load i32**, i32*** %29, align 8, !tbaa !83
  %124 = getelementptr inbounds i32*, i32** %123, i64 %82
  %125 = load i32*, i32** %124, align 8, !tbaa !23
  %126 = add nsw i32 %122, -1
  %127 = call i32 @MLI_Utils_IntQSort2(i32* %125, i32* null, i32 0, i32 %126)
  %128 = add nuw nsw i64 %82, 1
  %129 = icmp eq i64 %128, %80
  br i1 %129, label %130, label %81, !llvm.loop !123

130:                                              ; preds = %121, %74
  call void @_ZdaPv(i8* %51) #20
  ret i32 1
}

; Function Attrs: mustprogress uwtable
define dso_local i32 @_ZN10MLI_FEData12initCompleteEv(%class.MLI_FEData* nocapture nonnull readonly align 8 dereferenceable(88) %0) unnamed_addr #10 align 2 {
  %2 = alloca i32, align 4
  %3 = alloca i32, align 4
  %4 = alloca i32, align 4
  %5 = alloca %struct.MPI_Status, align 4
  %6 = bitcast i32* %2 to i8*
  call void @llvm.lifetime.start.p0i8(i64 4, i8* nonnull %6) #21
  %7 = bitcast i32* %3 to i8*
  call void @llvm.lifetime.start.p0i8(i64 4, i8* nonnull %7) #21
  %8 = bitcast i32* %4 to i8*
  call void @llvm.lifetime.start.p0i8(i64 4, i8* nonnull %8) #21
  %9 = bitcast %struct.MPI_Status* %5 to i8*
  call void @llvm.lifetime.start.p0i8(i64 20, i8* nonnull %9) #21
  %10 = getelementptr inbounds %class.MLI_FEData, %class.MLI_FEData* %0, i64 0, i32 7
  %11 = load %struct.MLI_ElemBlock_Struct**, %struct.MLI_ElemBlock_Struct*** %10, align 8, !tbaa !16
  %12 = getelementptr inbounds %class.MLI_FEData, %class.MLI_FEData* %0, i64 0, i32 8
  %13 = load i32, i32* %12, align 8, !tbaa !17
  %14 = sext i32 %13 to i64
  %15 = getelementptr inbounds %struct.MLI_ElemBlock_Struct*, %struct.MLI_ElemBlock_Struct** %11, i64 %14
  %16 = load %struct.MLI_ElemBlock_Struct*, %struct.MLI_ElemBlock_Struct** %15, align 8, !tbaa !23
  %17 = getelementptr inbounds %struct.MLI_ElemBlock_Struct, %struct.MLI_ElemBlock_Struct* %16, i64 0, i32 0
  %18 = load i32, i32* %17, align 8, !tbaa !29
  %19 = getelementptr inbounds %struct.MLI_ElemBlock_Struct, %struct.MLI_ElemBlock_Struct* %16, i64 0, i32 1
  %20 = load i32*, i32** %19, align 8, !tbaa !24
  %21 = icmp eq i32* %20, null
  br i1 %21, label %26, label %22

22:                                               ; preds = %1
  %23 = icmp sgt i32 %18, 0
  br i1 %23, label %24, label %30

24:                                               ; preds = %22
  %25 = zext i32 %18 to i64
  br label %39

26:                                               ; preds = %1
  %27 = call i32 @puts(i8* nonnull dereferenceable(1) getelementptr inbounds ([56 x i8], [56 x i8]* @str.280, i64 0, i64 0))
  call void @exit(i32 1) #22
  unreachable

28:                                               ; preds = %39
  %29 = icmp eq i64 %44, %25
  br i1 %29, label %30, label %39, !llvm.loop !124

30:                                               ; preds = %28, %22
  %31 = getelementptr inbounds %struct.MLI_ElemBlock_Struct, %struct.MLI_ElemBlock_Struct* %16, i64 0, i32 4
  %32 = icmp sgt i32 %18, 0
  br i1 %32, label %33, label %66

33:                                               ; preds = %30
  %34 = getelementptr inbounds %struct.MLI_ElemBlock_Struct, %struct.MLI_ElemBlock_Struct* %16, i64 0, i32 3
  %35 = load i32, i32* %34, align 8, !tbaa !51
  %36 = icmp sgt i32 %35, 0
  %37 = zext i32 %18 to i64
  %38 = zext i32 %35 to i64
  br label %47

39:                                               ; preds = %24, %28
  %40 = phi i64 [ 0, %24 ], [ %44, %28 ]
  %41 = getelementptr inbounds i32, i32* %20, i64 %40
  %42 = load i32, i32* %41, align 4, !tbaa !90
  %43 = icmp slt i32 %42, 0
  %44 = add nuw nsw i64 %40, 1
  br i1 %43, label %45, label %28

45:                                               ; preds = %39
  %46 = call i32 @puts(i8* nonnull dereferenceable(1) getelementptr inbounds ([42 x i8], [42 x i8]* @str.279, i64 0, i64 0))
  call void @exit(i32 1) #22
  unreachable

47:                                               ; preds = %33, %63
  %48 = phi i64 [ 0, %33 ], [ %64, %63 ]
  br i1 %36, label %49, label %63

49:                                               ; preds = %47
  %50 = load i32**, i32*** %31, align 8, !tbaa !28
  %51 = getelementptr inbounds i32*, i32** %50, i64 %48
  %52 = load i32*, i32** %51, align 8, !tbaa !23
  br label %55

53:                                               ; preds = %55
  %54 = icmp eq i64 %60, %38
  br i1 %54, label %63, label %55, !llvm.loop !125

55:                                               ; preds = %49, %53
  %56 = phi i64 [ 0, %49 ], [ %60, %53 ]
  %57 = getelementptr inbounds i32, i32* %52, i64 %56
  %58 = load i32, i32* %57, align 4, !tbaa !90
  %59 = icmp slt i32 %58, 0
  %60 = add nuw nsw i64 %56, 1
  br i1 %59, label %61, label %53

61:                                               ; preds = %55
  %62 = call i32 @puts(i8* nonnull dereferenceable(1) getelementptr inbounds ([39 x i8], [39 x i8]* @str.278, i64 0, i64 0))
  call void @exit(i32 1) #22
  unreachable

63:                                               ; preds = %53, %47
  %64 = add nuw nsw i64 %48, 1
  %65 = icmp eq i64 %64, %37
  br i1 %65, label %66, label %47, !llvm.loop !126

66:                                               ; preds = %63, %30
  %67 = sext i32 %18 to i64
  %68 = call { i64, i1 } @llvm.umul.with.overflow.i64(i64 %67, i64 4)
  %69 = extractvalue { i64, i1 } %68, 1
  %70 = extractvalue { i64, i1 } %68, 0
  %71 = select i1 %69, i64 -1, i64 %70
  %72 = call noalias nonnull i8* @_Znam(i64 %71) #23
  %73 = getelementptr inbounds %struct.MLI_ElemBlock_Struct, %struct.MLI_ElemBlock_Struct* %16, i64 0, i32 2
  %74 = bitcast i32** %73 to i8**
  store i8* %72, i8** %74, align 8, !tbaa !26
  %75 = icmp sgt i32 %18, 0
  br i1 %75, label %76, label %85

76:                                               ; preds = %66
  %77 = load i32*, i32** %73, align 8, !tbaa !26
  %78 = zext i32 %18 to i64
  br label %79

79:                                               ; preds = %76, %79
  %80 = phi i64 [ 0, %76 ], [ %83, %79 ]
  %81 = getelementptr inbounds i32, i32* %77, i64 %80
  %82 = trunc i64 %80 to i32
  store i32 %82, i32* %81, align 4, !tbaa !90
  %83 = add nuw nsw i64 %80, 1
  %84 = icmp eq i64 %83, %78
  br i1 %84, label %85, label %79, !llvm.loop !127

85:                                               ; preds = %79, %66
  %86 = load i32*, i32** %19, align 8, !tbaa !24
  %87 = load i32*, i32** %73, align 8, !tbaa !26
  %88 = add nsw i32 %18, -1
  %89 = call i32 @MLI_Utils_IntQSort2(i32* %86, i32* %87, i32 0, i32 %88)
  %90 = icmp sgt i32 %18, 1
  br i1 %90, label %91, label %107

91:                                               ; preds = %85
  %92 = load i32*, i32** %19, align 8, !tbaa !24
  %93 = zext i32 %18 to i64
  br label %96

94:                                               ; preds = %96
  %95 = icmp eq i64 %104, %93
  br i1 %95, label %107, label %96, !llvm.loop !128

96:                                               ; preds = %91, %94
  %97 = phi i64 [ 1, %91 ], [ %104, %94 ]
  %98 = getelementptr inbounds i32, i32* %92, i64 %97
  %99 = load i32, i32* %98, align 4, !tbaa !90
  %100 = add nsw i64 %97, -1
  %101 = getelementptr inbounds i32, i32* %92, i64 %100
  %102 = load i32, i32* %101, align 4, !tbaa !90
  %103 = icmp eq i32 %99, %102
  %104 = add nuw nsw i64 %97, 1
  br i1 %103, label %105, label %94

105:                                              ; preds = %96
  %106 = call i32 @puts(i8* nonnull dereferenceable(1) getelementptr inbounds ([40 x i8], [40 x i8]* @str.277, i64 0, i64 0))
  call void @exit(i32 1) #22
  unreachable

107:                                              ; preds = %94, %85
  %108 = getelementptr inbounds %struct.MLI_ElemBlock_Struct, %struct.MLI_ElemBlock_Struct* %16, i64 0, i32 3
  %109 = load i32, i32* %108, align 8, !tbaa !51
  %110 = call { i64, i1 } @llvm.umul.with.overflow.i64(i64 %67, i64 8)
  %111 = extractvalue { i64, i1 } %110, 1
  %112 = extractvalue { i64, i1 } %110, 0
  %113 = select i1 %111, i64 -1, i64 %112
  %114 = call noalias nonnull i8* @_Znam(i64 %113) #23
  %115 = bitcast i8* %114 to i32**
  %116 = sext i32 %109 to i64
  %117 = call { i64, i1 } @llvm.umul.with.overflow.i64(i64 %116, i64 4)
  %118 = extractvalue { i64, i1 } %117, 1
  %119 = extractvalue { i64, i1 } %117, 0
  %120 = select i1 %118, i64 -1, i64 %119
  %121 = icmp sgt i32 %18, 0
  br i1 %121, label %122, label %124

122:                                              ; preds = %107
  %123 = zext i32 %18 to i64
  br label %133

124:                                              ; preds = %133, %107
  %125 = icmp sgt i32 %109, 0
  %126 = icmp sgt i32 %18, 0
  br i1 %126, label %127, label %140

127:                                              ; preds = %124
  %128 = getelementptr inbounds %struct.MLI_ElemBlock_Struct, %struct.MLI_ElemBlock_Struct* %16, i64 0, i32 4
  %129 = load i32*, i32** %73, align 8, !tbaa !26
  %130 = load i32**, i32*** %128, align 8, !tbaa !28
  %131 = zext i32 %18 to i64
  %132 = zext i32 %109 to i64
  br label %145

133:                                              ; preds = %122, %133
  %134 = phi i64 [ 0, %122 ], [ %138, %133 ]
  %135 = call noalias nonnull i8* @_Znam(i64 %120) #23
  %136 = getelementptr inbounds i32*, i32** %115, i64 %134
  %137 = bitcast i32** %136 to i8**
  store i8* %135, i8** %137, align 8, !tbaa !23
  %138 = add nuw nsw i64 %134, 1
  %139 = icmp eq i64 %138, %123
  br i1 %139, label %124, label %133, !llvm.loop !129

140:                                              ; preds = %162, %124
  %141 = getelementptr inbounds %struct.MLI_ElemBlock_Struct, %struct.MLI_ElemBlock_Struct* %16, i64 0, i32 4
  %142 = icmp sgt i32 %18, 0
  br i1 %142, label %143, label %176

143:                                              ; preds = %140
  %144 = zext i32 %18 to i64
  br label %165

145:                                              ; preds = %127, %162
  %146 = phi i64 [ 0, %127 ], [ %163, %162 ]
  %147 = getelementptr inbounds i32, i32* %129, i64 %146
  %148 = load i32, i32* %147, align 4, !tbaa !90
  %149 = sext i32 %148 to i64
  %150 = getelementptr inbounds i32*, i32** %130, i64 %149
  %151 = load i32*, i32** %150, align 8, !tbaa !23
  br i1 %125, label %152, label %162

152:                                              ; preds = %145
  %153 = getelementptr inbounds i32*, i32** %115, i64 %146
  %154 = load i32*, i32** %153, align 8, !tbaa !23
  br label %155

155:                                              ; preds = %152, %155
  %156 = phi i64 [ 0, %152 ], [ %160, %155 ]
  %157 = getelementptr inbounds i32, i32* %151, i64 %156
  %158 = load i32, i32* %157, align 4, !tbaa !90
  %159 = getelementptr inbounds i32, i32* %154, i64 %156
  store i32 %158, i32* %159, align 4, !tbaa !90
  %160 = add nuw nsw i64 %156, 1
  %161 = icmp eq i64 %160, %132
  br i1 %161, label %162, label %155, !llvm.loop !130

162:                                              ; preds = %155, %145
  %163 = add nuw nsw i64 %146, 1
  %164 = icmp eq i64 %163, %131
  br i1 %164, label %140, label %145, !llvm.loop !131

165:                                              ; preds = %143, %173
  %166 = phi i64 [ 0, %143 ], [ %174, %173 ]
  %167 = load i32**, i32*** %141, align 8, !tbaa !28
  %168 = getelementptr inbounds i32*, i32** %167, i64 %166
  %169 = load i32*, i32** %168, align 8, !tbaa !23
  %170 = icmp eq i32* %169, null
  br i1 %170, label %173, label %171

171:                                              ; preds = %165
  %172 = bitcast i32* %169 to i8*
  call void @_ZdaPv(i8* %172) #20
  br label %173

173:                                              ; preds = %165, %171
  %174 = add nuw nsw i64 %166, 1
  %175 = icmp eq i64 %174, %144
  br i1 %175, label %176, label %165, !llvm.loop !132

176:                                              ; preds = %173, %140
  %177 = getelementptr inbounds %struct.MLI_ElemBlock_Struct, %struct.MLI_ElemBlock_Struct* %16, i64 0, i32 4
  %178 = load i32**, i32*** %177, align 8, !tbaa !28
  %179 = icmp eq i32** %178, null
  br i1 %179, label %182, label %180

180:                                              ; preds = %176
  %181 = bitcast i32** %178 to i8*
  call void @_ZdaPv(i8* %181) #20
  br label %182

182:                                              ; preds = %180, %176
  %183 = bitcast i32*** %177 to i8**
  store i8* %114, i8** %183, align 8, !tbaa !28
  %184 = getelementptr inbounds %class.MLI_FEData, %class.MLI_FEData* %0, i64 0, i32 3
  %185 = load i32, i32* %184, align 8, !tbaa !12
  %186 = mul nsw i32 %185, %109
  %187 = getelementptr inbounds %struct.MLI_ElemBlock_Struct, %struct.MLI_ElemBlock_Struct* %16, i64 0, i32 30
  %188 = load double*, double** %187, align 8, !tbaa !58
  %189 = icmp eq double* %188, null
  br i1 %189, label %235, label %190

190:                                              ; preds = %182
  %191 = sext i32 %186 to i64
  %192 = call { i64, i1 } @llvm.umul.with.overflow.i64(i64 %191, i64 8)
  %193 = extractvalue { i64, i1 } %192, 1
  %194 = extractvalue { i64, i1 } %192, 0
  %195 = select i1 %193, i64 -1, i64 %194
  %196 = call noalias nonnull i8* @_Znam(i64 %195) #23
  %197 = bitcast i8* %196 to double*
  %198 = icmp sgt i32 %186, 0
  %199 = icmp sgt i32 %18, 0
  br i1 %199, label %200, label %228

200:                                              ; preds = %190
  %201 = mul i32 %185, %109
  %202 = zext i32 %18 to i64
  %203 = zext i32 %201 to i64
  br label %204

204:                                              ; preds = %200, %225
  %205 = phi i64 [ 0, %200 ], [ %226, %225 ]
  br i1 %198, label %206, label %225

206:                                              ; preds = %204
  %207 = trunc i64 %205 to i32
  %208 = mul nsw i32 %186, %207
  %209 = load i32*, i32** %73, align 8, !tbaa !26
  %210 = getelementptr inbounds i32, i32* %209, i64 %205
  %211 = load i32, i32* %210, align 4, !tbaa !90
  %212 = load double*, double** %187, align 8, !tbaa !58
  %213 = mul nsw i32 %211, %186
  %214 = sext i32 %213 to i64
  %215 = sext i32 %208 to i64
  br label %216

216:                                              ; preds = %206, %216
  %217 = phi i64 [ 0, %206 ], [ %223, %216 ]
  %218 = add nsw i64 %217, %214
  %219 = getelementptr inbounds double, double* %212, i64 %218
  %220 = load double, double* %219, align 8, !tbaa !99
  %221 = add nsw i64 %217, %215
  %222 = getelementptr inbounds double, double* %197, i64 %221
  store double %220, double* %222, align 8, !tbaa !99
  %223 = add nuw nsw i64 %217, 1
  %224 = icmp eq i64 %223, %203
  br i1 %224, label %225, label %216, !llvm.loop !133

225:                                              ; preds = %216, %204
  %226 = add nuw nsw i64 %205, 1
  %227 = icmp eq i64 %226, %202
  br i1 %227, label %228, label %204, !llvm.loop !134

228:                                              ; preds = %225, %190
  %229 = load double*, double** %187, align 8, !tbaa !58
  %230 = icmp eq double* %229, null
  br i1 %230, label %233, label %231

231:                                              ; preds = %228
  %232 = bitcast double* %229 to i8*
  call void @_ZdaPv(i8* %232) #20
  br label %233

233:                                              ; preds = %231, %228
  %234 = bitcast double** %187 to i8**
  store i8* %196, i8** %234, align 8, !tbaa !58
  br label %235

235:                                              ; preds = %233, %182
  %236 = getelementptr inbounds %struct.MLI_ElemBlock_Struct, %struct.MLI_ElemBlock_Struct* %16, i64 0, i32 7
  store i32 0, i32* %236, align 8, !tbaa !50
  %237 = getelementptr inbounds %struct.MLI_ElemBlock_Struct, %struct.MLI_ElemBlock_Struct* %16, i64 0, i32 5
  %238 = getelementptr inbounds %class.MLI_FEData, %class.MLI_FEData* %0, i64 0, i32 11
  %239 = load i32*, i32** %238, align 8
  %240 = load i32, i32* %237, align 8, !tbaa !49
  %241 = icmp sgt i32 %240, 0
  br i1 %241, label %242, label %257

242:                                              ; preds = %235
  %243 = getelementptr inbounds %struct.MLI_ElemBlock_Struct, %struct.MLI_ElemBlock_Struct* %16, i64 0, i32 6
  %244 = load i32*, i32** %243, align 8, !tbaa !27
  br label %245

245:                                              ; preds = %242, %245
  %246 = phi i64 [ 0, %242 ], [ %254, %245 ]
  %247 = phi i32 [ %240, %242 ], [ %253, %245 ]
  %248 = getelementptr inbounds i32, i32* %244, i64 %246
  %249 = load i32, i32* %248, align 4, !tbaa !90
  %250 = sext i32 %249 to i64
  %251 = getelementptr inbounds i32, i32* %239, i64 %250
  %252 = load i32, i32* %251, align 4, !tbaa !90
  %253 = add nsw i32 %252, %247
  store i32 %253, i32* %237, align 8, !tbaa !49
  %254 = add nuw nsw i64 %246, 1
  %255 = sext i32 %253 to i64
  %256 = icmp slt i64 %254, %255
  br i1 %256, label %245, label %257, !llvm.loop !135

257:                                              ; preds = %245, %235
  %258 = getelementptr inbounds %struct.MLI_ElemBlock_Struct, %struct.MLI_ElemBlock_Struct* %16, i64 0, i32 29
  store i32 0, i32* %258, align 8, !tbaa !74
  %259 = getelementptr inbounds %struct.MLI_ElemBlock_Struct, %struct.MLI_ElemBlock_Struct* %16, i64 0, i32 27
  %260 = load i32, i32* %259, align 8, !tbaa !73
  %261 = getelementptr inbounds %class.MLI_FEData, %class.MLI_FEData* %0, i64 0, i32 11
  %262 = load i32*, i32** %261, align 8
  %263 = icmp sgt i32 %260, 0
  br i1 %263, label %264, label %279

264:                                              ; preds = %257
  %265 = getelementptr inbounds %struct.MLI_ElemBlock_Struct, %struct.MLI_ElemBlock_Struct* %16, i64 0, i32 28
  %266 = load i32*, i32** %265, align 8, !tbaa !57
  %267 = zext i32 %260 to i64
  br label %268

268:                                              ; preds = %264, %268
  %269 = phi i64 [ 0, %264 ], [ %277, %268 ]
  %270 = getelementptr inbounds i32, i32* %266, i64 %269
  %271 = load i32, i32* %270, align 4, !tbaa !90
  %272 = sext i32 %271 to i64
  %273 = getelementptr inbounds i32, i32* %262, i64 %272
  %274 = load i32, i32* %273, align 4, !tbaa !90
  %275 = load i32, i32* %258, align 8, !tbaa !74
  %276 = add nsw i32 %275, %274
  store i32 %276, i32* %258, align 8, !tbaa !74
  %277 = add nuw nsw i64 %269, 1
  %278 = icmp eq i64 %277, %267
  br i1 %278, label %279, label %268, !llvm.loop !136

279:                                              ; preds = %268, %257
  %280 = load i32, i32* %108, align 8, !tbaa !51
  %281 = load i32**, i32*** %177, align 8, !tbaa !28
  %282 = mul nsw i32 %280, %18
  %283 = sext i32 %282 to i64
  %284 = call { i64, i1 } @llvm.umul.with.overflow.i64(i64 %283, i64 4)
  %285 = extractvalue { i64, i1 } %284, 1
  %286 = extractvalue { i64, i1 } %284, 0
  %287 = select i1 %285, i64 -1, i64 %286
  %288 = call noalias nonnull i8* @_Znam(i64 %287) #23
  %289 = bitcast i8* %288 to i32*
  %290 = call noalias nonnull i8* @_Znam(i64 %287) #23
  %291 = bitcast i8* %290 to i32*
  %292 = icmp sgt i32 %280, 0
  %293 = icmp sgt i32 %18, 0
  br i1 %293, label %294, label %319

294:                                              ; preds = %279
  %295 = zext i32 %18 to i64
  %296 = zext i32 %280 to i64
  br label %297

297:                                              ; preds = %294, %315
  %298 = phi i64 [ 0, %294 ], [ %317, %315 ]
  %299 = phi i32 [ 0, %294 ], [ %316, %315 ]
  br i1 %292, label %300, label %315

300:                                              ; preds = %297
  %301 = getelementptr inbounds i32*, i32** %281, i64 %298
  %302 = load i32*, i32** %301, align 8, !tbaa !23
  %303 = sext i32 %299 to i64
  br label %304

304:                                              ; preds = %300, %304
  %305 = phi i64 [ %303, %300 ], [ %309, %304 ]
  %306 = phi i64 [ 0, %300 ], [ %311, %304 ]
  %307 = getelementptr inbounds i32, i32* %302, i64 %306
  %308 = load i32, i32* %307, align 4, !tbaa !90
  %309 = add nsw i64 %305, 1
  %310 = getelementptr inbounds i32, i32* %289, i64 %305
  store i32 %308, i32* %310, align 4, !tbaa !90
  %311 = add nuw nsw i64 %306, 1
  %312 = icmp eq i64 %311, %296
  br i1 %312, label %313, label %304, !llvm.loop !137

313:                                              ; preds = %304
  %314 = trunc i64 %309 to i32
  br label %315

315:                                              ; preds = %313, %297
  %316 = phi i32 [ %299, %297 ], [ %314, %313 ]
  %317 = add nuw nsw i64 %298, 1
  %318 = icmp eq i64 %317, %295
  br i1 %318, label %319, label %297, !llvm.loop !138

319:                                              ; preds = %315, %279
  %320 = add nsw i32 %282, -1
  %321 = call i32 @MLI_Utils_IntQSort2(i32* nonnull %289, i32* null, i32 0, i32 %320)
  %322 = icmp sgt i32 %282, 1
  br i1 %322, label %323, label %326

323:                                              ; preds = %319
  %324 = mul i32 %280, %18
  %325 = zext i32 %324 to i64
  br label %332

326:                                              ; preds = %346, %319
  %327 = phi i32 [ 1, %319 ], [ %347, %346 ]
  %328 = icmp sgt i32 %327, 0
  br i1 %328, label %329, label %350

329:                                              ; preds = %326
  %330 = zext i32 %327 to i64
  %331 = shl nuw nsw i64 %330, 2
  call void @llvm.memcpy.p0i8.p0i8.i64(i8* nonnull align 4 %290, i8* nonnull align 4 %288, i64 %331, i1 false)
  br label %350

332:                                              ; preds = %323, %346
  %333 = phi i64 [ 1, %323 ], [ %348, %346 ]
  %334 = phi i32 [ 1, %323 ], [ %347, %346 ]
  %335 = getelementptr inbounds i32, i32* %289, i64 %333
  %336 = load i32, i32* %335, align 4, !tbaa !90
  %337 = add nsw i32 %334, -1
  %338 = sext i32 %337 to i64
  %339 = getelementptr inbounds i32, i32* %289, i64 %338
  %340 = load i32, i32* %339, align 4, !tbaa !90
  %341 = icmp eq i32 %336, %340
  br i1 %341, label %346, label %342

342:                                              ; preds = %332
  %343 = add nsw i32 %334, 1
  %344 = sext i32 %334 to i64
  %345 = getelementptr inbounds i32, i32* %289, i64 %344
  store i32 %336, i32* %345, align 4, !tbaa !90
  br label %346

346:                                              ; preds = %332, %342
  %347 = phi i32 [ %343, %342 ], [ %334, %332 ]
  %348 = add nuw nsw i64 %333, 1
  %349 = icmp eq i64 %348, %325
  br i1 %349, label %326, label %332, !llvm.loop !139

350:                                              ; preds = %329, %326
  %351 = getelementptr inbounds %class.MLI_FEData, %class.MLI_FEData* %0, i64 0, i32 1
  %352 = load i32, i32* %351, align 8, !tbaa !6
  %353 = call i32 @MPI_Comm_rank(i32 %352, i32* nonnull %3)
  %354 = getelementptr inbounds %struct.MLI_ElemBlock_Struct, %struct.MLI_ElemBlock_Struct* %16, i64 0, i32 35
  %355 = load i32, i32* %354, align 8, !tbaa !68
  %356 = getelementptr inbounds %struct.MLI_ElemBlock_Struct, %struct.MLI_ElemBlock_Struct* %16, i64 0, i32 36
  %357 = load i32*, i32** %356, align 8, !tbaa !65
  %358 = getelementptr inbounds %struct.MLI_ElemBlock_Struct, %struct.MLI_ElemBlock_Struct* %16, i64 0, i32 37
  %359 = load i32*, i32** %358, align 8, !tbaa !66
  %360 = getelementptr inbounds %struct.MLI_ElemBlock_Struct, %struct.MLI_ElemBlock_Struct* %16, i64 0, i32 38
  %361 = load i32**, i32*** %360, align 8, !tbaa !67
  %362 = icmp sgt i32 %355, 0
  br i1 %362, label %363, label %375

363:                                              ; preds = %350
  %364 = zext i32 %355 to i64
  br label %365

365:                                              ; preds = %363, %416
  %366 = phi i64 [ 0, %363 ], [ %417, %416 ]
  %367 = getelementptr inbounds i32, i32* %359, i64 %366
  %368 = load i32, i32* %367, align 4, !tbaa !90
  %369 = load i32, i32* %3, align 4
  %370 = icmp sgt i32 %368, 0
  br i1 %370, label %371, label %416

371:                                              ; preds = %365
  %372 = getelementptr inbounds i32*, i32** %361, i64 %366
  %373 = load i32*, i32** %372, align 8, !tbaa !23
  %374 = zext i32 %368 to i64
  br label %381

375:                                              ; preds = %416, %350
  %376 = icmp sgt i32 %327, 0
  br i1 %376, label %377, label %428

377:                                              ; preds = %375
  %378 = zext i32 %327 to i64
  br label %419

379:                                              ; preds = %381
  %380 = icmp eq i64 %386, %374
  br i1 %380, label %416, label %381, !llvm.loop !140

381:                                              ; preds = %371, %379
  %382 = phi i64 [ 0, %371 ], [ %386, %379 ]
  %383 = getelementptr inbounds i32, i32* %373, i64 %382
  %384 = load i32, i32* %383, align 4, !tbaa !90
  %385 = icmp slt i32 %384, %369
  %386 = add nuw nsw i64 %382, 1
  br i1 %385, label %387, label %379

387:                                              ; preds = %381
  %388 = getelementptr inbounds i32, i32* %357, i64 %366
  %389 = load i32, i32* %388, align 4, !tbaa !90
  %390 = call i32 @MLI_Utils_BinarySearch(i32 %389, i32* nonnull %289, i32 %327)
  %391 = icmp slt i32 %390, 0
  br i1 %391, label %392, label %409

392:                                              ; preds = %387
  %393 = and i64 %366, 4294967295
  %394 = getelementptr inbounds i32, i32* %357, i64 %393
  %395 = call i32 @puts(i8* nonnull dereferenceable(1) getelementptr inbounds ([50 x i8], [50 x i8]* @str.276, i64 0, i64 0))
  %396 = load i32, i32* %394, align 4, !tbaa !90
  %397 = call i32 (i8*, ...) @printf(i8* nonnull dereferenceable(1) getelementptr inbounds ([13 x i8], [13 x i8]* @.str.43, i64 0, i64 0), i32 %396)
  %398 = icmp sgt i32 %327, 0
  br i1 %398, label %399, label %408

399:                                              ; preds = %392
  %400 = zext i32 %327 to i64
  br label %401

401:                                              ; preds = %399, %401
  %402 = phi i64 [ 0, %399 ], [ %406, %401 ]
  %403 = getelementptr inbounds i32, i32* %289, i64 %402
  %404 = load i32, i32* %403, align 4, !tbaa !90
  %405 = call i32 (i8*, ...) @printf(i8* nonnull dereferenceable(1) getelementptr inbounds ([17 x i8], [17 x i8]* @.str.44, i64 0, i64 0), i32 %404)
  %406 = add nuw nsw i64 %402, 1
  %407 = icmp eq i64 %406, %400
  br i1 %407, label %408, label %401, !llvm.loop !141

408:                                              ; preds = %401, %392
  call void @exit(i32 1) #22
  unreachable

409:                                              ; preds = %387
  %410 = sext i32 %390 to i64
  %411 = getelementptr inbounds i32, i32* %291, i64 %410
  %412 = load i32, i32* %411, align 4, !tbaa !90
  %413 = icmp sgt i32 %412, -1
  br i1 %413, label %414, label %416

414:                                              ; preds = %409
  %415 = xor i32 %412, -1
  store i32 %415, i32* %411, align 4, !tbaa !90
  br label %416

416:                                              ; preds = %379, %365, %414, %409
  %417 = add nuw nsw i64 %366, 1
  %418 = icmp eq i64 %417, %364
  br i1 %418, label %375, label %365, !llvm.loop !142

419:                                              ; preds = %377, %419
  %420 = phi i64 [ 0, %377 ], [ %426, %419 ]
  %421 = phi i32 [ 0, %377 ], [ %425, %419 ]
  %422 = getelementptr inbounds i32, i32* %291, i64 %420
  %423 = load i32, i32* %422, align 4, !tbaa !90
  %424 = lshr i32 %423, 31
  %425 = add nuw nsw i32 %424, %421
  %426 = add nuw nsw i64 %420, 1
  %427 = icmp eq i64 %426, %378
  br i1 %427, label %428, label %419, !llvm.loop !143

428:                                              ; preds = %419, %375
  %429 = phi i32 [ 0, %375 ], [ %425, %419 ]
  %430 = getelementptr inbounds %struct.MLI_ElemBlock_Struct, %struct.MLI_ElemBlock_Struct* %16, i64 0, i32 25
  store i32 %429, i32* %430, align 8, !tbaa !72
  %431 = sub nsw i32 %327, %429
  %432 = getelementptr inbounds %struct.MLI_ElemBlock_Struct, %struct.MLI_ElemBlock_Struct* %16, i64 0, i32 24
  store i32 %431, i32* %432, align 4, !tbaa !71
  %433 = sext i32 %327 to i64
  %434 = call { i64, i1 } @llvm.umul.with.overflow.i64(i64 %433, i64 4)
  %435 = extractvalue { i64, i1 } %434, 1
  %436 = extractvalue { i64, i1 } %434, 0
  %437 = select i1 %435, i64 -1, i64 %436
  %438 = call noalias nonnull i8* @_Znam(i64 %437) #23
  %439 = getelementptr inbounds %struct.MLI_ElemBlock_Struct, %struct.MLI_ElemBlock_Struct* %16, i64 0, i32 26
  %440 = bitcast i32** %439 to i8**
  store i8* %438, i8** %440, align 8, !tbaa !56
  %441 = icmp sgt i32 %327, 0
  br i1 %441, label %442, label %444

442:                                              ; preds = %428
  %443 = zext i32 %327 to i64
  br label %449

444:                                              ; preds = %462, %428
  %445 = phi i32 [ 0, %428 ], [ %463, %462 ]
  %446 = icmp sgt i32 %327, 0
  br i1 %446, label %447, label %483

447:                                              ; preds = %444
  %448 = zext i32 %327 to i64
  br label %466

449:                                              ; preds = %442, %462
  %450 = phi i64 [ 0, %442 ], [ %464, %462 ]
  %451 = phi i32 [ 0, %442 ], [ %463, %462 ]
  %452 = getelementptr inbounds i32, i32* %291, i64 %450
  %453 = load i32, i32* %452, align 4, !tbaa !90
  %454 = icmp sgt i32 %453, -1
  br i1 %454, label %455, label %462

455:                                              ; preds = %449
  %456 = getelementptr inbounds i32, i32* %289, i64 %450
  %457 = load i32, i32* %456, align 4, !tbaa !90
  %458 = load i32*, i32** %439, align 8, !tbaa !56
  %459 = add nsw i32 %451, 1
  %460 = sext i32 %451 to i64
  %461 = getelementptr inbounds i32, i32* %458, i64 %460
  store i32 %457, i32* %461, align 4, !tbaa !90
  br label %462

462:                                              ; preds = %449, %455
  %463 = phi i32 [ %459, %455 ], [ %451, %449 ]
  %464 = add nuw nsw i64 %450, 1
  %465 = icmp eq i64 %464, %443
  br i1 %465, label %444, label %449, !llvm.loop !144

466:                                              ; preds = %447, %479
  %467 = phi i64 [ 0, %447 ], [ %481, %479 ]
  %468 = phi i32 [ %445, %447 ], [ %480, %479 ]
  %469 = getelementptr inbounds i32, i32* %291, i64 %467
  %470 = load i32, i32* %469, align 4, !tbaa !90
  %471 = icmp slt i32 %470, 0
  br i1 %471, label %472, label %479

472:                                              ; preds = %466
  %473 = getelementptr inbounds i32, i32* %289, i64 %467
  %474 = load i32, i32* %473, align 4, !tbaa !90
  %475 = load i32*, i32** %439, align 8, !tbaa !56
  %476 = add nsw i32 %468, 1
  %477 = sext i32 %468 to i64
  %478 = getelementptr inbounds i32, i32* %475, i64 %477
  store i32 %474, i32* %478, align 4, !tbaa !90
  br label %479

479:                                              ; preds = %466, %472
  %480 = phi i32 [ %476, %472 ], [ %468, %466 ]
  %481 = add nuw nsw i64 %467, 1
  %482 = icmp eq i64 %481, %448
  br i1 %482, label %483, label %466, !llvm.loop !145

483:                                              ; preds = %479, %444
  call void @_ZdaPv(i8* %288) #20
  call void @_ZdaPv(i8* %290) #20
  %484 = load i32, i32* %351, align 8, !tbaa !6
  %485 = call i32 @MPI_Comm_size(i32 %484, i32* nonnull %4)
  %486 = icmp ne i32 %429, 0
  br i1 %486, label %487, label %492

487:                                              ; preds = %483
  %488 = zext i32 %429 to i64
  %489 = shl nuw nsw i64 %488, 2
  %490 = call noalias nonnull i8* @_Znam(i64 %489) #23
  %491 = bitcast i8* %490 to i32*
  br label %492

492:                                              ; preds = %487, %483
  %493 = phi i32* [ %491, %487 ], [ null, %483 ]
  br i1 %486, label %494, label %499

494:                                              ; preds = %492
  %495 = zext i32 %429 to i64
  %496 = shl nuw nsw i64 %495, 2
  %497 = call noalias nonnull i8* @_Znam(i64 %496) #23
  %498 = bitcast i8* %497 to i32*
  br label %499

499:                                              ; preds = %494, %492
  %500 = phi i32* [ %498, %494 ], [ null, %492 ]
  %501 = bitcast i32* %500 to i8*
  %502 = icmp sgt i32 %355, 0
  br i1 %502, label %503, label %511

503:                                              ; preds = %499
  %504 = sext i32 %355 to i64
  %505 = call { i64, i1 } @llvm.umul.with.overflow.i64(i64 %504, i64 4)
  %506 = extractvalue { i64, i1 } %505, 1
  %507 = extractvalue { i64, i1 } %505, 0
  %508 = select i1 %506, i64 -1, i64 %507
  %509 = call noalias nonnull i8* @_Znam(i64 %508) #23
  %510 = bitcast i8* %509 to i32*
  br label %511

511:                                              ; preds = %503, %499
  %512 = phi i32* [ %510, %503 ], [ null, %499 ]
  %513 = load i32, i32* %432, align 4, !tbaa !71
  %514 = icmp sgt i32 %355, 0
  br i1 %514, label %515, label %580

515:                                              ; preds = %511
  %516 = zext i32 %355 to i64
  br label %517

517:                                              ; preds = %515, %577
  %518 = phi i64 [ 0, %515 ], [ %578, %577 ]
  %519 = getelementptr inbounds i32, i32* %357, i64 %518
  %520 = load i32, i32* %519, align 4, !tbaa !90
  %521 = load %struct.MLI_ElemBlock_Struct**, %struct.MLI_ElemBlock_Struct*** %10, align 8, !tbaa !16
  %522 = load i32, i32* %12, align 8, !tbaa !17
  %523 = sext i32 %522 to i64
  %524 = getelementptr inbounds %struct.MLI_ElemBlock_Struct*, %struct.MLI_ElemBlock_Struct** %521, i64 %523
  %525 = load %struct.MLI_ElemBlock_Struct*, %struct.MLI_ElemBlock_Struct** %524, align 8, !tbaa !23
  %526 = getelementptr inbounds %struct.MLI_ElemBlock_Struct, %struct.MLI_ElemBlock_Struct* %525, i64 0, i32 26
  %527 = load i32*, i32** %526, align 8, !tbaa !56
  %528 = getelementptr inbounds %struct.MLI_ElemBlock_Struct, %struct.MLI_ElemBlock_Struct* %525, i64 0, i32 24
  %529 = load i32, i32* %528, align 4, !tbaa !71
  %530 = call i32 @MLI_Utils_BinarySearch(i32 %520, i32* %527, i32 %529)
  %531 = icmp slt i32 %530, 0
  br i1 %531, label %532, label %544

532:                                              ; preds = %517
  %533 = load i32*, i32** %526, align 8, !tbaa !56
  %534 = load i32, i32* %528, align 4, !tbaa !71
  %535 = sext i32 %534 to i64
  %536 = getelementptr inbounds i32, i32* %533, i64 %535
  %537 = getelementptr inbounds %struct.MLI_ElemBlock_Struct, %struct.MLI_ElemBlock_Struct* %525, i64 0, i32 25
  %538 = load i32, i32* %537, align 8, !tbaa !72
  %539 = call i32 @MLI_Utils_BinarySearch(i32 %520, i32* %536, i32 %538)
  %540 = icmp sgt i32 %539, -1
  br i1 %540, label %541, label %544

541:                                              ; preds = %532
  %542 = load i32, i32* %528, align 4, !tbaa !71
  %543 = add nsw i32 %542, %539
  br label %544

544:                                              ; preds = %517, %532, %541
  %545 = phi i32 [ %543, %541 ], [ %539, %532 ], [ %530, %517 ]
  %546 = sub nsw i32 %545, %513
  %547 = icmp slt i32 %546, %429
  br i1 %547, label %550, label %548

548:                                              ; preds = %544
  %549 = call i32 @puts(i8* nonnull dereferenceable(1) getelementptr inbounds ([54 x i8], [54 x i8]* @str.275, i64 0, i64 0))
  call void @exit(i32 1) #22
  unreachable

550:                                              ; preds = %544
  %551 = icmp sgt i32 %546, -1
  %552 = getelementptr inbounds i32, i32* %512, i64 %518
  br i1 %551, label %553, label %576

553:                                              ; preds = %550
  store i32 1, i32* %552, align 4, !tbaa !90
  %554 = load i32, i32* %3, align 4, !tbaa !90
  %555 = getelementptr inbounds i32, i32* %359, i64 %518
  %556 = load i32, i32* %555, align 4, !tbaa !90
  %557 = icmp sgt i32 %556, 0
  br i1 %557, label %558, label %571

558:                                              ; preds = %553
  %559 = getelementptr inbounds i32*, i32** %361, i64 %518
  %560 = load i32*, i32** %559, align 8, !tbaa !23
  %561 = zext i32 %556 to i64
  br label %562

562:                                              ; preds = %558, %562
  %563 = phi i64 [ 0, %558 ], [ %569, %562 ]
  %564 = phi i32 [ %554, %558 ], [ %568, %562 ]
  %565 = getelementptr inbounds i32, i32* %560, i64 %563
  %566 = load i32, i32* %565, align 4, !tbaa !90
  %567 = icmp slt i32 %566, %564
  %568 = select i1 %567, i32 %566, i32 %564
  %569 = add nuw nsw i64 %563, 1
  %570 = icmp eq i64 %569, %561
  br i1 %570, label %571, label %562, !llvm.loop !146

571:                                              ; preds = %562, %553
  %572 = phi i32 [ %554, %553 ], [ %568, %562 ]
  %573 = sext i32 %546 to i64
  %574 = getelementptr inbounds i32, i32* %493, i64 %573
  store i32 %572, i32* %574, align 4, !tbaa !90
  %575 = getelementptr inbounds i32, i32* %500, i64 %573
  store i32 %572, i32* %575, align 4, !tbaa !90
  br label %577

576:                                              ; preds = %550
  store i32 0, i32* %552, align 4, !tbaa !90
  br label %577

577:                                              ; preds = %571, %576
  %578 = add nuw nsw i64 %518, 1
  %579 = icmp eq i64 %578, %516
  br i1 %579, label %580, label %517, !llvm.loop !147

580:                                              ; preds = %577, %511
  %581 = add nsw i32 %429, -1
  %582 = call i32 @MLI_Utils_IntQSort2(i32* %500, i32* null, i32 0, i32 %581)
  %583 = zext i1 %486 to i32
  %584 = icmp ugt i32 %429, 1
  br i1 %584, label %585, label %605

585:                                              ; preds = %580
  %586 = zext i32 %429 to i64
  br label %587

587:                                              ; preds = %585, %601
  %588 = phi i64 [ 1, %585 ], [ %603, %601 ]
  %589 = phi i32 [ %583, %585 ], [ %602, %601 ]
  %590 = getelementptr inbounds i32, i32* %500, i64 %588
  %591 = load i32, i32* %590, align 4, !tbaa !90
  %592 = add nsw i32 %589, -1
  %593 = sext i32 %592 to i64
  %594 = getelementptr inbounds i32, i32* %500, i64 %593
  %595 = load i32, i32* %594, align 4, !tbaa !90
  %596 = icmp eq i32 %591, %595
  br i1 %596, label %601, label %597

597:                                              ; preds = %587
  %598 = add nsw i32 %589, 1
  %599 = sext i32 %589 to i64
  %600 = getelementptr inbounds i32, i32* %500, i64 %599
  store i32 %591, i32* %600, align 4, !tbaa !90
  br label %601

601:                                              ; preds = %587, %597
  %602 = phi i32 [ %598, %597 ], [ %589, %587 ]
  %603 = add nuw nsw i64 %588, 1
  %604 = icmp eq i64 %603, %586
  br i1 %604, label %605, label %587, !llvm.loop !148

605:                                              ; preds = %601, %580
  %606 = phi i32 [ %583, %580 ], [ %602, %601 ]
  %607 = icmp sgt i32 %606, 0
  br i1 %607, label %608, label %660

608:                                              ; preds = %605
  %609 = sext i32 %606 to i64
  %610 = call { i64, i1 } @llvm.umul.with.overflow.i64(i64 %609, i64 4)
  %611 = extractvalue { i64, i1 } %610, 1
  %612 = extractvalue { i64, i1 } %610, 0
  %613 = select i1 %611, i64 -1, i64 %612
  %614 = call noalias nonnull i8* @_Znam(i64 %613) #23
  %615 = zext i32 %606 to i64
  %616 = shl nuw nsw i64 %615, 2
  call void @llvm.memcpy.p0i8.p0i8.i64(i8* nonnull align 4 %614, i8* align 4 %501, i64 %616, i1 false)
  %617 = bitcast i8* %614 to i32*
  %618 = call noalias nonnull i8* @_Znam(i64 %613) #23
  %619 = bitcast i8* %618 to i32*
  %620 = zext i32 %606 to i64
  %621 = shl nuw nsw i64 %620, 2
  call void @llvm.memset.p0i8.i64(i8* nonnull align 4 %618, i8 0, i64 %621, i1 false)
  %622 = icmp eq i32 %429, 0
  br i1 %622, label %636, label %623

623:                                              ; preds = %608
  %624 = zext i32 %429 to i64
  br label %625

625:                                              ; preds = %623, %625
  %626 = phi i64 [ 0, %623 ], [ %634, %625 ]
  %627 = getelementptr inbounds i32, i32* %493, i64 %626
  %628 = load i32, i32* %627, align 4, !tbaa !90
  %629 = call i32 @MLI_Utils_BinarySearch(i32 %628, i32* nonnull %617, i32 %606)
  %630 = sext i32 %629 to i64
  %631 = getelementptr inbounds i32, i32* %619, i64 %630
  %632 = load i32, i32* %631, align 4, !tbaa !90
  %633 = add nsw i32 %632, 1
  store i32 %633, i32* %631, align 4, !tbaa !90
  %634 = add nuw nsw i64 %626, 1
  %635 = icmp eq i64 %634, %624
  br i1 %635, label %636, label %625, !llvm.loop !149

636:                                              ; preds = %625, %608
  %637 = call { i64, i1 } @llvm.umul.with.overflow.i64(i64 %609, i64 8)
  %638 = extractvalue { i64, i1 } %637, 1
  %639 = extractvalue { i64, i1 } %637, 0
  %640 = select i1 %638, i64 -1, i64 %639
  %641 = call noalias nonnull i8* @_Znam(i64 %640) #23
  %642 = bitcast i8* %641 to i32**
  %643 = icmp sgt i32 %606, 0
  br i1 %643, label %644, label %660

644:                                              ; preds = %636
  %645 = zext i32 %606 to i64
  br label %646

646:                                              ; preds = %644, %646
  %647 = phi i64 [ 0, %644 ], [ %658, %646 ]
  %648 = getelementptr inbounds i32, i32* %619, i64 %647
  %649 = load i32, i32* %648, align 4, !tbaa !90
  %650 = sext i32 %649 to i64
  %651 = call { i64, i1 } @llvm.umul.with.overflow.i64(i64 %650, i64 4)
  %652 = extractvalue { i64, i1 } %651, 1
  %653 = extractvalue { i64, i1 } %651, 0
  %654 = select i1 %652, i64 -1, i64 %653
  %655 = call noalias nonnull i8* @_Znam(i64 %654) #23
  %656 = getelementptr inbounds i32*, i32** %642, i64 %647
  %657 = bitcast i32** %656 to i8**
  store i8* %655, i8** %657, align 8, !tbaa !23
  %658 = add nuw nsw i64 %647, 1
  %659 = icmp eq i64 %658, %645
  br i1 %659, label %660, label %646, !llvm.loop !150

660:                                              ; preds = %646, %636, %605
  %661 = phi i32* [ null, %605 ], [ %617, %636 ], [ %617, %646 ]
  %662 = phi i32* [ null, %605 ], [ %619, %636 ], [ %619, %646 ]
  %663 = phi i32** [ null, %605 ], [ %642, %636 ], [ %642, %646 ]
  %664 = bitcast i32* %662 to i8*
  %665 = xor i1 %486, true
  %666 = icmp eq i32* %500, null
  %667 = select i1 %665, i1 true, i1 %666
  br i1 %667, label %670, label %668

668:                                              ; preds = %660
  %669 = bitcast i32* %500 to i8*
  call void @_ZdaPv(i8* %669) #20
  br label %670

670:                                              ; preds = %668, %660
  %671 = icmp sgt i32 %355, 0
  br i1 %671, label %672, label %688

672:                                              ; preds = %670
  %673 = zext i32 %355 to i64
  br label %674

674:                                              ; preds = %672, %684
  %675 = phi i64 [ 0, %672 ], [ %686, %684 ]
  %676 = phi i32 [ 0, %672 ], [ %685, %684 ]
  %677 = getelementptr inbounds i32, i32* %512, i64 %675
  %678 = load i32, i32* %677, align 4, !tbaa !90
  %679 = icmp eq i32 %678, 0
  br i1 %679, label %680, label %684

680:                                              ; preds = %674
  %681 = getelementptr inbounds i32, i32* %359, i64 %675
  %682 = load i32, i32* %681, align 4, !tbaa !90
  %683 = add nsw i32 %682, %676
  br label %684

684:                                              ; preds = %674, %680
  %685 = phi i32 [ %683, %680 ], [ %676, %674 ]
  %686 = add nuw nsw i64 %675, 1
  %687 = icmp eq i64 %686, %673
  br i1 %687, label %688, label %674, !llvm.loop !151

688:                                              ; preds = %684, %670
  %689 = phi i32 [ 0, %670 ], [ %685, %684 ]
  %690 = icmp sgt i32 %689, 0
  br i1 %690, label %691, label %699

691:                                              ; preds = %688
  %692 = sext i32 %689 to i64
  %693 = call { i64, i1 } @llvm.umul.with.overflow.i64(i64 %692, i64 4)
  %694 = extractvalue { i64, i1 } %693, 1
  %695 = extractvalue { i64, i1 } %693, 0
  %696 = select i1 %694, i64 -1, i64 %695
  %697 = call noalias nonnull i8* @_Znam(i64 %696) #23
  %698 = bitcast i8* %697 to i32*
  br label %699

699:                                              ; preds = %691, %688
  %700 = phi i32* [ %698, %691 ], [ %500, %688 ]
  %701 = icmp sgt i32 %355, 0
  br i1 %701, label %702, label %738

702:                                              ; preds = %699
  %703 = zext i32 %355 to i64
  br label %704

704:                                              ; preds = %702, %734
  %705 = phi i64 [ 0, %702 ], [ %736, %734 ]
  %706 = phi i32 [ 0, %702 ], [ %735, %734 ]
  %707 = getelementptr inbounds i32, i32* %512, i64 %705
  %708 = load i32, i32* %707, align 4, !tbaa !90
  %709 = icmp eq i32 %708, 0
  br i1 %709, label %710, label %734

710:                                              ; preds = %704
  %711 = getelementptr inbounds i32, i32* %359, i64 %705
  %712 = load i32, i32* %711, align 4, !tbaa !90
  %713 = icmp sgt i32 %712, 0
  br i1 %713, label %714, label %734

714:                                              ; preds = %710
  %715 = getelementptr inbounds i32*, i32** %361, i64 %705
  %716 = load i32*, i32** %715, align 8, !tbaa !23
  br label %717

717:                                              ; preds = %714, %728
  %718 = phi i64 [ 0, %714 ], [ %730, %728 ]
  %719 = phi i32 [ %706, %714 ], [ %729, %728 ]
  %720 = getelementptr inbounds i32, i32* %716, i64 %718
  %721 = load i32, i32* %720, align 4, !tbaa !90
  %722 = load i32, i32* %3, align 4, !tbaa !90
  %723 = icmp eq i32 %721, %722
  br i1 %723, label %728, label %724

724:                                              ; preds = %717
  %725 = add nsw i32 %719, 1
  %726 = sext i32 %719 to i64
  %727 = getelementptr inbounds i32, i32* %700, i64 %726
  store i32 %721, i32* %727, align 4, !tbaa !90
  br label %728

728:                                              ; preds = %717, %724
  %729 = phi i32 [ %725, %724 ], [ %719, %717 ]
  %730 = add nuw nsw i64 %718, 1
  %731 = load i32, i32* %711, align 4, !tbaa !90
  %732 = sext i32 %731 to i64
  %733 = icmp slt i64 %730, %732
  br i1 %733, label %717, label %734, !llvm.loop !152

734:                                              ; preds = %728, %710, %704
  %735 = phi i32 [ %706, %704 ], [ %706, %710 ], [ %729, %728 ]
  %736 = add nuw nsw i64 %705, 1
  %737 = icmp eq i64 %736, %703
  br i1 %737, label %738, label %704, !llvm.loop !153

738:                                              ; preds = %734, %699
  %739 = phi i32 [ 0, %699 ], [ %735, %734 ]
  %740 = icmp sgt i32 %739, 0
  br i1 %740, label %741, label %924

741:                                              ; preds = %738
  %742 = add nsw i32 %739, -1
  %743 = call i32 @MLI_Utils_IntQSort2(i32* %700, i32* null, i32 0, i32 %742)
  %744 = icmp eq i32 %739, 1
  br i1 %744, label %765, label %745

745:                                              ; preds = %741
  %746 = zext i32 %739 to i64
  br label %747

747:                                              ; preds = %745, %761
  %748 = phi i64 [ 1, %745 ], [ %763, %761 ]
  %749 = phi i32 [ 1, %745 ], [ %762, %761 ]
  %750 = getelementptr inbounds i32, i32* %700, i64 %748
  %751 = load i32, i32* %750, align 4, !tbaa !90
  %752 = add nsw i32 %749, -1
  %753 = sext i32 %752 to i64
  %754 = getelementptr inbounds i32, i32* %700, i64 %753
  %755 = load i32, i32* %754, align 4, !tbaa !90
  %756 = icmp eq i32 %751, %755
  br i1 %756, label %761, label %757

757:                                              ; preds = %747
  %758 = add nsw i32 %749, 1
  %759 = sext i32 %749 to i64
  %760 = getelementptr inbounds i32, i32* %700, i64 %759
  store i32 %751, i32* %760, align 4, !tbaa !90
  br label %761

761:                                              ; preds = %747, %757
  %762 = phi i32 [ %758, %757 ], [ %749, %747 ]
  %763 = add nuw nsw i64 %748, 1
  %764 = icmp eq i64 %763, %746
  br i1 %764, label %765, label %747, !llvm.loop !154

765:                                              ; preds = %761, %741
  %766 = phi i32 [ 1, %741 ], [ %762, %761 ]
  %767 = sext i32 %766 to i64
  %768 = call { i64, i1 } @llvm.umul.with.overflow.i64(i64 %767, i64 4)
  %769 = extractvalue { i64, i1 } %768, 1
  %770 = extractvalue { i64, i1 } %768, 0
  %771 = select i1 %769, i64 -1, i64 %770
  %772 = call noalias nonnull i8* @_Znam(i64 %771) #23
  %773 = bitcast i8* %772 to i32*
  %774 = icmp sgt i32 %766, 0
  br i1 %774, label %775, label %784

775:                                              ; preds = %765
  %776 = zext i32 %766 to i64
  br label %777

777:                                              ; preds = %775, %777
  %778 = phi i64 [ 0, %775 ], [ %782, %777 ]
  %779 = getelementptr inbounds i32, i32* %700, i64 %778
  %780 = load i32, i32* %779, align 4, !tbaa !90
  %781 = getelementptr inbounds i32, i32* %773, i64 %778
  store i32 %780, i32* %781, align 4, !tbaa !90
  %782 = add nuw nsw i64 %778, 1
  %783 = icmp eq i64 %782, %776
  br i1 %783, label %784, label %777, !llvm.loop !155

784:                                              ; preds = %777, %765
  %785 = call noalias nonnull i8* @_Znam(i64 %771) #23
  %786 = bitcast i8* %785 to i32*
  %787 = icmp sgt i32 %766, 0
  br i1 %787, label %788, label %791

788:                                              ; preds = %784
  %789 = zext i32 %766 to i64
  %790 = shl nuw nsw i64 %789, 2
  call void @llvm.memset.p0i8.i64(i8* nonnull align 4 %785, i8 0, i64 %790, i1 false)
  br label %791

791:                                              ; preds = %788, %784
  %792 = icmp sgt i32 %355, 0
  br i1 %792, label %793, label %826

793:                                              ; preds = %791
  %794 = zext i32 %355 to i64
  br label %795

795:                                              ; preds = %793, %823
  %796 = phi i64 [ 0, %793 ], [ %824, %823 ]
  %797 = getelementptr inbounds i32, i32* %512, i64 %796
  %798 = load i32, i32* %797, align 4, !tbaa !90
  %799 = icmp eq i32 %798, 0
  br i1 %799, label %800, label %823

800:                                              ; preds = %795
  %801 = getelementptr inbounds i32, i32* %359, i64 %796
  %802 = getelementptr inbounds i32*, i32** %361, i64 %796
  %803 = load i32, i32* %801, align 4, !tbaa !90
  %804 = icmp sgt i32 %803, 0
  br i1 %804, label %805, label %823

805:                                              ; preds = %800, %818
  %806 = phi i64 [ %819, %818 ], [ 0, %800 ]
  %807 = load i32*, i32** %802, align 8, !tbaa !23
  %808 = getelementptr inbounds i32, i32* %807, i64 %806
  %809 = load i32, i32* %808, align 4, !tbaa !90
  %810 = load i32, i32* %3, align 4, !tbaa !90
  %811 = icmp eq i32 %809, %810
  br i1 %811, label %818, label %812

812:                                              ; preds = %805
  %813 = call i32 @MLI_Utils_BinarySearch(i32 %809, i32* nonnull %773, i32 %766)
  %814 = sext i32 %813 to i64
  %815 = getelementptr inbounds i32, i32* %786, i64 %814
  %816 = load i32, i32* %815, align 4, !tbaa !90
  %817 = add nsw i32 %816, 1
  store i32 %817, i32* %815, align 4, !tbaa !90
  br label %818

818:                                              ; preds = %805, %812
  %819 = add nuw nsw i64 %806, 1
  %820 = load i32, i32* %801, align 4, !tbaa !90
  %821 = sext i32 %820 to i64
  %822 = icmp slt i64 %819, %821
  br i1 %822, label %805, label %823, !llvm.loop !156

823:                                              ; preds = %818, %800, %795
  %824 = add nuw nsw i64 %796, 1
  %825 = icmp eq i64 %824, %794
  br i1 %825, label %826, label %795, !llvm.loop !157

826:                                              ; preds = %823, %791
  %827 = call { i64, i1 } @llvm.umul.with.overflow.i64(i64 %767, i64 8)
  %828 = extractvalue { i64, i1 } %827, 1
  %829 = extractvalue { i64, i1 } %827, 0
  %830 = select i1 %828, i64 -1, i64 %829
  %831 = call noalias nonnull i8* @_Znam(i64 %830) #23
  %832 = bitcast i8* %831 to i32**
  %833 = icmp sgt i32 %766, 0
  br i1 %833, label %834, label %836

834:                                              ; preds = %826
  %835 = zext i32 %766 to i64
  br label %841

836:                                              ; preds = %841, %826
  %837 = icmp sgt i32 %766, 0
  br i1 %837, label %838, label %855

838:                                              ; preds = %836
  %839 = zext i32 %766 to i64
  %840 = shl nuw nsw i64 %839, 2
  call void @llvm.memset.p0i8.i64(i8* nonnull align 4 %785, i8 0, i64 %840, i1 false)
  br label %855

841:                                              ; preds = %834, %841
  %842 = phi i64 [ 0, %834 ], [ %853, %841 ]
  %843 = getelementptr inbounds i32, i32* %786, i64 %842
  %844 = load i32, i32* %843, align 4, !tbaa !90
  %845 = sext i32 %844 to i64
  %846 = call { i64, i1 } @llvm.umul.with.overflow.i64(i64 %845, i64 4)
  %847 = extractvalue { i64, i1 } %846, 1
  %848 = extractvalue { i64, i1 } %846, 0
  %849 = select i1 %847, i64 -1, i64 %848
  %850 = call noalias nonnull i8* @_Znam(i64 %849) #23
  %851 = getelementptr inbounds i32*, i32** %832, i64 %842
  %852 = bitcast i32** %851 to i8**
  store i8* %850, i8** %852, align 8, !tbaa !23
  %853 = add nuw nsw i64 %842, 1
  %854 = icmp eq i64 %853, %835
  br i1 %854, label %836, label %841, !llvm.loop !158

855:                                              ; preds = %838, %836
  %856 = getelementptr inbounds %struct.MLI_ElemBlock_Struct, %struct.MLI_ElemBlock_Struct* %16, i64 0, i32 40
  %857 = icmp sgt i32 %355, 0
  br i1 %857, label %858, label %924

858:                                              ; preds = %855
  %859 = zext i32 %355 to i64
  br label %860

860:                                              ; preds = %858, %921
  %861 = phi i64 [ 0, %858 ], [ %922, %921 ]
  %862 = getelementptr inbounds i32, i32* %512, i64 %861
  %863 = load i32, i32* %862, align 4, !tbaa !90
  %864 = icmp eq i32 %863, 0
  br i1 %864, label %865, label %921

865:                                              ; preds = %860
  %866 = getelementptr inbounds i32, i32* %359, i64 %861
  %867 = getelementptr inbounds i32*, i32** %361, i64 %861
  %868 = getelementptr inbounds i32, i32* %357, i64 %861
  %869 = load i32, i32* %866, align 4, !tbaa !90
  %870 = icmp sgt i32 %869, 0
  br i1 %870, label %871, label %921

871:                                              ; preds = %865, %916
  %872 = phi i64 [ %917, %916 ], [ 0, %865 ]
  %873 = load i32*, i32** %867, align 8, !tbaa !23
  %874 = getelementptr inbounds i32, i32* %873, i64 %872
  %875 = load i32, i32* %874, align 4, !tbaa !90
  %876 = load i32, i32* %3, align 4, !tbaa !90
  %877 = icmp eq i32 %875, %876
  br i1 %877, label %916, label %878

878:                                              ; preds = %871
  %879 = call i32 @MLI_Utils_BinarySearch(i32 %875, i32* nonnull %773, i32 %766)
  %880 = load i32, i32* %868, align 4, !tbaa !90
  %881 = load %struct.MLI_ElemBlock_Struct**, %struct.MLI_ElemBlock_Struct*** %10, align 8, !tbaa !16
  %882 = load i32, i32* %12, align 8, !tbaa !17
  %883 = sext i32 %882 to i64
  %884 = getelementptr inbounds %struct.MLI_ElemBlock_Struct*, %struct.MLI_ElemBlock_Struct** %881, i64 %883
  %885 = load %struct.MLI_ElemBlock_Struct*, %struct.MLI_ElemBlock_Struct** %884, align 8, !tbaa !23
  %886 = getelementptr inbounds %struct.MLI_ElemBlock_Struct, %struct.MLI_ElemBlock_Struct* %885, i64 0, i32 26
  %887 = load i32*, i32** %886, align 8, !tbaa !56
  %888 = getelementptr inbounds %struct.MLI_ElemBlock_Struct, %struct.MLI_ElemBlock_Struct* %885, i64 0, i32 24
  %889 = load i32, i32* %888, align 4, !tbaa !71
  %890 = call i32 @MLI_Utils_BinarySearch(i32 %880, i32* %887, i32 %889)
  %891 = icmp slt i32 %890, 0
  br i1 %891, label %892, label %904

892:                                              ; preds = %878
  %893 = load i32*, i32** %886, align 8, !tbaa !56
  %894 = load i32, i32* %888, align 4, !tbaa !71
  %895 = sext i32 %894 to i64
  %896 = getelementptr inbounds i32, i32* %893, i64 %895
  %897 = getelementptr inbounds %struct.MLI_ElemBlock_Struct, %struct.MLI_ElemBlock_Struct* %885, i64 0, i32 25
  %898 = load i32, i32* %897, align 8, !tbaa !72
  %899 = call i32 @MLI_Utils_BinarySearch(i32 %880, i32* %896, i32 %898)
  %900 = icmp sgt i32 %899, -1
  br i1 %900, label %901, label %904

901:                                              ; preds = %892
  %902 = load i32, i32* %888, align 4, !tbaa !71
  %903 = add nsw i32 %902, %899
  br label %904

904:                                              ; preds = %878, %892, %901
  %905 = phi i32 [ %903, %901 ], [ %899, %892 ], [ %890, %878 ]
  %906 = load i32, i32* %856, align 8, !tbaa !75
  %907 = add nsw i32 %906, %905
  %908 = sext i32 %879 to i64
  %909 = getelementptr inbounds i32*, i32** %832, i64 %908
  %910 = load i32*, i32** %909, align 8, !tbaa !23
  %911 = getelementptr inbounds i32, i32* %786, i64 %908
  %912 = load i32, i32* %911, align 4, !tbaa !90
  %913 = add nsw i32 %912, 1
  store i32 %913, i32* %911, align 4, !tbaa !90
  %914 = sext i32 %912 to i64
  %915 = getelementptr inbounds i32, i32* %910, i64 %914
  store i32 %907, i32* %915, align 4, !tbaa !90
  br label %916

916:                                              ; preds = %871, %904
  %917 = add nuw nsw i64 %872, 1
  %918 = load i32, i32* %866, align 4, !tbaa !90
  %919 = sext i32 %918 to i64
  %920 = icmp slt i64 %917, %919
  br i1 %920, label %871, label %921, !llvm.loop !159

921:                                              ; preds = %916, %865, %860
  %922 = add nuw nsw i64 %861, 1
  %923 = icmp eq i64 %922, %859
  br i1 %923, label %924, label %860, !llvm.loop !160

924:                                              ; preds = %921, %855, %738
  %925 = phi i32 [ 0, %738 ], [ %766, %855 ], [ %766, %921 ]
  %926 = phi i32* [ null, %738 ], [ %773, %855 ], [ %773, %921 ]
  %927 = phi i32* [ null, %738 ], [ %786, %855 ], [ %786, %921 ]
  %928 = phi i32** [ null, %738 ], [ %832, %855 ], [ %832, %921 ]
  %929 = xor i1 %740, true
  %930 = icmp eq i32* %700, null
  %931 = select i1 %929, i1 true, i1 %930
  br i1 %931, label %934, label %932

932:                                              ; preds = %924
  %933 = bitcast i32* %700 to i8*
  call void @_ZdaPv(i8* %933) #20
  br label %934

934:                                              ; preds = %932, %924
  br i1 %607, label %935, label %943

935:                                              ; preds = %934
  %936 = sext i32 %606 to i64
  %937 = call { i64, i1 } @llvm.umul.with.overflow.i64(i64 %936, i64 4)
  %938 = extractvalue { i64, i1 } %937, 1
  %939 = extractvalue { i64, i1 } %937, 0
  %940 = select i1 %938, i64 -1, i64 %939
  %941 = call noalias nonnull i8* @_Znam(i64 %940) #23
  %942 = bitcast i8* %941 to i32*
  br label %943

943:                                              ; preds = %935, %934
  %944 = phi i32* [ %942, %935 ], [ undef, %934 ]
  %945 = icmp sgt i32 %606, 0
  br i1 %945, label %946, label %948

946:                                              ; preds = %943
  %947 = zext i32 %606 to i64
  br label %952

948:                                              ; preds = %952, %943
  %949 = icmp sgt i32 %925, 0
  br i1 %949, label %950, label %966

950:                                              ; preds = %948
  %951 = zext i32 %925 to i64
  br label %970

952:                                              ; preds = %946, %952
  %953 = phi i64 [ 0, %946 ], [ %964, %952 ]
  %954 = getelementptr inbounds i32*, i32** %663, i64 %953
  %955 = bitcast i32** %954 to i8**
  %956 = load i8*, i8** %955, align 8, !tbaa !23
  %957 = getelementptr inbounds i32, i32* %662, i64 %953
  %958 = load i32, i32* %957, align 4, !tbaa !90
  %959 = getelementptr inbounds i32, i32* %661, i64 %953
  %960 = load i32, i32* %959, align 4, !tbaa !90
  %961 = load i32, i32* %351, align 8, !tbaa !6
  %962 = getelementptr inbounds i32, i32* %944, i64 %953
  %963 = call i32 @MPI_Irecv(i8* %956, i32 %958, i32 1275069445, i32 %960, i32 183, i32 %961, i32* %962)
  %964 = add nuw nsw i64 %953, 1
  %965 = icmp eq i64 %964, %947
  br i1 %965, label %948, label %952, !llvm.loop !161

966:                                              ; preds = %970, %948
  %967 = icmp sgt i32 %606, 0
  br i1 %967, label %968, label %989

968:                                              ; preds = %966
  %969 = zext i32 %606 to i64
  br label %983

970:                                              ; preds = %950, %970
  %971 = phi i64 [ 0, %950 ], [ %981, %970 ]
  %972 = getelementptr inbounds i32*, i32** %928, i64 %971
  %973 = bitcast i32** %972 to i8**
  %974 = load i8*, i8** %973, align 8, !tbaa !23
  %975 = getelementptr inbounds i32, i32* %927, i64 %971
  %976 = load i32, i32* %975, align 4, !tbaa !90
  %977 = getelementptr inbounds i32, i32* %926, i64 %971
  %978 = load i32, i32* %977, align 4, !tbaa !90
  %979 = load i32, i32* %351, align 8, !tbaa !6
  %980 = call i32 @MPI_Send(i8* %974, i32 %976, i32 1275069445, i32 %978, i32 183, i32 %979)
  %981 = add nuw nsw i64 %971, 1
  %982 = icmp eq i64 %981, %951
  br i1 %982, label %966, label %970, !llvm.loop !162

983:                                              ; preds = %968, %983
  %984 = phi i64 [ 0, %968 ], [ %987, %983 ]
  %985 = getelementptr inbounds i32, i32* %944, i64 %984
  %986 = call i32 @MPI_Wait(i32* %985, %struct.MPI_Status* nonnull %5)
  %987 = add nuw nsw i64 %984, 1
  %988 = icmp eq i64 %987, %969
  br i1 %988, label %989, label %983, !llvm.loop !163

989:                                              ; preds = %983, %966
  br i1 %486, label %990, label %996

990:                                              ; preds = %989
  %991 = zext i32 %429 to i64
  %992 = shl nuw nsw i64 %991, 2
  %993 = call noalias nonnull i8* @_Znam(i64 %992) #23
  %994 = getelementptr inbounds %struct.MLI_ElemBlock_Struct, %struct.MLI_ElemBlock_Struct* %16, i64 0, i32 39
  %995 = bitcast i32** %994 to i8**
  store i8* %993, i8** %995, align 8, !tbaa !70
  br label %996

996:                                              ; preds = %990, %989
  %997 = icmp sgt i32 %606, 0
  br i1 %997, label %998, label %1001

998:                                              ; preds = %996
  %999 = zext i32 %606 to i64
  %1000 = shl nuw nsw i64 %999, 2
  call void @llvm.memset.p0i8.i64(i8* align 4 %664, i8 0, i64 %1000, i1 false)
  br label %1001

1001:                                             ; preds = %998, %996
  %1002 = getelementptr inbounds %struct.MLI_ElemBlock_Struct, %struct.MLI_ElemBlock_Struct* %16, i64 0, i32 39
  %1003 = icmp eq i32 %429, 0
  br i1 %1003, label %1024, label %1004

1004:                                             ; preds = %1001
  %1005 = zext i32 %429 to i64
  br label %1006

1006:                                             ; preds = %1004, %1006
  %1007 = phi i64 [ 0, %1004 ], [ %1022, %1006 ]
  %1008 = getelementptr inbounds i32, i32* %493, i64 %1007
  %1009 = load i32, i32* %1008, align 4, !tbaa !90
  %1010 = call i32 @MLI_Utils_BinarySearch(i32 %1009, i32* %661, i32 %606)
  %1011 = sext i32 %1010 to i64
  %1012 = getelementptr inbounds i32*, i32** %663, i64 %1011
  %1013 = load i32*, i32** %1012, align 8, !tbaa !23
  %1014 = getelementptr inbounds i32, i32* %662, i64 %1011
  %1015 = load i32, i32* %1014, align 4, !tbaa !90
  %1016 = add nsw i32 %1015, 1
  store i32 %1016, i32* %1014, align 4, !tbaa !90
  %1017 = sext i32 %1015 to i64
  %1018 = getelementptr inbounds i32, i32* %1013, i64 %1017
  %1019 = load i32, i32* %1018, align 4, !tbaa !90
  %1020 = load i32*, i32** %1002, align 8, !tbaa !70
  %1021 = getelementptr inbounds i32, i32* %1020, i64 %1007
  store i32 %1019, i32* %1021, align 4, !tbaa !90
  %1022 = add nuw nsw i64 %1007, 1
  %1023 = icmp eq i64 %1022, %1005
  br i1 %1023, label %1024, label %1006, !llvm.loop !164

1024:                                             ; preds = %1006, %1001
  %1025 = icmp eq i32* %493, null
  %1026 = select i1 %665, i1 true, i1 %1025
  br i1 %1026, label %1029, label %1027

1027:                                             ; preds = %1024
  %1028 = bitcast i32* %493 to i8*
  call void @_ZdaPv(i8* %1028) #20
  br label %1029

1029:                                             ; preds = %1027, %1024
  %1030 = xor i1 %502, true
  %1031 = icmp eq i32* %512, null
  %1032 = select i1 %1030, i1 true, i1 %1031
  br i1 %1032, label %1035, label %1033

1033:                                             ; preds = %1029
  %1034 = bitcast i32* %512 to i8*
  call void @_ZdaPv(i8* %1034) #20
  br label %1035

1035:                                             ; preds = %1033, %1029
  %1036 = xor i1 %607, true
  %1037 = icmp eq i32* %662, null
  %1038 = select i1 %1036, i1 true, i1 %1037
  br i1 %1038, label %1041, label %1039

1039:                                             ; preds = %1035
  %1040 = bitcast i32* %662 to i8*
  call void @_ZdaPv(i8* %1040) #20
  br label %1041

1041:                                             ; preds = %1039, %1035
  %1042 = icmp eq i32* %661, null
  %1043 = select i1 %1036, i1 true, i1 %1042
  br i1 %1043, label %1046, label %1044

1044:                                             ; preds = %1041
  %1045 = bitcast i32* %661 to i8*
  call void @_ZdaPv(i8* %1045) #20
  br label %1046

1046:                                             ; preds = %1044, %1041
  %1047 = icmp sgt i32 %606, 0
  br i1 %1047, label %1048, label %1060

1048:                                             ; preds = %1046
  %1049 = zext i32 %606 to i64
  br label %1050

1050:                                             ; preds = %1048, %1057
  %1051 = phi i64 [ 0, %1048 ], [ %1058, %1057 ]
  %1052 = getelementptr inbounds i32*, i32** %663, i64 %1051
  %1053 = load i32*, i32** %1052, align 8, !tbaa !23
  %1054 = icmp eq i32* %1053, null
  br i1 %1054, label %1057, label %1055

1055:                                             ; preds = %1050
  %1056 = bitcast i32* %1053 to i8*
  call void @_ZdaPv(i8* %1056) #20
  br label %1057

1057:                                             ; preds = %1050, %1055
  %1058 = add nuw nsw i64 %1051, 1
  %1059 = icmp eq i64 %1058, %1049
  br i1 %1059, label %1060, label %1050, !llvm.loop !165

1060:                                             ; preds = %1057, %1046
  %1061 = icmp eq i32** %663, null
  %1062 = select i1 %1036, i1 true, i1 %1061
  br i1 %1062, label %1065, label %1063

1063:                                             ; preds = %1060
  %1064 = bitcast i32** %663 to i8*
  call void @_ZdaPv(i8* %1064) #20
  br label %1065

1065:                                             ; preds = %1063, %1060
  %1066 = icmp slt i32 %925, 1
  %1067 = icmp eq i32* %927, null
  %1068 = select i1 %1066, i1 true, i1 %1067
  br i1 %1068, label %1071, label %1069

1069:                                             ; preds = %1065
  %1070 = bitcast i32* %927 to i8*
  call void @_ZdaPv(i8* %1070) #20
  br label %1071

1071:                                             ; preds = %1069, %1065
  %1072 = icmp eq i32* %926, null
  %1073 = select i1 %1066, i1 true, i1 %1072
  br i1 %1073, label %1076, label %1074

1074:                                             ; preds = %1071
  %1075 = bitcast i32* %926 to i8*
  call void @_ZdaPv(i8* %1075) #20
  br label %1076

1076:                                             ; preds = %1074, %1071
  %1077 = icmp sgt i32 %925, 0
  br i1 %1077, label %1078, label %1090

1078:                                             ; preds = %1076
  %1079 = zext i32 %925 to i64
  br label %1080

1080:                                             ; preds = %1078, %1087
  %1081 = phi i64 [ 0, %1078 ], [ %1088, %1087 ]
  %1082 = getelementptr inbounds i32*, i32** %928, i64 %1081
  %1083 = load i32*, i32** %1082, align 8, !tbaa !23
  %1084 = icmp eq i32* %1083, null
  br i1 %1084, label %1087, label %1085

1085:                                             ; preds = %1080
  %1086 = bitcast i32* %1083 to i8*
  call void @_ZdaPv(i8* %1086) #20
  br label %1087

1087:                                             ; preds = %1080, %1085
  %1088 = add nuw nsw i64 %1081, 1
  %1089 = icmp eq i64 %1088, %1079
  br i1 %1089, label %1090, label %1080, !llvm.loop !166

1090:                                             ; preds = %1087, %1076
  %1091 = icmp eq i32** %928, null
  %1092 = select i1 %1066, i1 true, i1 %1091
  br i1 %1092, label %1095, label %1093

1093:                                             ; preds = %1090
  %1094 = bitcast i32** %928 to i8*
  call void @_ZdaPv(i8* %1094) #20
  br label %1095

1095:                                             ; preds = %1093, %1090
  %1096 = icmp eq i32* %944, null
  %1097 = select i1 %1036, i1 true, i1 %1096
  br i1 %1097, label %1100, label %1098

1098:                                             ; preds = %1095
  %1099 = bitcast i32* %944 to i8*
  call void @_ZdaPv(i8* %1099) #20
  br label %1100

1100:                                             ; preds = %1098, %1095
  %1101 = load double*, double** %187, align 8, !tbaa !58
  %1102 = icmp eq double* %1101, null
  br i1 %1102, label %1170, label %1103

1103:                                             ; preds = %1100
  %1104 = load i32*, i32** %439, align 8, !tbaa !56
  %1105 = load i32, i32* %184, align 8, !tbaa !12
  %1106 = mul nsw i32 %1105, %327
  %1107 = sext i32 %1106 to i64
  %1108 = call { i64, i1 } @llvm.umul.with.overflow.i64(i64 %1107, i64 8)
  %1109 = extractvalue { i64, i1 } %1108, 1
  %1110 = extractvalue { i64, i1 } %1108, 0
  %1111 = select i1 %1109, i64 -1, i64 %1110
  %1112 = call noalias nonnull i8* @_Znam(i64 %1111) #23
  %1113 = bitcast i8* %1112 to double*
  %1114 = sext i32 %431 to i64
  %1115 = getelementptr inbounds i32, i32* %1104, i64 %1114
  %1116 = sub i32 %327, %429
  %1117 = icmp sgt i32 %18, 0
  br i1 %1117, label %1118, label %1167

1118:                                             ; preds = %1103
  %1119 = zext i32 %18 to i64
  br label %1120

1120:                                             ; preds = %1118, %1164
  %1121 = phi i64 [ 0, %1118 ], [ %1165, %1164 ]
  %1122 = trunc i64 %1121 to i32
  %1123 = mul nsw i32 %280, %1122
  %1124 = load i32, i32* %108, align 8, !tbaa !51
  %1125 = icmp sgt i32 %1124, 0
  br i1 %1125, label %1126, label %1164

1126:                                             ; preds = %1120, %1159
  %1127 = phi i64 [ %1160, %1159 ], [ 0, %1120 ]
  %1128 = load i32**, i32*** %177, align 8, !tbaa !28
  %1129 = getelementptr inbounds i32*, i32** %1128, i64 %1121
  %1130 = load i32*, i32** %1129, align 8, !tbaa !23
  %1131 = getelementptr inbounds i32, i32* %1130, i64 %1127
  %1132 = load i32, i32* %1131, align 4, !tbaa !90
  %1133 = call i32 @MLI_Utils_BinarySearch(i32 %1132, i32* %1104, i32 %431)
  %1134 = icmp slt i32 %1133, 0
  br i1 %1134, label %1135, label %1138

1135:                                             ; preds = %1126
  %1136 = call i32 @MLI_Utils_BinarySearch(i32 %1132, i32* %1115, i32 %429)
  %1137 = add i32 %1116, %1136
  br label %1138

1138:                                             ; preds = %1135, %1126
  %1139 = phi i32 [ %1137, %1135 ], [ %1133, %1126 ]
  %1140 = load i32, i32* %184, align 8, !tbaa !12
  %1141 = icmp sgt i32 %1140, 0
  br i1 %1141, label %1142, label %1159

1142:                                             ; preds = %1138
  %1143 = mul nsw i32 %1140, %1139
  %1144 = trunc i64 %1127 to i32
  %1145 = add nsw i32 %1123, %1144
  %1146 = mul nsw i32 %1140, %1145
  %1147 = sext i32 %1146 to i64
  %1148 = sext i32 %1143 to i64
  %1149 = zext i32 %1140 to i64
  br label %1150

1150:                                             ; preds = %1142, %1150
  %1151 = phi i64 [ 0, %1142 ], [ %1157, %1150 ]
  %1152 = add nsw i64 %1151, %1147
  %1153 = getelementptr inbounds double, double* %1101, i64 %1152
  %1154 = load double, double* %1153, align 8, !tbaa !99
  %1155 = add nsw i64 %1151, %1148
  %1156 = getelementptr inbounds double, double* %1113, i64 %1155
  store double %1154, double* %1156, align 8, !tbaa !99
  %1157 = add nuw nsw i64 %1151, 1
  %1158 = icmp eq i64 %1157, %1149
  br i1 %1158, label %1159, label %1150, !llvm.loop !167

1159:                                             ; preds = %1150, %1138
  %1160 = add nuw nsw i64 %1127, 1
  %1161 = load i32, i32* %108, align 8, !tbaa !51
  %1162 = sext i32 %1161 to i64
  %1163 = icmp slt i64 %1160, %1162
  br i1 %1163, label %1126, label %1164, !llvm.loop !168

1164:                                             ; preds = %1159, %1120
  %1165 = add nuw nsw i64 %1121, 1
  %1166 = icmp eq i64 %1165, %1119
  br i1 %1166, label %1167, label %1120, !llvm.loop !169

1167:                                             ; preds = %1164, %1103
  %1168 = bitcast double* %1101 to i8*
  call void @_ZdaPv(i8* %1168) #20
  %1169 = bitcast double** %187 to i8**
  store i8* %1112, i8** %1169, align 8, !tbaa !58
  br label %1170

1170:                                             ; preds = %1167, %1100
  %1171 = getelementptr inbounds %struct.MLI_ElemBlock_Struct, %struct.MLI_ElemBlock_Struct* %16, i64 0, i32 18
  %1172 = load i32**, i32*** %1171, align 8, !tbaa !42
  %1173 = icmp eq i32** %1172, null
  br i1 %1173, label %1261, label %1174

1174:                                             ; preds = %1170
  %1175 = getelementptr inbounds %struct.MLI_ElemBlock_Struct, %struct.MLI_ElemBlock_Struct* %16, i64 0, i32 17
  %1176 = load i32, i32* %1175, align 8, !tbaa !53
  %1177 = mul nsw i32 %1176, %18
  %1178 = sext i32 %1177 to i64
  %1179 = call { i64, i1 } @llvm.umul.with.overflow.i64(i64 %1178, i64 4)
  %1180 = extractvalue { i64, i1 } %1179, 1
  %1181 = extractvalue { i64, i1 } %1179, 0
  %1182 = select i1 %1180, i64 -1, i64 %1181
  %1183 = call noalias nonnull i8* @_Znam(i64 %1182) #23
  %1184 = bitcast i8* %1183 to i32*
  %1185 = icmp sgt i32 %1176, 0
  %1186 = icmp sgt i32 %18, 0
  br i1 %1186, label %1187, label %1212

1187:                                             ; preds = %1174
  %1188 = zext i32 %18 to i64
  %1189 = zext i32 %1176 to i64
  br label %1190

1190:                                             ; preds = %1187, %1208
  %1191 = phi i64 [ 0, %1187 ], [ %1210, %1208 ]
  %1192 = phi i32 [ 0, %1187 ], [ %1209, %1208 ]
  br i1 %1185, label %1193, label %1208

1193:                                             ; preds = %1190
  %1194 = getelementptr inbounds i32*, i32** %1172, i64 %1191
  %1195 = load i32*, i32** %1194, align 8, !tbaa !23
  %1196 = sext i32 %1192 to i64
  br label %1197

1197:                                             ; preds = %1193, %1197
  %1198 = phi i64 [ %1196, %1193 ], [ %1202, %1197 ]
  %1199 = phi i64 [ 0, %1193 ], [ %1204, %1197 ]
  %1200 = getelementptr inbounds i32, i32* %1195, i64 %1199
  %1201 = load i32, i32* %1200, align 4, !tbaa !90
  %1202 = add nsw i64 %1198, 1
  %1203 = getelementptr inbounds i32, i32* %1184, i64 %1198
  store i32 %1201, i32* %1203, align 4, !tbaa !90
  %1204 = add nuw nsw i64 %1199, 1
  %1205 = icmp eq i64 %1204, %1189
  br i1 %1205, label %1206, label %1197, !llvm.loop !170

1206:                                             ; preds = %1197
  %1207 = trunc i64 %1202 to i32
  br label %1208

1208:                                             ; preds = %1206, %1190
  %1209 = phi i32 [ %1192, %1190 ], [ %1207, %1206 ]
  %1210 = add nuw nsw i64 %1191, 1
  %1211 = icmp eq i64 %1210, %1188
  br i1 %1211, label %1212, label %1190, !llvm.loop !171

1212:                                             ; preds = %1208, %1174
  %1213 = add nsw i32 %1177, -1
  %1214 = call i32 @MLI_Utils_IntQSort2(i32* nonnull %1184, i32* null, i32 0, i32 %1213)
  %1215 = icmp sgt i32 %1177, 1
  br i1 %1215, label %1216, label %1236

1216:                                             ; preds = %1212
  %1217 = mul i32 %1176, %18
  %1218 = zext i32 %1217 to i64
  br label %1219

1219:                                             ; preds = %1216, %1232
  %1220 = phi i64 [ 1, %1216 ], [ %1234, %1232 ]
  %1221 = phi i32 [ 1, %1216 ], [ %1233, %1232 ]
  %1222 = getelementptr inbounds i32, i32* %1184, i64 %1220
  %1223 = load i32, i32* %1222, align 4, !tbaa !90
  %1224 = add nsw i64 %1220, -1
  %1225 = getelementptr inbounds i32, i32* %1184, i64 %1224
  %1226 = load i32, i32* %1225, align 4, !tbaa !90
  %1227 = icmp eq i32 %1223, %1226
  br i1 %1227, label %1232, label %1228

1228:                                             ; preds = %1219
  %1229 = add nsw i32 %1221, 1
  %1230 = sext i32 %1221 to i64
  %1231 = getelementptr inbounds i32, i32* %1184, i64 %1230
  store i32 %1223, i32* %1231, align 4, !tbaa !90
  br label %1232

1232:                                             ; preds = %1219, %1228
  %1233 = phi i32 [ %1229, %1228 ], [ %1221, %1219 ]
  %1234 = add nuw nsw i64 %1220, 1
  %1235 = icmp eq i64 %1234, %1218
  br i1 %1235, label %1236, label %1219, !llvm.loop !172

1236:                                             ; preds = %1232, %1212
  %1237 = phi i32 [ 1, %1212 ], [ %1233, %1232 ]
  %1238 = getelementptr inbounds %struct.MLI_ElemBlock_Struct, %struct.MLI_ElemBlock_Struct* %16, i64 0, i32 41
  %1239 = load i32, i32* %1238, align 4, !tbaa !78
  %1240 = icmp eq i32 %1237, %1239
  br i1 %1240, label %1254, label %1241

1241:                                             ; preds = %1236
  %1242 = getelementptr inbounds %struct.MLI_ElemBlock_Struct, %struct.MLI_ElemBlock_Struct* %16, i64 0, i32 43
  %1243 = load i32*, i32** %1242, align 8, !tbaa !76
  %1244 = icmp eq i32* %1243, null
  br i1 %1244, label %1245, label %1247

1245:                                             ; preds = %1241
  %1246 = call i32 @puts(i8* nonnull dereferenceable(1) getelementptr inbounds ([49 x i8], [49 x i8]* @str.274, i64 0, i64 0))
  br label %1261

1247:                                             ; preds = %1241
  br i1 %1240, label %1254, label %1248

1248:                                             ; preds = %1247
  %1249 = getelementptr inbounds %struct.MLI_ElemBlock_Struct, %struct.MLI_ElemBlock_Struct* %16, i64 0, i32 43
  %1250 = load i32*, i32** %1249, align 8, !tbaa !76
  %1251 = icmp eq i32* %1250, null
  br i1 %1251, label %1254, label %1252

1252:                                             ; preds = %1248
  %1253 = call i32 @puts(i8* nonnull dereferenceable(1) getelementptr inbounds ([51 x i8], [51 x i8]* @str.273, i64 0, i64 0))
  call void @exit(i32 1) #22
  unreachable

1254:                                             ; preds = %1236, %1248, %1247
  %1255 = getelementptr inbounds %struct.MLI_ElemBlock_Struct, %struct.MLI_ElemBlock_Struct* %16, i64 0, i32 43
  %1256 = load i32*, i32** %1255, align 8, !tbaa !76
  %1257 = icmp eq i32* %1256, null
  br i1 %1257, label %1260, label %1258

1258:                                             ; preds = %1254
  %1259 = bitcast i32* %1256 to i8*
  call void @_ZdaPv(i8* %1259) #20
  br label %1260

1260:                                             ; preds = %1258, %1254
  store i32* null, i32** %1255, align 8, !tbaa !76
  br label %1261

1261:                                             ; preds = %1245, %1260, %1170
  %1262 = phi i32* [ %1184, %1245 ], [ %1184, %1260 ], [ undef, %1170 ]
  %1263 = phi i32 [ %1237, %1245 ], [ %1237, %1260 ], [ undef, %1170 ]
  %1264 = load i32**, i32*** %1171, align 8, !tbaa !42
  %1265 = icmp eq i32** %1264, null
  br i1 %1265, label %1369, label %1266

1266:                                             ; preds = %1261
  %1267 = getelementptr inbounds %struct.MLI_ElemBlock_Struct, %struct.MLI_ElemBlock_Struct* %16, i64 0, i32 46
  %1268 = load i32, i32* %1267, align 8, !tbaa !84
  %1269 = icmp sgt i32 %1268, 0
  br i1 %1269, label %1270, label %1369

1270:                                             ; preds = %1266
  %1271 = getelementptr inbounds %struct.MLI_ElemBlock_Struct, %struct.MLI_ElemBlock_Struct* %16, i64 0, i32 47
  %1272 = load i32*, i32** %1271, align 8, !tbaa !81
  %1273 = getelementptr inbounds %struct.MLI_ElemBlock_Struct, %struct.MLI_ElemBlock_Struct* %16, i64 0, i32 48
  %1274 = load i32*, i32** %1273, align 8, !tbaa !82
  %1275 = getelementptr inbounds %struct.MLI_ElemBlock_Struct, %struct.MLI_ElemBlock_Struct* %16, i64 0, i32 49
  %1276 = load i32**, i32*** %1275, align 8, !tbaa !83
  %1277 = zext i32 %1268 to i64
  br label %1278

1278:                                             ; preds = %1270, %1310
  %1279 = phi i64 [ 0, %1270 ], [ %1312, %1310 ]
  %1280 = phi i32 [ 0, %1270 ], [ %1311, %1310 ]
  %1281 = getelementptr inbounds i32, i32* %1274, i64 %1279
  %1282 = load i32, i32* %1281, align 4, !tbaa !90
  %1283 = load i32, i32* %3, align 4
  %1284 = icmp sgt i32 %1282, 0
  br i1 %1284, label %1285, label %1310

1285:                                             ; preds = %1278
  %1286 = getelementptr inbounds i32*, i32** %1276, i64 %1279
  %1287 = load i32*, i32** %1286, align 8, !tbaa !23
  %1288 = zext i32 %1282 to i64
  br label %1291

1289:                                             ; preds = %1291
  %1290 = icmp eq i64 %1296, %1288
  br i1 %1290, label %1310, label %1291, !llvm.loop !173

1291:                                             ; preds = %1285, %1289
  %1292 = phi i64 [ 0, %1285 ], [ %1296, %1289 ]
  %1293 = getelementptr inbounds i32, i32* %1287, i64 %1292
  %1294 = load i32, i32* %1293, align 4, !tbaa !90
  %1295 = icmp slt i32 %1294, %1283
  %1296 = add nuw nsw i64 %1292, 1
  br i1 %1295, label %1297, label %1289

1297:                                             ; preds = %1291
  %1298 = getelementptr inbounds i32, i32* %1272, i64 %1279
  %1299 = load i32, i32* %1298, align 4, !tbaa !90
  %1300 = call i32 @MLI_Utils_BinarySearch(i32 %1299, i32* %1262, i32 %1263)
  %1301 = icmp slt i32 %1300, 0
  br i1 %1301, label %1302, label %1304

1302:                                             ; preds = %1297
  %1303 = call i32 @puts(i8* nonnull dereferenceable(1) getelementptr inbounds ([50 x i8], [50 x i8]* @str.276, i64 0, i64 0))
  call void @exit(i32 1) #22
  unreachable

1304:                                             ; preds = %1297
  %1305 = add nsw i32 %1280, 1
  %1306 = sext i32 %1300 to i64
  %1307 = getelementptr inbounds i32, i32* %1262, i64 %1306
  %1308 = load i32, i32* %1307, align 4, !tbaa !90
  %1309 = sub nsw i32 0, %1308
  store i32 %1309, i32* %1307, align 4, !tbaa !90
  br label %1310

1310:                                             ; preds = %1289, %1278, %1304
  %1311 = phi i32 [ %1305, %1304 ], [ %1280, %1278 ], [ %1280, %1289 ]
  %1312 = add nuw nsw i64 %1279, 1
  %1313 = icmp eq i64 %1312, %1277
  br i1 %1313, label %1314, label %1278, !llvm.loop !174

1314:                                             ; preds = %1310
  %1315 = getelementptr inbounds %struct.MLI_ElemBlock_Struct, %struct.MLI_ElemBlock_Struct* %16, i64 0, i32 42
  store i32 %1311, i32* %1315, align 8, !tbaa !79
  %1316 = sub nsw i32 %1263, %1311
  %1317 = getelementptr inbounds %struct.MLI_ElemBlock_Struct, %struct.MLI_ElemBlock_Struct* %16, i64 0, i32 41
  store i32 %1316, i32* %1317, align 4, !tbaa !78
  %1318 = sext i32 %1263 to i64
  %1319 = call { i64, i1 } @llvm.umul.with.overflow.i64(i64 %1318, i64 4)
  %1320 = extractvalue { i64, i1 } %1319, 1
  %1321 = extractvalue { i64, i1 } %1319, 0
  %1322 = select i1 %1320, i64 -1, i64 %1321
  %1323 = call noalias nonnull i8* @_Znam(i64 %1322) #23
  %1324 = getelementptr inbounds %struct.MLI_ElemBlock_Struct, %struct.MLI_ElemBlock_Struct* %16, i64 0, i32 43
  %1325 = bitcast i32** %1324 to i8**
  store i8* %1323, i8** %1325, align 8, !tbaa !76
  %1326 = icmp sgt i32 %1263, 0
  br i1 %1326, label %1327, label %1329

1327:                                             ; preds = %1314
  %1328 = zext i32 %1263 to i64
  br label %1334

1329:                                             ; preds = %1345, %1314
  %1330 = phi i32 [ 0, %1314 ], [ %1346, %1345 ]
  %1331 = icmp sgt i32 %1263, 0
  br i1 %1331, label %1332, label %1365

1332:                                             ; preds = %1329
  %1333 = zext i32 %1263 to i64
  br label %1349

1334:                                             ; preds = %1327, %1345
  %1335 = phi i64 [ 0, %1327 ], [ %1347, %1345 ]
  %1336 = phi i32 [ 0, %1327 ], [ %1346, %1345 ]
  %1337 = getelementptr inbounds i32, i32* %1262, i64 %1335
  %1338 = load i32, i32* %1337, align 4, !tbaa !90
  %1339 = icmp sgt i32 %1338, -1
  br i1 %1339, label %1340, label %1345

1340:                                             ; preds = %1334
  %1341 = load i32*, i32** %1324, align 8, !tbaa !76
  %1342 = add nsw i32 %1336, 1
  %1343 = sext i32 %1336 to i64
  %1344 = getelementptr inbounds i32, i32* %1341, i64 %1343
  store i32 %1338, i32* %1344, align 4, !tbaa !90
  br label %1345

1345:                                             ; preds = %1334, %1340
  %1346 = phi i32 [ %1342, %1340 ], [ %1336, %1334 ]
  %1347 = add nuw nsw i64 %1335, 1
  %1348 = icmp eq i64 %1347, %1328
  br i1 %1348, label %1329, label %1334, !llvm.loop !175

1349:                                             ; preds = %1332, %1361
  %1350 = phi i64 [ 0, %1332 ], [ %1363, %1361 ]
  %1351 = phi i32 [ %1330, %1332 ], [ %1362, %1361 ]
  %1352 = getelementptr inbounds i32, i32* %1262, i64 %1350
  %1353 = load i32, i32* %1352, align 4, !tbaa !90
  %1354 = icmp slt i32 %1353, 0
  br i1 %1354, label %1355, label %1361

1355:                                             ; preds = %1349
  %1356 = sub nsw i32 0, %1353
  %1357 = load i32*, i32** %1324, align 8, !tbaa !76
  %1358 = add nsw i32 %1351, 1
  %1359 = sext i32 %1351 to i64
  %1360 = getelementptr inbounds i32, i32* %1357, i64 %1359
  store i32 %1356, i32* %1360, align 4, !tbaa !90
  br label %1361

1361:                                             ; preds = %1349, %1355
  %1362 = phi i32 [ %1358, %1355 ], [ %1351, %1349 ]
  %1363 = add nuw nsw i64 %1350, 1
  %1364 = icmp eq i64 %1363, %1333
  br i1 %1364, label %1365, label %1349, !llvm.loop !176

1365:                                             ; preds = %1361, %1329
  %1366 = icmp eq i32* %1262, null
  br i1 %1366, label %1369, label %1367

1367:                                             ; preds = %1365
  %1368 = bitcast i32* %1262 to i8*
  call void @_ZdaPv(i8* %1368) #20
  br label %1369

1369:                                             ; preds = %1365, %1367, %1266, %1261
  %1370 = load i32, i32* %351, align 8, !tbaa !6
  %1371 = call i32 @MPI_Comm_size(i32 %1370, i32* nonnull %2)
  %1372 = load i32, i32* %2, align 4, !tbaa !90
  %1373 = sext i32 %1372 to i64
  %1374 = call { i64, i1 } @llvm.umul.with.overflow.i64(i64 %1373, i64 4)
  %1375 = extractvalue { i64, i1 } %1374, 1
  %1376 = extractvalue { i64, i1 } %1374, 0
  %1377 = select i1 %1375, i64 -1, i64 %1376
  %1378 = call noalias nonnull i8* @_Znam(i64 %1377) #23
  %1379 = bitcast i8* %1378 to i32*
  %1380 = call noalias nonnull i8* @_Znam(i64 %1377) #23
  %1381 = bitcast i8* %1380 to i32*
  %1382 = icmp sgt i32 %1372, 0
  br i1 %1382, label %1383, label %1386

1383:                                             ; preds = %1369
  %1384 = zext i32 %1372 to i64
  %1385 = shl nuw nsw i64 %1384, 2
  call void @llvm.memset.p0i8.i64(i8* nonnull align 4 %1380, i8 0, i64 %1385, i1 false)
  br label %1386

1386:                                             ; preds = %1383, %1369
  %1387 = load i32, i32* %17, align 8, !tbaa !29
  %1388 = load i32, i32* %3, align 4, !tbaa !90
  %1389 = sext i32 %1388 to i64
  %1390 = getelementptr inbounds i32, i32* %1381, i64 %1389
  store i32 %1387, i32* %1390, align 4, !tbaa !90
  %1391 = load i32, i32* %351, align 8, !tbaa !6
  %1392 = call i32 @MPI_Allreduce(i8* nonnull %1380, i8* nonnull %1378, i32 %1372, i32 1275069445, i32 1476395011, i32 %1391)
  %1393 = getelementptr inbounds %struct.MLI_ElemBlock_Struct, %struct.MLI_ElemBlock_Struct* %16, i64 0, i32 23
  store i32 0, i32* %1393, align 8, !tbaa !55
  %1394 = load i32, i32* %3, align 4, !tbaa !90
  %1395 = icmp sgt i32 %1394, 0
  br i1 %1395, label %1396, label %1406

1396:                                             ; preds = %1386
  %1397 = zext i32 %1394 to i64
  br label %1398

1398:                                             ; preds = %1396, %1398
  %1399 = phi i64 [ 0, %1396 ], [ %1404, %1398 ]
  %1400 = getelementptr inbounds i32, i32* %1379, i64 %1399
  %1401 = load i32, i32* %1400, align 4, !tbaa !90
  %1402 = load i32, i32* %1393, align 8, !tbaa !55
  %1403 = add nsw i32 %1402, %1401
  store i32 %1403, i32* %1393, align 8, !tbaa !55
  %1404 = add nuw nsw i64 %1399, 1
  %1405 = icmp eq i64 %1404, %1397
  br i1 %1405, label %1406, label %1398, !llvm.loop !177

1406:                                             ; preds = %1398, %1386
  %1407 = load i32, i32* %432, align 4, !tbaa !71
  %1408 = load i32, i32* %430, align 8, !tbaa !72
  %1409 = sub nsw i32 %1407, %1408
  %1410 = sext i32 %1394 to i64
  %1411 = getelementptr inbounds i32, i32* %1381, i64 %1410
  store i32 %1409, i32* %1411, align 4, !tbaa !90
  %1412 = load i32, i32* %2, align 4, !tbaa !90
  %1413 = load i32, i32* %351, align 8, !tbaa !6
  %1414 = call i32 @MPI_Allreduce(i8* nonnull %1380, i8* nonnull %1378, i32 %1412, i32 1275069445, i32 1476395011, i32 %1413)
  %1415 = getelementptr inbounds %struct.MLI_ElemBlock_Struct, %struct.MLI_ElemBlock_Struct* %16, i64 0, i32 40
  store i32 0, i32* %1415, align 8, !tbaa !75
  %1416 = load i32, i32* %3, align 4, !tbaa !90
  %1417 = icmp sgt i32 %1416, 0
  br i1 %1417, label %1418, label %1428

1418:                                             ; preds = %1406
  %1419 = zext i32 %1416 to i64
  br label %1420

1420:                                             ; preds = %1418, %1420
  %1421 = phi i64 [ 0, %1418 ], [ %1426, %1420 ]
  %1422 = getelementptr inbounds i32, i32* %1379, i64 %1421
  %1423 = load i32, i32* %1422, align 4, !tbaa !90
  %1424 = load i32, i32* %1415, align 8, !tbaa !75
  %1425 = add nsw i32 %1424, %1423
  store i32 %1425, i32* %1415, align 8, !tbaa !75
  %1426 = add nuw nsw i64 %1421, 1
  %1427 = icmp eq i64 %1426, %1419
  br i1 %1427, label %1428, label %1420, !llvm.loop !178

1428:                                             ; preds = %1420, %1406
  %1429 = getelementptr inbounds %struct.MLI_ElemBlock_Struct, %struct.MLI_ElemBlock_Struct* %16, i64 0, i32 41
  %1430 = load i32, i32* %1429, align 4, !tbaa !78
  %1431 = getelementptr inbounds %struct.MLI_ElemBlock_Struct, %struct.MLI_ElemBlock_Struct* %16, i64 0, i32 42
  %1432 = load i32, i32* %1431, align 8, !tbaa !79
  %1433 = sub nsw i32 %1430, %1432
  %1434 = sext i32 %1416 to i64
  %1435 = getelementptr inbounds i32, i32* %1381, i64 %1434
  store i32 %1433, i32* %1435, align 4, !tbaa !90
  %1436 = load i32, i32* %2, align 4, !tbaa !90
  %1437 = load i32, i32* %351, align 8, !tbaa !6
  %1438 = call i32 @MPI_Allreduce(i8* nonnull %1380, i8* nonnull %1378, i32 %1436, i32 1275069445, i32 1476395011, i32 %1437)
  %1439 = getelementptr inbounds %struct.MLI_ElemBlock_Struct, %struct.MLI_ElemBlock_Struct* %16, i64 0, i32 51
  store i32 0, i32* %1439, align 8, !tbaa !88
  %1440 = load i32, i32* %3, align 4, !tbaa !90
  %1441 = icmp sgt i32 %1440, 0
  br i1 %1441, label %1442, label %1452

1442:                                             ; preds = %1428
  %1443 = zext i32 %1440 to i64
  br label %1444

1444:                                             ; preds = %1442, %1444
  %1445 = phi i64 [ 0, %1442 ], [ %1450, %1444 ]
  %1446 = getelementptr inbounds i32, i32* %1379, i64 %1445
  %1447 = load i32, i32* %1446, align 4, !tbaa !90
  %1448 = load i32, i32* %1439, align 8, !tbaa !88
  %1449 = add nsw i32 %1448, %1447
  store i32 %1449, i32* %1439, align 8, !tbaa !88
  %1450 = add nuw nsw i64 %1445, 1
  %1451 = icmp eq i64 %1450, %1443
  br i1 %1451, label %1452, label %1444, !llvm.loop !179

1452:                                             ; preds = %1444, %1428
  call void @_ZdaPv(i8* %1378) #20
  call void @_ZdaPv(i8* %1380) #20
  %1453 = getelementptr inbounds %struct.MLI_ElemBlock_Struct, %struct.MLI_ElemBlock_Struct* %16, i64 0, i32 52
  store i32 1, i32* %1453, align 4, !tbaa !89
  call void @llvm.lifetime.end.p0i8(i64 20, i8* nonnull %9) #21
  call void @llvm.lifetime.end.p0i8(i64 4, i8* nonnull %8) #21
  call void @llvm.lifetime.end.p0i8(i64 4, i8* nonnull %7) #21
  call void @llvm.lifetime.end.p0i8(i64 4, i8* nonnull %6) #21
  ret i32 1
}

declare dso_local i32 @MPI_Comm_size(i32, i32*) local_unnamed_addr #1

; Function Attrs: mustprogress uwtable
define dso_local i32 @_ZN10MLI_FEData10searchNodeEi(%class.MLI_FEData* nocapture nonnull readonly align 8 dereferenceable(88) %0, i32 %1) local_unnamed_addr #10 align 2 {
  %3 = getelementptr inbounds %class.MLI_FEData, %class.MLI_FEData* %0, i64 0, i32 7
  %4 = load %struct.MLI_ElemBlock_Struct**, %struct.MLI_ElemBlock_Struct*** %3, align 8, !tbaa !16
  %5 = getelementptr inbounds %class.MLI_FEData, %class.MLI_FEData* %0, i64 0, i32 8
  %6 = load i32, i32* %5, align 8, !tbaa !17
  %7 = sext i32 %6 to i64
  %8 = getelementptr inbounds %struct.MLI_ElemBlock_Struct*, %struct.MLI_ElemBlock_Struct** %4, i64 %7
  %9 = load %struct.MLI_ElemBlock_Struct*, %struct.MLI_ElemBlock_Struct** %8, align 8, !tbaa !23
  %10 = getelementptr inbounds %struct.MLI_ElemBlock_Struct, %struct.MLI_ElemBlock_Struct* %9, i64 0, i32 26
  %11 = load i32*, i32** %10, align 8, !tbaa !56
  %12 = getelementptr inbounds %struct.MLI_ElemBlock_Struct, %struct.MLI_ElemBlock_Struct* %9, i64 0, i32 24
  %13 = load i32, i32* %12, align 4, !tbaa !71
  %14 = call i32 @MLI_Utils_BinarySearch(i32 %1, i32* %11, i32 %13)
  %15 = icmp slt i32 %14, 0
  br i1 %15, label %16, label %28

16:                                               ; preds = %2
  %17 = load i32*, i32** %10, align 8, !tbaa !56
  %18 = load i32, i32* %12, align 4, !tbaa !71
  %19 = sext i32 %18 to i64
  %20 = getelementptr inbounds i32, i32* %17, i64 %19
  %21 = getelementptr inbounds %struct.MLI_ElemBlock_Struct, %struct.MLI_ElemBlock_Struct* %9, i64 0, i32 25
  %22 = load i32, i32* %21, align 8, !tbaa !72
  %23 = call i32 @MLI_Utils_BinarySearch(i32 %1, i32* %20, i32 %22)
  %24 = icmp sgt i32 %23, -1
  br i1 %24, label %25, label %28

25:                                               ; preds = %16
  %26 = load i32, i32* %12, align 4, !tbaa !71
  %27 = add nsw i32 %26, %23
  br label %28

28:                                               ; preds = %16, %25, %2
  %29 = phi i32 [ %27, %25 ], [ %23, %16 ], [ %14, %2 ]
  ret i32 %29
}

declare dso_local i32 @MPI_Irecv(i8*, i32, i32, i32, i32, i32, i32*) local_unnamed_addr #1

declare dso_local i32 @MPI_Send(i8*, i32, i32, i32, i32, i32) local_unnamed_addr #1

declare dso_local i32 @MPI_Wait(i32*, %struct.MPI_Status*) local_unnamed_addr #1

declare dso_local i32 @MPI_Allreduce(i8*, i8*, i32, i32, i32, i32) local_unnamed_addr #1

; Function Attrs: mustprogress uwtable
define dso_local i32 @_ZN10MLI_FEData21loadElemBlockMatricesEiiPKPKd(%class.MLI_FEData* nocapture nonnull readonly align 8 dereferenceable(88) %0, i32 %1, i32 %2, double** nocapture readonly %3) unnamed_addr #10 align 2 {
  %5 = getelementptr inbounds %class.MLI_FEData, %class.MLI_FEData* %0, i64 0, i32 7
  %6 = load %struct.MLI_ElemBlock_Struct**, %struct.MLI_ElemBlock_Struct*** %5, align 8, !tbaa !16
  %7 = getelementptr inbounds %class.MLI_FEData, %class.MLI_FEData* %0, i64 0, i32 8
  %8 = load i32, i32* %7, align 8, !tbaa !17
  %9 = sext i32 %8 to i64
  %10 = getelementptr inbounds %struct.MLI_ElemBlock_Struct*, %struct.MLI_ElemBlock_Struct** %6, i64 %9
  %11 = load %struct.MLI_ElemBlock_Struct*, %struct.MLI_ElemBlock_Struct** %10, align 8, !tbaa !23
  %12 = getelementptr inbounds %struct.MLI_ElemBlock_Struct, %struct.MLI_ElemBlock_Struct* %11, i64 0, i32 0
  %13 = load i32, i32* %12, align 8, !tbaa !29
  %14 = icmp eq i32 %13, %1
  br i1 %14, label %17, label %15

15:                                               ; preds = %4
  %16 = call i32 @puts(i8* nonnull dereferenceable(1) getelementptr inbounds ([47 x i8], [47 x i8]* @str.283, i64 0, i64 0))
  call void @exit(i32 1) #22
  unreachable

17:                                               ; preds = %4
  %18 = getelementptr inbounds %struct.MLI_ElemBlock_Struct, %struct.MLI_ElemBlock_Struct* %11, i64 0, i32 52
  %19 = load i32, i32* %18, align 4, !tbaa !89
  %20 = icmp eq i32 %19, 0
  br i1 %20, label %21, label %23

21:                                               ; preds = %17
  %22 = call i32 @puts(i8* nonnull dereferenceable(1) getelementptr inbounds ([60 x i8], [60 x i8]* @str.281, i64 0, i64 0))
  call void @exit(i32 1) #22
  unreachable

23:                                               ; preds = %17
  %24 = add i32 %2, -1
  %25 = icmp ugt i32 %24, 199
  br i1 %25, label %26, label %28

26:                                               ; preds = %23
  %27 = call i32 @puts(i8* nonnull dereferenceable(1) getelementptr inbounds ([47 x i8], [47 x i8]* @str.282, i64 0, i64 0))
  call void @exit(i32 1) #22
  unreachable

28:                                               ; preds = %23
  %29 = getelementptr inbounds %struct.MLI_ElemBlock_Struct, %struct.MLI_ElemBlock_Struct* %11, i64 0, i32 8
  store i32 %2, i32* %29, align 4, !tbaa !52
