; ModuleID = '/hypre/src/FEI_mv/fei-hypre/LLNL_FEI_Matrix.cxx'
source_filename = "/hypre/src/FEI_mv/fei-hypre/LLNL_FEI_Matrix.cxx"
target datalayout = "e-m:e-p270:32:32-p271:32:32-p272:64:64-i64:64-f80:128-n8:16:32:64-S128"
target triple = "x86_64-unknown-linux-gnu"

%class.LLNL_FEI_Matrix = type { i32, i32, i32, i32, i32, i32, i32*, i32*, i32*, i32*, i32*, i32*, double*, i32*, i32*, double*, double*, i32, i32*, i32*, i32*, double*, double*, i32, i32*, i32*, i32*, double*, i32*, i32, i32 }
%struct.MPI_Status = type { i32, i32, i32, i32, i32 }
%struct._IO_FILE = type { i32, i8*, i8*, i8*, i8*, i8*, i8*, i8*, i8*, i8*, i8*, i8*, %struct._IO_marker*, %struct._IO_FILE*, i32, i32, i64, i16, i8, [1 x i8], i8*, i64, %struct._IO_codecvt*, %struct._IO_wide_data*, %struct._IO_FILE*, i8*, i64, i32, [20 x i8] }
%struct._IO_marker = type opaque
%struct._IO_codecvt = type opaque
%struct._IO_wide_data = type opaque

@.str = private unnamed_addr constant [3 x i8] c"%s\00", align 1
@.str.1 = private unnamed_addr constant [12 x i8] c"outputLevel\00", align 1
@.str.2 = private unnamed_addr constant [6 x i8] c"%s %d\00", align 1
@.str.3 = private unnamed_addr constant [9 x i8] c"setDebug\00", align 1
@.str.4 = private unnamed_addr constant [6 x i8] c"%s %s\00", align 1
@.str.5 = private unnamed_addr constant [12 x i8] c"printMatrix\00", align 1
@.str.6 = private unnamed_addr constant [16 x i8] c"matrixNoOverlap\00", align 1
@.str.7 = private unnamed_addr constant [7 x i8] c"mat.%d\00", align 1
@.str.8 = private unnamed_addr constant [2 x i8] c"w\00", align 1
@.str.9 = private unnamed_addr constant [11 x i8] c"%6d  %7d \0A\00", align 1
@.str.10 = private unnamed_addr constant [20 x i8] c"%6d  %6d  %25.16e \0A\00", align 1
@.str.11 = private unnamed_addr constant [38 x i8] c"%4d : exchangeSubMatrices begins... \0A\00", align 1
@.str.12 = private unnamed_addr constant [57 x i8] c"%4d : exchangeSubMatrices ERROR : sendIndex %d (%d,%d).\0A\00", align 1
@.str.13 = private unnamed_addr constant [34 x i8] c"%4d : exchangeSubMatrices ends. \0A\00", align 1

@_ZN15LLNL_FEI_MatrixC1Ei = dso_local unnamed_addr alias void (%class.LLNL_FEI_Matrix*, i32), void (%class.LLNL_FEI_Matrix*, i32)* @_ZN15LLNL_FEI_MatrixC2Ei
@_ZN15LLNL_FEI_MatrixD1Ev = dso_local unnamed_addr alias void (%class.LLNL_FEI_Matrix*), void (%class.LLNL_FEI_Matrix*)* @_ZN15LLNL_FEI_MatrixD2Ev

; Function Attrs: uwtable
define dso_local void @_ZN15LLNL_FEI_MatrixC2Ei(%class.LLNL_FEI_Matrix* nonnull align 8 dereferenceable(216) %0, i32 %1) unnamed_addr #0 align 2 {
  %3 = getelementptr inbounds %class.LLNL_FEI_Matrix, %class.LLNL_FEI_Matrix* %0, i64 0, i32 0
  store i32 %1, i32* %3, align 8, !tbaa !3
  %4 = getelementptr inbounds %class.LLNL_FEI_Matrix, %class.LLNL_FEI_Matrix* %0, i64 0, i32 1
  %5 = call i32 @MPI_Comm_rank(i32 %1, i32* nonnull %4)
  %6 = getelementptr inbounds %class.LLNL_FEI_Matrix, %class.LLNL_FEI_Matrix* %0, i64 0, i32 2
  %7 = getelementptr inbounds %class.LLNL_FEI_Matrix, %class.LLNL_FEI_Matrix* %0, i64 0, i32 18
  %8 = getelementptr inbounds %class.LLNL_FEI_Matrix, %class.LLNL_FEI_Matrix* %0, i64 0, i32 24
  %9 = getelementptr inbounds %class.LLNL_FEI_Matrix, %class.LLNL_FEI_Matrix* %0, i64 0, i32 30
  %10 = bitcast i32* %6 to i8*
  call void @llvm.memset.p0i8.i64(i8* noundef nonnull align 8 dereferenceable(108) %10, i8 0, i64 108, i1 false)
  %11 = bitcast i32** %7 to i8*
  call void @llvm.memset.p0i8.i64(i8* noundef nonnull align 8 dereferenceable(44) %11, i8 0, i64 44, i1 false)
  %12 = bitcast i32** %8 to i8*
  call void @llvm.memset.p0i8.i64(i8* noundef nonnull align 8 dereferenceable(44) %12, i8 0, i64 44, i1 false)
  store i32 1, i32* %9, align 4, !tbaa !9
  ret void
}

declare dso_local i32 @MPI_Comm_rank(i32, i32*) local_unnamed_addr #1

; Function Attrs: nounwind uwtable
define dso_local void @_ZN15LLNL_FEI_MatrixD2Ev(%class.LLNL_FEI_Matrix* nonnull align 8 dereferenceable(216) %0) unnamed_addr #2 align 2 personality i8* bitcast (i32 (...)* @__gxx_personality_v0 to i8*) {
  %2 = call i32 @_ZN15LLNL_FEI_Matrix11resetMatrixEd(%class.LLNL_FEI_Matrix* nonnull align 8 dereferenceable(216) %0, double undef)
  ret void
}

; Function Attrs: argmemonly mustprogress nofree nosync nounwind willreturn
declare void @llvm.lifetime.start.p0i8(i64 immarg, i8* nocapture) #3

; Function Attrs: mustprogress nounwind uwtable
define dso_local i32 @_ZN15LLNL_FEI_Matrix11resetMatrixEd(%class.LLNL_FEI_Matrix* nonnull align 8 dereferenceable(216) %0, double %1) local_unnamed_addr #4 align 2 {
  %3 = getelementptr inbounds %class.LLNL_FEI_Matrix, %class.LLNL_FEI_Matrix* %0, i64 0, i32 3
  store i32 0, i32* %3, align 4, !tbaa !10
  %4 = getelementptr inbounds %class.LLNL_FEI_Matrix, %class.LLNL_FEI_Matrix* %0, i64 0, i32 4
  store i32 0, i32* %4, align 8, !tbaa !11
  %5 = getelementptr inbounds %class.LLNL_FEI_Matrix, %class.LLNL_FEI_Matrix* %0, i64 0, i32 5
  store i32 0, i32* %5, align 4, !tbaa !12
  %6 = getelementptr inbounds %class.LLNL_FEI_Matrix, %class.LLNL_FEI_Matrix* %0, i64 0, i32 6
  %7 = load i32*, i32** %6, align 8, !tbaa !13
  %8 = icmp eq i32* %7, null
  br i1 %8, label %11, label %9

9:                                                ; preds = %2
  %10 = bitcast i32* %7 to i8*
  call void @_ZdaPv(i8* %10) #18
  br label %11

11:                                               ; preds = %9, %2
  %12 = getelementptr inbounds %class.LLNL_FEI_Matrix, %class.LLNL_FEI_Matrix* %0, i64 0, i32 7
  %13 = load i32*, i32** %12, align 8, !tbaa !14
  %14 = icmp eq i32* %13, null
  br i1 %14, label %17, label %15

15:                                               ; preds = %11
  %16 = bitcast i32* %13 to i8*
  call void @_ZdaPv(i8* %16) #18
  br label %17

17:                                               ; preds = %15, %11
  %18 = getelementptr inbounds %class.LLNL_FEI_Matrix, %class.LLNL_FEI_Matrix* %0, i64 0, i32 8
  %19 = load i32*, i32** %18, align 8, !tbaa !15
  %20 = icmp eq i32* %19, null
  br i1 %20, label %23, label %21

21:                                               ; preds = %17
  %22 = bitcast i32* %19 to i8*
  call void @_ZdaPv(i8* %22) #18
  br label %23

23:                                               ; preds = %21, %17
  %24 = getelementptr inbounds %class.LLNL_FEI_Matrix, %class.LLNL_FEI_Matrix* %0, i64 0, i32 9
  %25 = load i32*, i32** %24, align 8, !tbaa !16
  %26 = icmp eq i32* %25, null
  br i1 %26, label %29, label %27

27:                                               ; preds = %23
  %28 = bitcast i32* %25 to i8*
  call void @_ZdaPv(i8* %28) #18
  br label %29

29:                                               ; preds = %27, %23
  %30 = getelementptr inbounds %class.LLNL_FEI_Matrix, %class.LLNL_FEI_Matrix* %0, i64 0, i32 10
  %31 = load i32*, i32** %30, align 8, !tbaa !17
  %32 = icmp eq i32* %31, null
  br i1 %32, label %35, label %33

33:                                               ; preds = %29
  %34 = bitcast i32* %31 to i8*
  call void @_ZdaPv(i8* %34) #18
  br label %35

35:                                               ; preds = %33, %29
  %36 = getelementptr inbounds %class.LLNL_FEI_Matrix, %class.LLNL_FEI_Matrix* %0, i64 0, i32 11
  %37 = load i32*, i32** %36, align 8, !tbaa !18
  %38 = icmp eq i32* %37, null
  br i1 %38, label %41, label %39

39:                                               ; preds = %35
  %40 = bitcast i32* %37 to i8*
  call void @_ZdaPv(i8* %40) #18
  br label %41

41:                                               ; preds = %39, %35
  %42 = getelementptr inbounds %class.LLNL_FEI_Matrix, %class.LLNL_FEI_Matrix* %0, i64 0, i32 12
  %43 = load double*, double** %42, align 8, !tbaa !19
  %44 = icmp eq double* %43, null
  br i1 %44, label %47, label %45

45:                                               ; preds = %41
  %46 = bitcast double* %43 to i8*
  call void @_ZdaPv(i8* %46) #18
  br label %47

47:                                               ; preds = %45, %41
  %48 = getelementptr inbounds %class.LLNL_FEI_Matrix, %class.LLNL_FEI_Matrix* %0, i64 0, i32 13
  %49 = load i32*, i32** %48, align 8, !tbaa !20
  %50 = icmp eq i32* %49, null
  br i1 %50, label %53, label %51

51:                                               ; preds = %47
  %52 = bitcast i32* %49 to i8*
  call void @_ZdaPv(i8* %52) #18
  br label %53

53:                                               ; preds = %51, %47
  %54 = getelementptr inbounds %class.LLNL_FEI_Matrix, %class.LLNL_FEI_Matrix* %0, i64 0, i32 14
  %55 = load i32*, i32** %54, align 8, !tbaa !21
  %56 = icmp eq i32* %55, null
  br i1 %56, label %59, label %57

57:                                               ; preds = %53
  %58 = bitcast i32* %55 to i8*
  call void @_ZdaPv(i8* %58) #18
  br label %59

59:                                               ; preds = %57, %53
  %60 = getelementptr inbounds %class.LLNL_FEI_Matrix, %class.LLNL_FEI_Matrix* %0, i64 0, i32 15
  %61 = load double*, double** %60, align 8, !tbaa !22
  %62 = icmp eq double* %61, null
  br i1 %62, label %65, label %63

63:                                               ; preds = %59
  %64 = bitcast double* %61 to i8*
  call void @_ZdaPv(i8* %64) #18
  br label %65

65:                                               ; preds = %63, %59
  %66 = getelementptr inbounds %class.LLNL_FEI_Matrix, %class.LLNL_FEI_Matrix* %0, i64 0, i32 16
  %67 = load double*, double** %66, align 8, !tbaa !23
  %68 = icmp eq double* %67, null
  br i1 %68, label %71, label %69

69:                                               ; preds = %65
  %70 = bitcast double* %67 to i8*
  call void @_ZdaPv(i8* %70) #18
  br label %71

71:                                               ; preds = %69, %65
  %72 = getelementptr inbounds %class.LLNL_FEI_Matrix, %class.LLNL_FEI_Matrix* %0, i64 0, i32 18
  %73 = load i32*, i32** %72, align 8, !tbaa !24
  %74 = icmp eq i32* %73, null
  br i1 %74, label %77, label %75

75:                                               ; preds = %71
  %76 = bitcast i32* %73 to i8*
  call void @_ZdaPv(i8* %76) #18
  br label %77

77:                                               ; preds = %75, %71
  %78 = getelementptr inbounds %class.LLNL_FEI_Matrix, %class.LLNL_FEI_Matrix* %0, i64 0, i32 19
  %79 = load i32*, i32** %78, align 8, !tbaa !25
  %80 = icmp eq i32* %79, null
  br i1 %80, label %83, label %81

81:                                               ; preds = %77
  %82 = bitcast i32* %79 to i8*
  call void @_ZdaPv(i8* %82) #18
  br label %83

83:                                               ; preds = %81, %77
  %84 = getelementptr inbounds %class.LLNL_FEI_Matrix, %class.LLNL_FEI_Matrix* %0, i64 0, i32 20
  %85 = load i32*, i32** %84, align 8, !tbaa !26
  %86 = icmp eq i32* %85, null
  br i1 %86, label %89, label %87

87:                                               ; preds = %83
  %88 = bitcast i32* %85 to i8*
  call void @_ZdaPv(i8* %88) #18
  br label %89

89:                                               ; preds = %87, %83
  %90 = getelementptr inbounds %class.LLNL_FEI_Matrix, %class.LLNL_FEI_Matrix* %0, i64 0, i32 21
  %91 = load double*, double** %90, align 8, !tbaa !27
  %92 = icmp eq double* %91, null
  br i1 %92, label %95, label %93

93:                                               ; preds = %89
  %94 = bitcast double* %91 to i8*
  call void @_ZdaPv(i8* %94) #18
  br label %95

95:                                               ; preds = %93, %89
  %96 = getelementptr inbounds %class.LLNL_FEI_Matrix, %class.LLNL_FEI_Matrix* %0, i64 0, i32 22
  %97 = load double*, double** %96, align 8, !tbaa !28
  %98 = icmp eq double* %97, null
  br i1 %98, label %101, label %99

99:                                               ; preds = %95
  %100 = bitcast double* %97 to i8*
  call void @_ZdaPv(i8* %100) #18
  br label %101

101:                                              ; preds = %99, %95
  %102 = getelementptr inbounds %class.LLNL_FEI_Matrix, %class.LLNL_FEI_Matrix* %0, i64 0, i32 24
  %103 = load i32*, i32** %102, align 8, !tbaa !29
  %104 = icmp eq i32* %103, null
  br i1 %104, label %107, label %105

105:                                              ; preds = %101
  %106 = bitcast i32* %103 to i8*
  call void @_ZdaPv(i8* %106) #18
  br label %107

107:                                              ; preds = %105, %101
  %108 = getelementptr inbounds %class.LLNL_FEI_Matrix, %class.LLNL_FEI_Matrix* %0, i64 0, i32 25
  %109 = load i32*, i32** %108, align 8, !tbaa !30
  %110 = icmp eq i32* %109, null
  br i1 %110, label %113, label %111

111:                                              ; preds = %107
  %112 = bitcast i32* %109 to i8*
  call void @_ZdaPv(i8* %112) #18
  br label %113

113:                                              ; preds = %111, %107
  %114 = getelementptr inbounds %class.LLNL_FEI_Matrix, %class.LLNL_FEI_Matrix* %0, i64 0, i32 26
  %115 = load i32*, i32** %114, align 8, !tbaa !31
  %116 = icmp eq i32* %115, null
  br i1 %116, label %119, label %117

117:                                              ; preds = %113
  %118 = bitcast i32* %115 to i8*
  call void @_ZdaPv(i8* %118) #18
  br label %119

119:                                              ; preds = %117, %113
  %120 = getelementptr inbounds %class.LLNL_FEI_Matrix, %class.LLNL_FEI_Matrix* %0, i64 0, i32 27
  %121 = load double*, double** %120, align 8, !tbaa !32
  %122 = icmp eq double* %121, null
  br i1 %122, label %125, label %123

123:                                              ; preds = %119
  %124 = bitcast double* %121 to i8*
  call void @_ZdaPv(i8* %124) #18
  br label %125

125:                                              ; preds = %123, %119
  %126 = getelementptr inbounds %class.LLNL_FEI_Matrix, %class.LLNL_FEI_Matrix* %0, i64 0, i32 28
  %127 = load i32*, i32** %126, align 8, !tbaa !33
  %128 = icmp eq i32* %127, null
  br i1 %128, label %131, label %129

129:                                              ; preds = %125
  %130 = bitcast i32* %127 to i8*
  call void @_ZdaPv(i8* %130) #18
  br label %131

131:                                              ; preds = %129, %125
  %132 = bitcast i32* %3 to i8*
  call void @llvm.memset.p0i8.i64(i8* noundef nonnull align 4 dereferenceable(104) %132, i8 0, i64 104, i1 false)
  %133 = bitcast i32** %72 to i8*
  call void @llvm.memset.p0i8.i64(i8* noundef nonnull align 8 dereferenceable(44) %133, i8 0, i64 44, i1 false)
  %134 = bitcast i32** %102 to i8*
  call void @llvm.memset.p0i8.i64(i8* noundef nonnull align 8 dereferenceable(40) %134, i8 0, i64 40, i1 false)
  ret i32 0
}

declare dso_local i32 @__gxx_personality_v0(...)

; Function Attrs: argmemonly mustprogress nofree nosync nounwind willreturn
declare void @llvm.lifetime.end.p0i8(i64 immarg, i8* nocapture) #3

; Function Attrs: mustprogress nofree nounwind uwtable
define dso_local i32 @_ZN15LLNL_FEI_Matrix10parametersEiPPc(%class.LLNL_FEI_Matrix* nonnull align 8 dereferenceable(216) %0, i32 %1, i8** nocapture readonly %2) local_unnamed_addr #5 align 2 {
  %4 = alloca [256 x i8], align 16
  %5 = alloca [256 x i8], align 16
  %6 = getelementptr inbounds [256 x i8], [256 x i8]* %4, i64 0, i64 0
  call void @llvm.lifetime.start.p0i8(i64 256, i8* nonnull %6) #19
  %7 = getelementptr inbounds [256 x i8], [256 x i8]* %5, i64 0, i64 0
  call void @llvm.lifetime.start.p0i8(i64 256, i8* nonnull %7) #19
  %8 = getelementptr inbounds %class.LLNL_FEI_Matrix, %class.LLNL_FEI_Matrix* %0, i64 0, i32 30
  %9 = getelementptr inbounds %class.LLNL_FEI_Matrix, %class.LLNL_FEI_Matrix* %0, i64 0, i32 29
  %10 = getelementptr inbounds %class.LLNL_FEI_Matrix, %class.LLNL_FEI_Matrix* %0, i64 0, i32 2
  %11 = icmp sgt i32 %1, 0
  br i1 %11, label %12, label %43

12:                                               ; preds = %3
  %13 = zext i32 %1 to i64
  br label %14

14:                                               ; preds = %12, %40
  %15 = phi i64 [ 0, %12 ], [ %41, %40 ]
  %16 = getelementptr inbounds i8*, i8** %2, i64 %15
  %17 = load i8*, i8** %16, align 8, !tbaa !34
  %18 = call i32 (i8*, i8*, ...) @__isoc99_sscanf(i8* %17, i8* getelementptr inbounds ([3 x i8], [3 x i8]* @.str, i64 0, i64 0), i8* nonnull %7) #19
  %19 = call i32 @bcmp(i8* noundef nonnull dereferenceable(12) %7, i8* noundef nonnull dereferenceable(12) getelementptr inbounds ([12 x i8], [12 x i8]* @.str.1, i64 0, i64 0), i64 12)
  %20 = icmp eq i32 %19, 0
  br i1 %20, label %21, label %27

21:                                               ; preds = %14
  %22 = load i8*, i8** %16, align 8, !tbaa !34
  %23 = call i32 (i8*, i8*, ...) @__isoc99_sscanf(i8* %22, i8* getelementptr inbounds ([6 x i8], [6 x i8]* @.str.2, i64 0, i64 0), i8* nonnull %7, i32* nonnull %10) #19
  %24 = load i32, i32* %10, align 8, !tbaa !35
  %25 = icmp slt i32 %24, 0
  br i1 %25, label %26, label %40

26:                                               ; preds = %21
  store i32 0, i32* %10, align 8, !tbaa !35
  br label %40

27:                                               ; preds = %14
  %28 = call i32 @bcmp(i8* noundef nonnull dereferenceable(9) %7, i8* noundef nonnull dereferenceable(9) getelementptr inbounds ([9 x i8], [9 x i8]* @.str.3, i64 0, i64 0), i64 9)
  %29 = icmp eq i32 %28, 0
  br i1 %29, label %30, label %36

30:                                               ; preds = %27
  %31 = load i8*, i8** %16, align 8, !tbaa !34
  %32 = call i32 (i8*, i8*, ...) @__isoc99_sscanf(i8* %31, i8* getelementptr inbounds ([6 x i8], [6 x i8]* @.str.4, i64 0, i64 0), i8* nonnull %7, i8* nonnull %6) #19
  %33 = call i32 @bcmp(i8* noundef nonnull dereferenceable(12) %6, i8* noundef nonnull dereferenceable(12) getelementptr inbounds ([12 x i8], [12 x i8]* @.str.5, i64 0, i64 0), i64 12)
  %34 = icmp eq i32 %33, 0
  br i1 %34, label %35, label %40

35:                                               ; preds = %30
  store i32 1, i32* %9, align 8, !tbaa !36
  br label %40

36:                                               ; preds = %27
  %37 = call i32 @bcmp(i8* noundef nonnull dereferenceable(16) %7, i8* noundef nonnull dereferenceable(16) getelementptr inbounds ([16 x i8], [16 x i8]* @.str.6, i64 0, i64 0), i64 16)
  %38 = icmp eq i32 %37, 0
  br i1 %38, label %39, label %40

39:                                               ; preds = %36
  store i32 0, i32* %8, align 4, !tbaa !9
  br label %40

40:                                               ; preds = %26, %21, %36, %39, %30, %35
  %41 = add nuw nsw i64 %15, 1
  %42 = icmp eq i64 %41, %13
  br i1 %42, label %43, label %14, !llvm.loop !37

43:                                               ; preds = %40, %3
  call void @llvm.lifetime.end.p0i8(i64 256, i8* nonnull %7) #19
  call void @llvm.lifetime.end.p0i8(i64 256, i8* nonnull %6) #19
  ret i32 0
}

; Function Attrs: nofree nounwind
declare dso_local noundef i32 @__isoc99_sscanf(i8* nocapture noundef readonly, i8* nocapture noundef readonly, ...) local_unnamed_addr #6

; Function Attrs: nobuiltin nounwind
declare dso_local void @_ZdaPv(i8*) local_unnamed_addr #7

; Function Attrs: mustprogress nounwind uwtable
define dso_local i32 @_ZN15LLNL_FEI_Matrix9setMatrixEiPiS0_PdiS0_S0_S0_S1_S1_S0_S0_(%class.LLNL_FEI_Matrix* nonnull align 8 dereferenceable(216) %0, i32 %1, i32* %2, i32* %3, double* %4, i32 %5, i32* %6, i32* %7, i32* %8, double* %9, double* %10, i32* %11, i32* %12) local_unnamed_addr #4 align 2 {
  %14 = call i32 @_ZN15LLNL_FEI_Matrix11resetMatrixEd(%class.LLNL_FEI_Matrix* nonnull align 8 dereferenceable(216) %0, double undef)
  %15 = getelementptr inbounds %class.LLNL_FEI_Matrix, %class.LLNL_FEI_Matrix* %0, i64 0, i32 3
  store i32 %1, i32* %15, align 4, !tbaa !10
  %16 = getelementptr inbounds %class.LLNL_FEI_Matrix, %class.LLNL_FEI_Matrix* %0, i64 0, i32 10
  store i32* %2, i32** %16, align 8, !tbaa !17
  %17 = getelementptr inbounds %class.LLNL_FEI_Matrix, %class.LLNL_FEI_Matrix* %0, i64 0, i32 11
  store i32* %3, i32** %17, align 8, !tbaa !18
  %18 = getelementptr inbounds %class.LLNL_FEI_Matrix, %class.LLNL_FEI_Matrix* %0, i64 0, i32 12
  store double* %4, double** %18, align 8, !tbaa !19
  %19 = getelementptr inbounds %class.LLNL_FEI_Matrix, %class.LLNL_FEI_Matrix* %0, i64 0, i32 5
  store i32 %5, i32* %19, align 4, !tbaa !12
  %20 = getelementptr inbounds %class.LLNL_FEI_Matrix, %class.LLNL_FEI_Matrix* %0, i64 0, i32 9
  store i32* %6, i32** %20, align 8, !tbaa !16
  %21 = getelementptr inbounds %class.LLNL_FEI_Matrix, %class.LLNL_FEI_Matrix* %0, i64 0, i32 13
  store i32* %7, i32** %21, align 8, !tbaa !20
  %22 = getelementptr inbounds %class.LLNL_FEI_Matrix, %class.LLNL_FEI_Matrix* %0, i64 0, i32 14
  store i32* %8, i32** %22, align 8, !tbaa !21
  %23 = getelementptr inbounds %class.LLNL_FEI_Matrix, %class.LLNL_FEI_Matrix* %0, i64 0, i32 15
  store double* %9, double** %23, align 8, !tbaa !22
  %24 = getelementptr inbounds %class.LLNL_FEI_Matrix, %class.LLNL_FEI_Matrix* %0, i64 0, i32 16
  store double* %10, double** %24, align 8, !tbaa !23
  %25 = getelementptr inbounds %class.LLNL_FEI_Matrix, %class.LLNL_FEI_Matrix* %0, i64 0, i32 7
  store i32* %11, i32** %25, align 8, !tbaa !14
  %26 = getelementptr inbounds %class.LLNL_FEI_Matrix, %class.LLNL_FEI_Matrix* %0, i64 0, i32 8
  store i32* %12, i32** %26, align 8, !tbaa !15
  ret i32 0
}

; Function Attrs: mustprogress uwtable
define dso_local i32 @_ZN15LLNL_FEI_Matrix14setCommPatternEiPiS0_S0_iS0_S0_S0_(%class.LLNL_FEI_Matrix* nocapture nonnull align 8 dereferenceable(216) %0, i32 %1, i32* %2, i32* %3, i32* %4, i32 %5, i32* %6, i32* %7, i32* %8) local_unnamed_addr #8 align 2 {
  %10 = getelementptr inbounds %class.LLNL_FEI_Matrix, %class.LLNL_FEI_Matrix* %0, i64 0, i32 18
  %11 = load i32*, i32** %10, align 8, !tbaa !24
  %12 = icmp eq i32* %11, null
  br i1 %12, label %15, label %13

13:                                               ; preds = %9
  %14 = bitcast i32* %11 to i8*
  call void @_ZdaPv(i8* %14) #18
  br label %15

15:                                               ; preds = %13, %9
  %16 = getelementptr inbounds %class.LLNL_FEI_Matrix, %class.LLNL_FEI_Matrix* %0, i64 0, i32 19
  %17 = load i32*, i32** %16, align 8, !tbaa !25
  %18 = icmp eq i32* %17, null
  br i1 %18, label %21, label %19

19:                                               ; preds = %15
  %20 = bitcast i32* %17 to i8*
  call void @_ZdaPv(i8* %20) #18
  br label %21

21:                                               ; preds = %19, %15
  %22 = getelementptr inbounds %class.LLNL_FEI_Matrix, %class.LLNL_FEI_Matrix* %0, i64 0, i32 20
  %23 = load i32*, i32** %22, align 8, !tbaa !26
  %24 = icmp eq i32* %23, null
  br i1 %24, label %27, label %25

25:                                               ; preds = %21
  %26 = bitcast i32* %23 to i8*
  call void @_ZdaPv(i8* %26) #18
  br label %27

27:                                               ; preds = %25, %21
  %28 = getelementptr inbounds %class.LLNL_FEI_Matrix, %class.LLNL_FEI_Matrix* %0, i64 0, i32 21
  %29 = load double*, double** %28, align 8, !tbaa !27
  %30 = icmp eq double* %29, null
  br i1 %30, label %33, label %31

31:                                               ; preds = %27
  %32 = bitcast double* %29 to i8*
  call void @_ZdaPv(i8* %32) #18
  br label %33

33:                                               ; preds = %31, %27
  %34 = getelementptr inbounds %class.LLNL_FEI_Matrix, %class.LLNL_FEI_Matrix* %0, i64 0, i32 22
  %35 = load double*, double** %34, align 8, !tbaa !28
  %36 = icmp eq double* %35, null
  br i1 %36, label %39, label %37

37:                                               ; preds = %33
  %38 = bitcast double* %35 to i8*
  call void @_ZdaPv(i8* %38) #18
  br label %39

39:                                               ; preds = %37, %33
  %40 = getelementptr inbounds %class.LLNL_FEI_Matrix, %class.LLNL_FEI_Matrix* %0, i64 0, i32 24
  %41 = load i32*, i32** %40, align 8, !tbaa !29
  %42 = icmp eq i32* %41, null
  br i1 %42, label %45, label %43

43:                                               ; preds = %39
  %44 = bitcast i32* %41 to i8*
  call void @_ZdaPv(i8* %44) #18
  br label %45

45:                                               ; preds = %43, %39
  %46 = getelementptr inbounds %class.LLNL_FEI_Matrix, %class.LLNL_FEI_Matrix* %0, i64 0, i32 25
  %47 = load i32*, i32** %46, align 8, !tbaa !30
  %48 = icmp eq i32* %47, null
  br i1 %48, label %51, label %49

49:                                               ; preds = %45
  %50 = bitcast i32* %47 to i8*
  call void @_ZdaPv(i8* %50) #18
  br label %51

51:                                               ; preds = %49, %45
  %52 = getelementptr inbounds %class.LLNL_FEI_Matrix, %class.LLNL_FEI_Matrix* %0, i64 0, i32 26
  %53 = load i32*, i32** %52, align 8, !tbaa !31
  %54 = icmp eq i32* %53, null
  br i1 %54, label %57, label %55

55:                                               ; preds = %51
  %56 = bitcast i32* %53 to i8*
  call void @_ZdaPv(i8* %56) #18
  br label %57

57:                                               ; preds = %55, %51
  %58 = getelementptr inbounds %class.LLNL_FEI_Matrix, %class.LLNL_FEI_Matrix* %0, i64 0, i32 27
  %59 = load double*, double** %58, align 8, !tbaa !32
  %60 = icmp eq double* %59, null
  br i1 %60, label %63, label %61

61:                                               ; preds = %57
  %62 = bitcast double* %59 to i8*
  call void @_ZdaPv(i8* %62) #18
  br label %63

63:                                               ; preds = %61, %57
  %64 = getelementptr inbounds %class.LLNL_FEI_Matrix, %class.LLNL_FEI_Matrix* %0, i64 0, i32 28
  %65 = load i32*, i32** %64, align 8, !tbaa !33
  %66 = icmp eq i32* %65, null
  br i1 %66, label %69, label %67

67:                                               ; preds = %63
  %68 = bitcast i32* %65 to i8*
  call void @_ZdaPv(i8* %68) #18
  br label %69

69:                                               ; preds = %67, %63
  %70 = getelementptr inbounds %class.LLNL_FEI_Matrix, %class.LLNL_FEI_Matrix* %0, i64 0, i32 17
  store i32 %1, i32* %70, align 8, !tbaa !40
  store i32* %3, i32** %16, align 8, !tbaa !25
  store i32* %2, i32** %10, align 8, !tbaa !24
  store i32* %4, i32** %22, align 8, !tbaa !26
  %71 = getelementptr inbounds %class.LLNL_FEI_Matrix, %class.LLNL_FEI_Matrix* %0, i64 0, i32 23
  store i32 %5, i32* %71, align 8, !tbaa !41
  store i32* %7, i32** %46, align 8, !tbaa !30
  store i32* %6, i32** %40, align 8, !tbaa !29
  store i32* %8, i32** %52, align 8, !tbaa !31
  %72 = icmp sgt i32 %1, 0
  %73 = bitcast double** %28 to i8*
  call void @llvm.memset.p0i8.i64(i8* noundef nonnull align 8 dereferenceable(16) %73, i8 0, i64 16, i1 false)
  %74 = bitcast double** %58 to i8*
  call void @llvm.memset.p0i8.i64(i8* noundef nonnull align 8 dereferenceable(16) %74, i8 0, i64 16, i1 false)
  br i1 %72, label %75, label %95

75:                                               ; preds = %69
  %76 = zext i32 %1 to i64
  br label %77

77:                                               ; preds = %75, %77
  %78 = phi i64 [ 0, %75 ], [ %83, %77 ]
  %79 = phi i32 [ 0, %75 ], [ %82, %77 ]
  %80 = getelementptr inbounds i32, i32* %2, i64 %78
  %81 = load i32, i32* %80, align 4, !tbaa !42
  %82 = add nsw i32 %81, %79
  %83 = add nuw nsw i64 %78, 1
  %84 = icmp eq i64 %83, %76
  br i1 %84, label %85, label %77, !llvm.loop !43

85:                                               ; preds = %77
  %86 = sext i32 %82 to i64
  %87 = call { i64, i1 } @llvm.umul.with.overflow.i64(i64 %86, i64 8)
  %88 = extractvalue { i64, i1 } %87, 1
  %89 = extractvalue { i64, i1 } %87, 0
  %90 = select i1 %88, i64 -1, i64 %89
  %91 = call noalias nonnull i8* @_Znam(i64 %90) #20
  %92 = bitcast double** %28 to i8**
  store i8* %91, i8** %92, align 8, !tbaa !27
  %93 = call noalias nonnull i8* @_Znam(i64 %90) #20
  %94 = bitcast double** %34 to i8**
  store i8* %93, i8** %94, align 8, !tbaa !28
  br label %95

95:                                               ; preds = %85, %69
  %96 = icmp sgt i32 %5, 0
  br i1 %96, label %97, label %115

97:                                               ; preds = %95
  %98 = zext i32 %5 to i64
  br label %99

99:                                               ; preds = %97, %99
  %100 = phi i64 [ 0, %97 ], [ %105, %99 ]
  %101 = phi i32 [ 0, %97 ], [ %104, %99 ]
  %102 = getelementptr inbounds i32, i32* %6, i64 %100
  %103 = load i32, i32* %102, align 4, !tbaa !42
  %104 = add nsw i32 %103, %101
  %105 = add nuw nsw i64 %100, 1
  %106 = icmp eq i64 %105, %98
  br i1 %106, label %107, label %99, !llvm.loop !44

107:                                              ; preds = %99
  %108 = sext i32 %104 to i64
  %109 = call { i64, i1 } @llvm.umul.with.overflow.i64(i64 %108, i64 8)
  %110 = extractvalue { i64, i1 } %109, 1
  %111 = extractvalue { i64, i1 } %109, 0
  %112 = select i1 %110, i64 -1, i64 %111
  %113 = call noalias nonnull i8* @_Znam(i64 %112) #20
  %114 = bitcast double** %58 to i8**
  store i8* %113, i8** %114, align 8, !tbaa !32
  br label %115

115:                                              ; preds = %107, %95
  %116 = add nsw i32 %5, %1
  %117 = icmp sgt i32 %116, 0
  br i1 %117, label %118, label %126

118:                                              ; preds = %115
  %119 = sext i32 %116 to i64
  %120 = call { i64, i1 } @llvm.umul.with.overflow.i64(i64 %119, i64 4)
  %121 = extractvalue { i64, i1 } %120, 1
  %122 = extractvalue { i64, i1 } %120, 0
  %123 = select i1 %121, i64 -1, i64 %122
  %124 = call noalias nonnull i8* @_Znam(i64 %123) #20
  %125 = bitcast i32** %64 to i8**
  store i8* %124, i8** %125, align 8, !tbaa !33
  br label %126

126:                                              ; preds = %118, %115
  ret i32 0
}

; Function Attrs: mustprogress nofree nosync nounwind readnone speculatable willreturn
declare { i64, i1 } @llvm.umul.with.overflow.i64(i64, i64) #9

; Function Attrs: nobuiltin allocsize(0)
declare dso_local nonnull i8* @_Znam(i64) local_unnamed_addr #10

; Function Attrs: mustprogress uwtable
define dso_local i32 @_ZN15LLNL_FEI_Matrix11setCompleteEv(%class.LLNL_FEI_Matrix* nonnull align 8 dereferenceable(216) %0) local_unnamed_addr #8 align 2 {
  %2 = getelementptr inbounds %class.LLNL_FEI_Matrix, %class.LLNL_FEI_Matrix* %0, i64 0, i32 30
  %3 = load i32, i32* %2, align 4, !tbaa !9
  %4 = icmp eq i32 %3, 0
  br i1 %4, label %5, label %6

5:                                                ; preds = %1
  call void @_ZN15LLNL_FEI_Matrix19exchangeSubMatricesEv(%class.LLNL_FEI_Matrix* nonnull align 8 dereferenceable(216) %0)
  br label %6

6:                                                ; preds = %5, %1
  %7 = getelementptr inbounds %class.LLNL_FEI_Matrix, %class.LLNL_FEI_Matrix* %0, i64 0, i32 29
  %8 = load i32, i32* %7, align 8, !tbaa !36
  %9 = icmp eq i32 %8, 1
  br i1 %9, label %10, label %11

10:                                               ; preds = %6
  call void @_ZN15LLNL_FEI_Matrix11printMatrixEv(%class.LLNL_FEI_Matrix* nonnull align 8 dereferenceable(216) %0)
  br label %11

11:                                               ; preds = %10, %6
  ret i32 0
}

; Function Attrs: mustprogress uwtable
define dso_local void @_ZN15LLNL_FEI_Matrix19exchangeSubMatricesEv(%class.LLNL_FEI_Matrix* nonnull align 8 dereferenceable(216) %0) local_unnamed_addr #8 align 2 {
  %2 = alloca i32, align 4
  %3 = alloca %struct.MPI_Status, align 4
  %4 = bitcast i32* %2 to i8*
  call void @llvm.lifetime.start.p0i8(i64 4, i8* nonnull %4) #19
  %5 = bitcast %struct.MPI_Status* %3 to i8*
  call void @llvm.lifetime.start.p0i8(i64 20, i8* nonnull %5) #19
  %6 = getelementptr inbounds %class.LLNL_FEI_Matrix, %class.LLNL_FEI_Matrix* %0, i64 0, i32 0
  %7 = load i32, i32* %6, align 8, !tbaa !3
  %8 = call i32 @MPI_Comm_size(i32 %7, i32* nonnull %2)
  %9 = load i32, i32* %2, align 4, !tbaa !42
  %10 = icmp eq i32 %9, 1
  br i1 %10, label %1950, label %11

11:                                               ; preds = %1
  %12 = getelementptr inbounds %class.LLNL_FEI_Matrix, %class.LLNL_FEI_Matrix* %0, i64 0, i32 2
  %13 = load i32, i32* %12, align 8, !tbaa !35
  %14 = icmp sgt i32 %13, 2
  br i1 %14, label %15, label %19

15:                                               ; preds = %11
  %16 = getelementptr inbounds %class.LLNL_FEI_Matrix, %class.LLNL_FEI_Matrix* %0, i64 0, i32 1
  %17 = load i32, i32* %16, align 4, !tbaa !45
  %18 = call i32 (i8*, ...) @printf(i8* nonnull dereferenceable(1) getelementptr inbounds ([38 x i8], [38 x i8]* @.str.11, i64 0, i64 0), i32 %17)
  br label %19

19:                                               ; preds = %15, %11
  %20 = getelementptr inbounds %class.LLNL_FEI_Matrix, %class.LLNL_FEI_Matrix* %0, i64 0, i32 23
  %21 = load i32, i32* %20, align 8, !tbaa !41
  %22 = getelementptr inbounds %class.LLNL_FEI_Matrix, %class.LLNL_FEI_Matrix* %0, i64 0, i32 24
  %23 = load i32*, i32** %22, align 8, !tbaa !29
  %24 = getelementptr inbounds %class.LLNL_FEI_Matrix, %class.LLNL_FEI_Matrix* %0, i64 0, i32 25
  %25 = load i32*, i32** %24, align 8, !tbaa !30
  %26 = getelementptr inbounds %class.LLNL_FEI_Matrix, %class.LLNL_FEI_Matrix* %0, i64 0, i32 26
  %27 = getelementptr inbounds %class.LLNL_FEI_Matrix, %class.LLNL_FEI_Matrix* %0, i64 0, i32 17
  %28 = load i32, i32* %27, align 8, !tbaa !40
  %29 = getelementptr inbounds %class.LLNL_FEI_Matrix, %class.LLNL_FEI_Matrix* %0, i64 0, i32 18
  %30 = load i32*, i32** %29, align 8, !tbaa !24
  %31 = getelementptr inbounds %class.LLNL_FEI_Matrix, %class.LLNL_FEI_Matrix* %0, i64 0, i32 19
  %32 = load i32*, i32** %31, align 8, !tbaa !25
  %33 = getelementptr inbounds %class.LLNL_FEI_Matrix, %class.LLNL_FEI_Matrix* %0, i64 0, i32 20
  %34 = load i32*, i32** %33, align 8, !tbaa !26
  %35 = icmp sgt i32 %28, 0
  br i1 %35, label %36, label %44

36:                                               ; preds = %19
  %37 = sext i32 %28 to i64
  %38 = call { i64, i1 } @llvm.umul.with.overflow.i64(i64 %37, i64 8)
  %39 = extractvalue { i64, i1 } %38, 1
  %40 = extractvalue { i64, i1 } %38, 0
  %41 = select i1 %39, i64 -1, i64 %40
  %42 = call noalias nonnull i8* @_Znam(i64 %41) #20
  %43 = bitcast i8* %42 to i32**
  br label %44

44:                                               ; preds = %36, %19
  %45 = phi i32** [ %43, %36 ], [ undef, %19 ]
  %46 = icmp sgt i32 %21, 0
  br i1 %46, label %47, label %55

47:                                               ; preds = %44
  %48 = sext i32 %21 to i64
  %49 = call { i64, i1 } @llvm.umul.with.overflow.i64(i64 %48, i64 8)
  %50 = extractvalue { i64, i1 } %49, 1
  %51 = extractvalue { i64, i1 } %49, 0
  %52 = select i1 %50, i64 -1, i64 %51
  %53 = call noalias nonnull i8* @_Znam(i64 %52) #20
  %54 = bitcast i8* %53 to i32**
  br label %55

55:                                               ; preds = %47, %44
  %56 = phi i32** [ %54, %47 ], [ undef, %44 ]
  br i1 %46, label %57, label %65

57:                                               ; preds = %55
  %58 = sext i32 %21 to i64
  %59 = call { i64, i1 } @llvm.umul.with.overflow.i64(i64 %58, i64 4)
  %60 = extractvalue { i64, i1 } %59, 1
  %61 = extractvalue { i64, i1 } %59, 0
  %62 = select i1 %60, i64 -1, i64 %61
  %63 = call noalias nonnull i8* @_Znam(i64 %62) #20
  %64 = bitcast i8* %63 to i32*
  br label %65

65:                                               ; preds = %57, %55
  %66 = phi i32* [ %64, %57 ], [ undef, %55 ]
  %67 = icmp sgt i32 %21, 0
  br i1 %67, label %68, label %70

68:                                               ; preds = %65
  %69 = zext i32 %21 to i64
  br label %76

70:                                               ; preds = %76, %65
  %71 = getelementptr inbounds %class.LLNL_FEI_Matrix, %class.LLNL_FEI_Matrix* %0, i64 0, i32 10
  %72 = getelementptr inbounds %class.LLNL_FEI_Matrix, %class.LLNL_FEI_Matrix* %0, i64 0, i32 13
  %73 = icmp sgt i32 %28, 0
  br i1 %73, label %74, label %96

74:                                               ; preds = %70
  %75 = zext i32 %28 to i64
  br label %100

76:                                               ; preds = %68, %76
  %77 = phi i64 [ 0, %68 ], [ %94, %76 ]
  %78 = getelementptr inbounds i32, i32* %23, i64 %77
  %79 = load i32, i32* %78, align 4, !tbaa !42
  %80 = sext i32 %79 to i64
  %81 = call { i64, i1 } @llvm.umul.with.overflow.i64(i64 %80, i64 4)
  %82 = extractvalue { i64, i1 } %81, 1
  %83 = extractvalue { i64, i1 } %81, 0
  %84 = select i1 %82, i64 -1, i64 %83
  %85 = call noalias nonnull i8* @_Znam(i64 %84) #20
  %86 = getelementptr inbounds i32*, i32** %56, i64 %77
  %87 = bitcast i32** %86 to i8**
  store i8* %85, i8** %87, align 8, !tbaa !34
  %88 = load i32, i32* %78, align 4, !tbaa !42
  %89 = getelementptr inbounds i32, i32* %25, i64 %77
  %90 = load i32, i32* %89, align 4, !tbaa !42
  %91 = load i32, i32* %6, align 8, !tbaa !3
  %92 = getelementptr inbounds i32, i32* %66, i64 %77
  %93 = call i32 @MPI_Irecv(i8* nonnull %85, i32 %88, i32 1275069445, i32 %90, i32 2476, i32 %91, i32* %92)
  %94 = add nuw nsw i64 %77, 1
  %95 = icmp eq i64 %94, %69
  br i1 %95, label %70, label %76, !llvm.loop !46

96:                                               ; preds = %147, %70
  %97 = icmp sgt i32 %21, 0
  br i1 %97, label %98, label %163

98:                                               ; preds = %96
  %99 = zext i32 %21 to i64
  br label %157

100:                                              ; preds = %74, %147
  %101 = phi i64 [ 0, %74 ], [ %155, %147 ]
  %102 = phi i32 [ 0, %74 ], [ %154, %147 ]
  %103 = getelementptr inbounds i32, i32* %30, i64 %101
  %104 = load i32, i32* %103, align 4, !tbaa !42
  %105 = sext i32 %104 to i64
  %106 = call { i64, i1 } @llvm.umul.with.overflow.i64(i64 %105, i64 4)
  %107 = extractvalue { i64, i1 } %106, 1
  %108 = extractvalue { i64, i1 } %106, 0
  %109 = select i1 %107, i64 -1, i64 %108
  %110 = call noalias nonnull i8* @_Znam(i64 %109) #20
  %111 = getelementptr inbounds i32*, i32** %45, i64 %101
  %112 = bitcast i32** %111 to i8**
  store i8* %110, i8** %112, align 8, !tbaa !34
  %113 = load i32*, i32** %71, align 8
  %114 = load i32*, i32** %72, align 8
  %115 = icmp eq i32* %114, null
  %116 = load i32, i32* %103, align 4, !tbaa !42
  %117 = icmp sgt i32 %116, 0
  br i1 %117, label %118, label %147

118:                                              ; preds = %100
  %119 = load i32*, i32** %111, align 8, !tbaa !34
  %120 = sext i32 %102 to i64
  br label %121

121:                                              ; preds = %118, %142
  %122 = phi i64 [ 0, %118 ], [ %143, %142 ]
  %123 = add nsw i64 %122, %120
  %124 = getelementptr inbounds i32, i32* %34, i64 %123
  %125 = load i32, i32* %124, align 4, !tbaa !42
  %126 = add nsw i32 %125, 1
  %127 = sext i32 %126 to i64
  %128 = getelementptr inbounds i32, i32* %113, i64 %127
  %129 = load i32, i32* %128, align 4, !tbaa !42
  %130 = sext i32 %125 to i64
  %131 = getelementptr inbounds i32, i32* %113, i64 %130
  %132 = load i32, i32* %131, align 4, !tbaa !42
  %133 = sub nsw i32 %129, %132
  %134 = getelementptr inbounds i32, i32* %119, i64 %122
  store i32 %133, i32* %134, align 4, !tbaa !42
  br i1 %115, label %142, label %135

135:                                              ; preds = %121
  %136 = getelementptr inbounds i32, i32* %114, i64 %127
  %137 = load i32, i32* %136, align 4, !tbaa !42
  %138 = getelementptr inbounds i32, i32* %114, i64 %130
  %139 = load i32, i32* %138, align 4, !tbaa !42
  %140 = add i32 %137, %133
  %141 = sub i32 %140, %139
  store i32 %141, i32* %134, align 4, !tbaa !42
  br label %142

142:                                              ; preds = %121, %135
  %143 = add nuw nsw i64 %122, 1
  %144 = load i32, i32* %103, align 4, !tbaa !42
  %145 = sext i32 %144 to i64
  %146 = icmp slt i64 %143, %145
  br i1 %146, label %121, label %147, !llvm.loop !47

147:                                              ; preds = %142, %100
  %148 = phi i32 [ %116, %100 ], [ %144, %142 ]
  %149 = getelementptr inbounds i32, i32* %32, i64 %101
  %150 = load i32, i32* %149, align 4, !tbaa !42
  %151 = load i32, i32* %6, align 8, !tbaa !3
  %152 = call i32 @MPI_Send(i8* nonnull %110, i32 %148, i32 1275069445, i32 %150, i32 2476, i32 %151)
  %153 = load i32, i32* %103, align 4, !tbaa !42
  %154 = add nsw i32 %153, %102
  %155 = add nuw nsw i64 %101, 1
  %156 = icmp eq i64 %155, %75
  br i1 %156, label %96, label %100, !llvm.loop !48

157:                                              ; preds = %98, %157
  %158 = phi i64 [ 0, %98 ], [ %161, %157 ]
  %159 = getelementptr inbounds i32, i32* %66, i64 %158
  %160 = call i32 @MPI_Wait(i32* %159, %struct.MPI_Status* nonnull %3)
  %161 = add nuw nsw i64 %158, 1
  %162 = icmp eq i64 %161, %99
  br i1 %162, label %163, label %157, !llvm.loop !49

163:                                              ; preds = %157, %96
  %164 = xor i1 %46, true
  %165 = icmp eq i32* %66, null
  %166 = select i1 %164, i1 true, i1 %165
  br i1 %166, label %169, label %167

167:                                              ; preds = %163
  %168 = bitcast i32* %66 to i8*
  call void @_ZdaPv(i8* %168) #18
  br label %169

169:                                              ; preds = %167, %163
  br i1 %35, label %170, label %178

170:                                              ; preds = %169
  %171 = sext i32 %28 to i64
  %172 = call { i64, i1 } @llvm.umul.with.overflow.i64(i64 %171, i64 4)
  %173 = extractvalue { i64, i1 } %172, 1
  %174 = extractvalue { i64, i1 } %172, 0
  %175 = select i1 %173, i64 -1, i64 %174
  %176 = call noalias nonnull i8* @_Znam(i64 %175) #20
  %177 = bitcast i8* %176 to i32*
  br label %178

178:                                              ; preds = %170, %169
  %179 = phi i32* [ %177, %170 ], [ undef, %169 ]
  br i1 %46, label %180, label %188

180:                                              ; preds = %178
  %181 = sext i32 %21 to i64
  %182 = call { i64, i1 } @llvm.umul.with.overflow.i64(i64 %181, i64 4)
  %183 = extractvalue { i64, i1 } %182, 1
  %184 = extractvalue { i64, i1 } %182, 0
  %185 = select i1 %183, i64 -1, i64 %184
  %186 = call noalias nonnull i8* @_Znam(i64 %185) #20
  %187 = bitcast i8* %186 to i32*
  br label %188

188:                                              ; preds = %180, %178
  %189 = phi i32* [ %187, %180 ], [ undef, %178 ]
  %190 = icmp sgt i32 %28, 0
  br i1 %190, label %191, label %193

191:                                              ; preds = %188
  %192 = zext i32 %28 to i64
  br label %197

193:                                              ; preds = %216, %188
  %194 = icmp sgt i32 %21, 0
  br i1 %194, label %195, label %241

195:                                              ; preds = %193
  %196 = zext i32 %21 to i64
  br label %219

197:                                              ; preds = %191, %216
  %198 = phi i64 [ 0, %191 ], [ %217, %216 ]
  %199 = getelementptr inbounds i32, i32* %179, i64 %198
  store i32 0, i32* %199, align 4, !tbaa !42
  %200 = getelementptr inbounds i32, i32* %30, i64 %198
  %201 = load i32, i32* %200, align 4, !tbaa !42
  %202 = icmp sgt i32 %201, 0
  br i1 %202, label %203, label %216

203:                                              ; preds = %197
  %204 = getelementptr inbounds i32*, i32** %45, i64 %198
  %205 = load i32*, i32** %204, align 8, !tbaa !34
  br label %206

206:                                              ; preds = %203, %206
  %207 = phi i64 [ 0, %203 ], [ %212, %206 ]
  %208 = getelementptr inbounds i32, i32* %205, i64 %207
  %209 = load i32, i32* %208, align 4, !tbaa !42
  %210 = load i32, i32* %199, align 4, !tbaa !42
  %211 = add nsw i32 %210, %209
  store i32 %211, i32* %199, align 4, !tbaa !42
  %212 = add nuw nsw i64 %207, 1
  %213 = load i32, i32* %200, align 4, !tbaa !42
  %214 = sext i32 %213 to i64
  %215 = icmp slt i64 %212, %214
  br i1 %215, label %206, label %216, !llvm.loop !50

216:                                              ; preds = %206, %197
  %217 = add nuw nsw i64 %198, 1
  %218 = icmp eq i64 %217, %192
  br i1 %218, label %193, label %197, !llvm.loop !51

219:                                              ; preds = %195, %238
  %220 = phi i64 [ 0, %195 ], [ %239, %238 ]
  %221 = getelementptr inbounds i32, i32* %189, i64 %220
  store i32 0, i32* %221, align 4, !tbaa !42
  %222 = getelementptr inbounds i32, i32* %23, i64 %220
  %223 = load i32, i32* %222, align 4, !tbaa !42
  %224 = icmp sgt i32 %223, 0
  br i1 %224, label %225, label %238

225:                                              ; preds = %219
  %226 = getelementptr inbounds i32*, i32** %56, i64 %220
  %227 = load i32*, i32** %226, align 8, !tbaa !34
  br label %228

228:                                              ; preds = %225, %228
  %229 = phi i64 [ 0, %225 ], [ %234, %228 ]
  %230 = getelementptr inbounds i32, i32* %227, i64 %229
  %231 = load i32, i32* %230, align 4, !tbaa !42
  %232 = load i32, i32* %221, align 4, !tbaa !42
  %233 = add nsw i32 %232, %231
  store i32 %233, i32* %221, align 4, !tbaa !42
  %234 = add nuw nsw i64 %229, 1
  %235 = load i32, i32* %222, align 4, !tbaa !42
  %236 = sext i32 %235 to i64
  %237 = icmp slt i64 %234, %236
  br i1 %237, label %228, label %238, !llvm.loop !52

238:                                              ; preds = %228, %219
  %239 = add nuw nsw i64 %220, 1
  %240 = icmp eq i64 %239, %196
  br i1 %240, label %241, label %219, !llvm.loop !53

241:                                              ; preds = %238, %193
  br i1 %46, label %242, label %252

242:                                              ; preds = %241
  %243 = sext i32 %21 to i64
  %244 = call { i64, i1 } @llvm.umul.with.overflow.i64(i64 %243, i64 8)
  %245 = extractvalue { i64, i1 } %244, 1
  %246 = extractvalue { i64, i1 } %244, 0
  %247 = select i1 %245, i64 -1, i64 %246
  %248 = call noalias nonnull i8* @_Znam(i64 %247) #20
  %249 = bitcast i8* %248 to double**
  %250 = call noalias nonnull i8* @_Znam(i64 %247) #20
  %251 = bitcast i8* %250 to i32**
  br label %252

252:                                              ; preds = %242, %241
  %253 = phi i32** [ %251, %242 ], [ undef, %241 ]
  %254 = phi double** [ %249, %242 ], [ undef, %241 ]
  br i1 %35, label %255, label %265

255:                                              ; preds = %252
  %256 = sext i32 %28 to i64
  %257 = call { i64, i1 } @llvm.umul.with.overflow.i64(i64 %256, i64 8)
  %258 = extractvalue { i64, i1 } %257, 1
  %259 = extractvalue { i64, i1 } %257, 0
  %260 = select i1 %258, i64 -1, i64 %259
  %261 = call noalias nonnull i8* @_Znam(i64 %260) #20
  %262 = bitcast i8* %261 to double**
  %263 = call noalias nonnull i8* @_Znam(i64 %260) #20
  %264 = bitcast i8* %263 to i32**
  br label %265

265:                                              ; preds = %255, %252
  %266 = phi i32** [ %264, %255 ], [ undef, %252 ]
  %267 = phi double** [ %262, %255 ], [ undef, %252 ]
  %268 = getelementptr inbounds %class.LLNL_FEI_Matrix, %class.LLNL_FEI_Matrix* %0, i64 0, i32 7
  %269 = load i32*, i32** %268, align 8, !tbaa !14
  %270 = getelementptr inbounds %class.LLNL_FEI_Matrix, %class.LLNL_FEI_Matrix* %0, i64 0, i32 1
  %271 = load i32, i32* %270, align 4, !tbaa !45
  %272 = sext i32 %271 to i64
  %273 = getelementptr inbounds i32, i32* %269, i64 %272
  %274 = load i32, i32* %273, align 4, !tbaa !42
  %275 = getelementptr inbounds %class.LLNL_FEI_Matrix, %class.LLNL_FEI_Matrix* %0, i64 0, i32 10
  %276 = getelementptr inbounds %class.LLNL_FEI_Matrix, %class.LLNL_FEI_Matrix* %0, i64 0, i32 11
  %277 = getelementptr inbounds %class.LLNL_FEI_Matrix, %class.LLNL_FEI_Matrix* %0, i64 0, i32 12
  %278 = getelementptr inbounds %class.LLNL_FEI_Matrix, %class.LLNL_FEI_Matrix* %0, i64 0, i32 13
  %279 = getelementptr inbounds %class.LLNL_FEI_Matrix, %class.LLNL_FEI_Matrix* %0, i64 0, i32 9
  %280 = getelementptr inbounds %class.LLNL_FEI_Matrix, %class.LLNL_FEI_Matrix* %0, i64 0, i32 14
  %281 = getelementptr inbounds %class.LLNL_FEI_Matrix, %class.LLNL_FEI_Matrix* %0, i64 0, i32 3
  %282 = getelementptr inbounds %class.LLNL_FEI_Matrix, %class.LLNL_FEI_Matrix* %0, i64 0, i32 15
  %283 = icmp sgt i32 %28, 0
  br i1 %283, label %284, label %402

284:                                              ; preds = %265
  %285 = zext i32 %28 to i64
  br label %286

286:                                              ; preds = %284, %397
  %287 = phi i64 [ 0, %284 ], [ %400, %397 ]
  %288 = phi i32 [ 0, %284 ], [ %399, %397 ]
  %289 = getelementptr inbounds i32, i32* %179, i64 %287
  %290 = load i32, i32* %289, align 4, !tbaa !42
  %291 = sext i32 %290 to i64
  %292 = call { i64, i1 } @llvm.umul.with.overflow.i64(i64 %291, i64 4)
  %293 = extractvalue { i64, i1 } %292, 1
  %294 = extractvalue { i64, i1 } %292, 0
  %295 = select i1 %293, i64 -1, i64 %294
  %296 = call noalias nonnull i8* @_Znam(i64 %295) #20
  %297 = getelementptr inbounds i32*, i32** %266, i64 %287
  %298 = bitcast i32** %297 to i8**
  store i8* %296, i8** %298, align 8, !tbaa !34
  %299 = load i32, i32* %289, align 4, !tbaa !42
  %300 = sext i32 %299 to i64
  %301 = call { i64, i1 } @llvm.umul.with.overflow.i64(i64 %300, i64 8)
  %302 = extractvalue { i64, i1 } %301, 1
  %303 = extractvalue { i64, i1 } %301, 0
  %304 = select i1 %302, i64 -1, i64 %303
  %305 = call noalias nonnull i8* @_Znam(i64 %304) #20
  %306 = getelementptr inbounds double*, double** %267, i64 %287
  %307 = bitcast double** %306 to i8**
  store i8* %305, i8** %307, align 8, !tbaa !34
  %308 = getelementptr inbounds i32, i32* %30, i64 %287
  %309 = load i32*, i32** %275, align 8
  %310 = load i32*, i32** %278, align 8
  %311 = icmp eq i32* %310, null
  %312 = load i32, i32* %308, align 4, !tbaa !42
  %313 = icmp sgt i32 %312, 0
  br i1 %313, label %314, label %397

314:                                              ; preds = %286
  %315 = sext i32 %288 to i64
  br label %316

316:                                              ; preds = %314, %391
  %317 = phi i64 [ 0, %314 ], [ %393, %391 ]
  %318 = phi i32 [ 0, %314 ], [ %392, %391 ]
  %319 = add nsw i64 %317, %315
  %320 = getelementptr inbounds i32, i32* %34, i64 %319
  %321 = load i32, i32* %320, align 4, !tbaa !42
  %322 = sext i32 %321 to i64
  %323 = getelementptr inbounds i32, i32* %309, i64 %322
  %324 = load i32, i32* %323, align 4, !tbaa !42
  %325 = add nsw i32 %321, 1
  %326 = sext i32 %325 to i64
  %327 = getelementptr inbounds i32, i32* %309, i64 %326
  %328 = load i32*, i32** %276, align 8
  %329 = load double*, double** %277, align 8
  %330 = load i32, i32* %327, align 4, !tbaa !42
  %331 = icmp slt i32 %324, %330
  br i1 %331, label %332, label %354

332:                                              ; preds = %316
  %333 = load i32*, i32** %297, align 8, !tbaa !34
  %334 = load double*, double** %306, align 8, !tbaa !34
  %335 = sext i32 %318 to i64
  %336 = sext i32 %324 to i64
  br label %337

337:                                              ; preds = %332, %337
  %338 = phi i64 [ %336, %332 ], [ %348, %337 ]
  %339 = phi i64 [ %335, %332 ], [ %346, %337 ]
  %340 = getelementptr inbounds i32, i32* %328, i64 %338
  %341 = load i32, i32* %340, align 4, !tbaa !42
  %342 = add nsw i32 %341, %274
  %343 = getelementptr inbounds i32, i32* %333, i64 %339
  store i32 %342, i32* %343, align 4, !tbaa !42
  %344 = getelementptr inbounds double, double* %329, i64 %338
  %345 = load double, double* %344, align 8, !tbaa !54
  %346 = add nsw i64 %339, 1
  %347 = getelementptr inbounds double, double* %334, i64 %339
  store double %345, double* %347, align 8, !tbaa !54
  %348 = add nsw i64 %338, 1
  %349 = load i32, i32* %327, align 4, !tbaa !42
  %350 = sext i32 %349 to i64
  %351 = icmp slt i64 %348, %350
  br i1 %351, label %337, label %352, !llvm.loop !56

352:                                              ; preds = %337
  %353 = trunc i64 %346 to i32
  br label %354

354:                                              ; preds = %352, %316
  %355 = phi i32 [ %318, %316 ], [ %353, %352 ]
  br i1 %311, label %391, label %356

356:                                              ; preds = %354
  %357 = getelementptr inbounds i32, i32* %310, i64 %322
  %358 = load i32, i32* %357, align 4, !tbaa !42
  %359 = getelementptr inbounds i32, i32* %310, i64 %326
  %360 = load i32*, i32** %279, align 8
  %361 = load i32*, i32** %280, align 8
  %362 = load double*, double** %282, align 8
  %363 = load i32, i32* %359, align 4, !tbaa !42
  %364 = icmp slt i32 %358, %363
  br i1 %364, label %365, label %391

365:                                              ; preds = %356
  %366 = load i32*, i32** %297, align 8, !tbaa !34
  %367 = load double*, double** %306, align 8, !tbaa !34
  %368 = sext i32 %355 to i64
  %369 = sext i32 %358 to i64
  br label %370

370:                                              ; preds = %365, %370
  %371 = phi i64 [ %369, %365 ], [ %385, %370 ]
  %372 = phi i64 [ %368, %365 ], [ %383, %370 ]
  %373 = getelementptr inbounds i32, i32* %361, i64 %371
  %374 = load i32, i32* %373, align 4, !tbaa !42
  %375 = load i32, i32* %281, align 4, !tbaa !10
  %376 = sub nsw i32 %374, %375
  %377 = sext i32 %376 to i64
  %378 = getelementptr inbounds i32, i32* %360, i64 %377
  %379 = load i32, i32* %378, align 4, !tbaa !42
  %380 = getelementptr inbounds i32, i32* %366, i64 %372
  store i32 %379, i32* %380, align 4, !tbaa !42
  %381 = getelementptr inbounds double, double* %362, i64 %371
  %382 = load double, double* %381, align 8, !tbaa !54
  %383 = add nsw i64 %372, 1
  %384 = getelementptr inbounds double, double* %367, i64 %372
  store double %382, double* %384, align 8, !tbaa !54
  %385 = add nsw i64 %371, 1
  %386 = load i32, i32* %359, align 4, !tbaa !42
  %387 = sext i32 %386 to i64
  %388 = icmp slt i64 %385, %387
  br i1 %388, label %370, label %389, !llvm.loop !57

389:                                              ; preds = %370
  %390 = trunc i64 %383 to i32
  br label %391

391:                                              ; preds = %389, %356, %354
  %392 = phi i32 [ %355, %354 ], [ %355, %356 ], [ %390, %389 ]
  %393 = add nuw nsw i64 %317, 1
  %394 = load i32, i32* %308, align 4, !tbaa !42
  %395 = sext i32 %394 to i64
  %396 = icmp slt i64 %393, %395
  br i1 %396, label %316, label %397, !llvm.loop !58

397:                                              ; preds = %391, %286
  %398 = phi i32 [ %312, %286 ], [ %394, %391 ]
  %399 = add nsw i32 %398, %288
  %400 = add nuw nsw i64 %287, 1
  %401 = icmp eq i64 %400, %285
  br i1 %401, label %402, label %286, !llvm.loop !59

402:                                              ; preds = %397, %265
  br i1 %46, label %403, label %411

403:                                              ; preds = %402
  %404 = sext i32 %21 to i64
  %405 = call { i64, i1 } @llvm.umul.with.overflow.i64(i64 %404, i64 4)
  %406 = extractvalue { i64, i1 } %405, 1
  %407 = extractvalue { i64, i1 } %405, 0
  %408 = select i1 %406, i64 -1, i64 %407
  %409 = call noalias nonnull i8* @_Znam(i64 %408) #20
  %410 = bitcast i8* %409 to i32*
  br label %411

411:                                              ; preds = %403, %402
  %412 = phi i32* [ %410, %403 ], [ %66, %402 ]
  %413 = icmp sgt i32 %21, 0
  br i1 %413, label %414, label %416

414:                                              ; preds = %411
  %415 = zext i32 %21 to i64
  br label %420

416:                                              ; preds = %420, %411
  %417 = icmp sgt i32 %28, 0
  br i1 %417, label %418, label %440

418:                                              ; preds = %416
  %419 = zext i32 %28 to i64
  br label %444

420:                                              ; preds = %414, %420
  %421 = phi i64 [ 0, %414 ], [ %438, %420 ]
  %422 = getelementptr inbounds i32, i32* %189, i64 %421
  %423 = load i32, i32* %422, align 4, !tbaa !42
  %424 = sext i32 %423 to i64
  %425 = call { i64, i1 } @llvm.umul.with.overflow.i64(i64 %424, i64 4)
  %426 = extractvalue { i64, i1 } %425, 1
  %427 = extractvalue { i64, i1 } %425, 0
  %428 = select i1 %426, i64 -1, i64 %427
  %429 = call noalias nonnull i8* @_Znam(i64 %428) #20
  %430 = getelementptr inbounds i32*, i32** %253, i64 %421
  %431 = bitcast i32** %430 to i8**
  store i8* %429, i8** %431, align 8, !tbaa !34
  %432 = load i32, i32* %422, align 4, !tbaa !42
  %433 = getelementptr inbounds i32, i32* %25, i64 %421
  %434 = load i32, i32* %433, align 4, !tbaa !42
  %435 = load i32, i32* %6, align 8, !tbaa !3
  %436 = getelementptr inbounds i32, i32* %412, i64 %421
  %437 = call i32 @MPI_Irecv(i8* nonnull %429, i32 %432, i32 1275069445, i32 %434, i32 2477, i32 %435, i32* %436)
  %438 = add nuw nsw i64 %421, 1
  %439 = icmp eq i64 %438, %415
  br i1 %439, label %416, label %420, !llvm.loop !60

440:                                              ; preds = %444, %416
  %441 = icmp sgt i32 %21, 0
  br i1 %441, label %442, label %457

442:                                              ; preds = %440
  %443 = zext i32 %21 to i64
  br label %461

444:                                              ; preds = %418, %444
  %445 = phi i64 [ 0, %418 ], [ %455, %444 ]
  %446 = getelementptr inbounds i32*, i32** %266, i64 %445
  %447 = bitcast i32** %446 to i8**
  %448 = load i8*, i8** %447, align 8, !tbaa !34
  %449 = getelementptr inbounds i32, i32* %179, i64 %445
  %450 = load i32, i32* %449, align 4, !tbaa !42
  %451 = getelementptr inbounds i32, i32* %32, i64 %445
  %452 = load i32, i32* %451, align 4, !tbaa !42
  %453 = load i32, i32* %6, align 8, !tbaa !3
  %454 = call i32 @MPI_Send(i8* %448, i32 %450, i32 1275069445, i32 %452, i32 2477, i32 %453)
  %455 = add nuw nsw i64 %445, 1
  %456 = icmp eq i64 %455, %419
  br i1 %456, label %440, label %444, !llvm.loop !61

457:                                              ; preds = %461, %440
  %458 = icmp sgt i32 %21, 0
  br i1 %458, label %459, label %467

459:                                              ; preds = %457
  %460 = zext i32 %21 to i64
  br label %471

461:                                              ; preds = %442, %461
  %462 = phi i64 [ 0, %442 ], [ %465, %461 ]
  %463 = getelementptr inbounds i32, i32* %412, i64 %462
  %464 = call i32 @MPI_Wait(i32* %463, %struct.MPI_Status* nonnull %3)
  %465 = add nuw nsw i64 %462, 1
  %466 = icmp eq i64 %465, %443
  br i1 %466, label %457, label %461, !llvm.loop !62

467:                                              ; preds = %471, %457
  %468 = icmp sgt i32 %28, 0
  br i1 %468, label %469, label %491

469:                                              ; preds = %467
  %470 = zext i32 %28 to i64
  br label %495

471:                                              ; preds = %459, %471
  %472 = phi i64 [ 0, %459 ], [ %489, %471 ]
  %473 = getelementptr inbounds i32, i32* %189, i64 %472
  %474 = load i32, i32* %473, align 4, !tbaa !42
  %475 = sext i32 %474 to i64
  %476 = call { i64, i1 } @llvm.umul.with.overflow.i64(i64 %475, i64 8)
  %477 = extractvalue { i64, i1 } %476, 1
  %478 = extractvalue { i64, i1 } %476, 0
  %479 = select i1 %477, i64 -1, i64 %478
  %480 = call noalias nonnull i8* @_Znam(i64 %479) #20
  %481 = getelementptr inbounds double*, double** %254, i64 %472
  %482 = bitcast double** %481 to i8**
  store i8* %480, i8** %482, align 8, !tbaa !34
  %483 = load i32, i32* %473, align 4, !tbaa !42
  %484 = getelementptr inbounds i32, i32* %25, i64 %472
  %485 = load i32, i32* %484, align 4, !tbaa !42
  %486 = load i32, i32* %6, align 8, !tbaa !3
  %487 = getelementptr inbounds i32, i32* %412, i64 %472
  %488 = call i32 @MPI_Irecv(i8* nonnull %480, i32 %483, i32 1275070475, i32 %485, i32 2478, i32 %486, i32* %487)
  %489 = add nuw nsw i64 %472, 1
  %490 = icmp eq i64 %489, %460
  br i1 %490, label %467, label %471, !llvm.loop !63

491:                                              ; preds = %495, %467
  %492 = icmp sgt i32 %21, 0
  br i1 %492, label %493, label %514

493:                                              ; preds = %491
  %494 = zext i32 %21 to i64
  br label %508

495:                                              ; preds = %469, %495
  %496 = phi i64 [ 0, %469 ], [ %506, %495 ]
  %497 = getelementptr inbounds double*, double** %267, i64 %496
  %498 = bitcast double** %497 to i8**
  %499 = load i8*, i8** %498, align 8, !tbaa !34
  %500 = getelementptr inbounds i32, i32* %179, i64 %496
  %501 = load i32, i32* %500, align 4, !tbaa !42
  %502 = getelementptr inbounds i32, i32* %32, i64 %496
  %503 = load i32, i32* %502, align 4, !tbaa !42
  %504 = load i32, i32* %6, align 8, !tbaa !3
  %505 = call i32 @MPI_Send(i8* %499, i32 %501, i32 1275070475, i32 %503, i32 2478, i32 %504)
  %506 = add nuw nsw i64 %496, 1
  %507 = icmp eq i64 %506, %470
  br i1 %507, label %491, label %495, !llvm.loop !64

508:                                              ; preds = %493, %508
  %509 = phi i64 [ 0, %493 ], [ %512, %508 ]
  %510 = getelementptr inbounds i32, i32* %412, i64 %509
  %511 = call i32 @MPI_Wait(i32* %510, %struct.MPI_Status* nonnull %3)
  %512 = add nuw nsw i64 %509, 1
  %513 = icmp eq i64 %512, %494
  br i1 %513, label %514, label %508, !llvm.loop !65

514:                                              ; preds = %508, %491
  %515 = icmp eq i32* %412, null
  %516 = select i1 %164, i1 true, i1 %515
  br i1 %516, label %519, label %517

517:                                              ; preds = %514
  %518 = bitcast i32* %412 to i8*
  call void @_ZdaPv(i8* %518) #18
  br label %519

519:                                              ; preds = %517, %514
  br i1 %35, label %520, label %576

520:                                              ; preds = %519
  %521 = zext i32 %28 to i64
  br label %522

522:                                              ; preds = %520, %529
  %523 = phi i64 [ 0, %520 ], [ %530, %529 ]
  %524 = getelementptr inbounds i32*, i32** %45, i64 %523
  %525 = load i32*, i32** %524, align 8, !tbaa !34
  %526 = icmp eq i32* %525, null
  br i1 %526, label %529, label %527

527:                                              ; preds = %522
  %528 = bitcast i32* %525 to i8*
  call void @_ZdaPv(i8* %528) #18
  br label %529

529:                                              ; preds = %522, %527
  %530 = add nuw nsw i64 %523, 1
  %531 = icmp eq i64 %530, %521
  br i1 %531, label %532, label %522, !llvm.loop !66

532:                                              ; preds = %529
  %533 = icmp eq i32** %45, null
  br i1 %533, label %536, label %534

534:                                              ; preds = %532
  %535 = bitcast i32** %45 to i8*
  call void @_ZdaPv(i8* %535) #18
  br label %536

536:                                              ; preds = %534, %532
  %537 = icmp eq i32* %179, null
  br i1 %537, label %540, label %538

538:                                              ; preds = %536
  %539 = bitcast i32* %179 to i8*
  call void @_ZdaPv(i8* %539) #18
  br label %540

540:                                              ; preds = %538, %536
  %541 = icmp sgt i32 %28, 0
  br i1 %541, label %542, label %544

542:                                              ; preds = %540
  %543 = zext i32 %28 to i64
  br label %548

544:                                              ; preds = %555, %540
  %545 = icmp sgt i32 %28, 0
  br i1 %545, label %546, label %568

546:                                              ; preds = %544
  %547 = zext i32 %28 to i64
  br label %558

548:                                              ; preds = %542, %555
  %549 = phi i64 [ 0, %542 ], [ %556, %555 ]
  %550 = getelementptr inbounds i32*, i32** %266, i64 %549
  %551 = load i32*, i32** %550, align 8, !tbaa !34
  %552 = icmp eq i32* %551, null
  br i1 %552, label %555, label %553

553:                                              ; preds = %548
  %554 = bitcast i32* %551 to i8*
  call void @_ZdaPv(i8* %554) #18
  br label %555

555:                                              ; preds = %548, %553
  %556 = add nuw nsw i64 %549, 1
  %557 = icmp eq i64 %556, %543
  br i1 %557, label %544, label %548, !llvm.loop !67

558:                                              ; preds = %546, %565
  %559 = phi i64 [ 0, %546 ], [ %566, %565 ]
  %560 = getelementptr inbounds double*, double** %267, i64 %559
  %561 = load double*, double** %560, align 8, !tbaa !34
  %562 = icmp eq double* %561, null
  br i1 %562, label %565, label %563

563:                                              ; preds = %558
  %564 = bitcast double* %561 to i8*
  call void @_ZdaPv(i8* %564) #18
  br label %565

565:                                              ; preds = %558, %563
  %566 = add nuw nsw i64 %559, 1
  %567 = icmp eq i64 %566, %547
  br i1 %567, label %568, label %558, !llvm.loop !68

568:                                              ; preds = %565, %544
  %569 = icmp eq i32** %266, null
  br i1 %569, label %572, label %570

570:                                              ; preds = %568
  %571 = bitcast i32** %266 to i8*
  call void @_ZdaPv(i8* %571) #18
  br label %572

572:                                              ; preds = %570, %568
  %573 = icmp eq double** %267, null
  br i1 %573, label %576, label %574

574:                                              ; preds = %572
  %575 = bitcast double** %267 to i8*
  call void @_ZdaPv(i8* %575) #18
  br label %576

576:                                              ; preds = %572, %574, %519
  %577 = getelementptr inbounds %class.LLNL_FEI_Matrix, %class.LLNL_FEI_Matrix* %0, i64 0, i32 3
  %578 = load i32, i32* %577, align 4, !tbaa !10
  %579 = add nsw i32 %578, %274
  %580 = sext i32 %578 to i64
  %581 = call { i64, i1 } @llvm.umul.with.overflow.i64(i64 %580, i64 4)
  %582 = extractvalue { i64, i1 } %581, 1
  %583 = extractvalue { i64, i1 } %581, 0
  %584 = select i1 %582, i64 -1, i64 %583
  %585 = call noalias nonnull i8* @_Znam(i64 %584) #20
  %586 = bitcast i8* %585 to i32*
  %587 = getelementptr inbounds %class.LLNL_FEI_Matrix, %class.LLNL_FEI_Matrix* %0, i64 0, i32 10
  %588 = load i32*, i32** %587, align 8
  %589 = icmp sgt i32 %578, 0
  br i1 %589, label %590, label %602

590:                                              ; preds = %576
  %591 = zext i32 %578 to i64
  br label %592

592:                                              ; preds = %590, %592
  %593 = phi i64 [ 0, %590 ], [ %594, %592 ]
  %594 = add nuw nsw i64 %593, 1
  %595 = getelementptr inbounds i32, i32* %588, i64 %594
  %596 = load i32, i32* %595, align 4, !tbaa !42
  %597 = getelementptr inbounds i32, i32* %588, i64 %593
  %598 = load i32, i32* %597, align 4, !tbaa !42
  %599 = sub nsw i32 %596, %598
  %600 = getelementptr inbounds i32, i32* %586, i64 %593
  store i32 %599, i32* %600, align 4, !tbaa !42
  %601 = icmp eq i64 %594, %591
  br i1 %601, label %602, label %592, !llvm.loop !69

602:                                              ; preds = %592, %576
  %603 = call noalias nonnull i8* @_Znam(i64 %584) #20
  %604 = bitcast i8* %603 to i32*
  %605 = getelementptr inbounds %class.LLNL_FEI_Matrix, %class.LLNL_FEI_Matrix* %0, i64 0, i32 13
  %606 = load i32*, i32** %605, align 8, !tbaa !20
  %607 = icmp eq i32* %606, null
  %608 = icmp sgt i32 %578, 0
  br i1 %607, label %612, label %609

609:                                              ; preds = %602
  br i1 %608, label %610, label %626

610:                                              ; preds = %609
  %611 = zext i32 %578 to i64
  br label %616

612:                                              ; preds = %602
  br i1 %608, label %613, label %626

613:                                              ; preds = %612
  %614 = zext i32 %578 to i64
  %615 = shl nuw nsw i64 %614, 2
  call void @llvm.memset.p0i8.i64(i8* nonnull align 4 %603, i8 0, i64 %615, i1 false)
  br label %626

616:                                              ; preds = %610, %616
  %617 = phi i64 [ 0, %610 ], [ %618, %616 ]
  %618 = add nuw nsw i64 %617, 1
  %619 = getelementptr inbounds i32, i32* %606, i64 %618
  %620 = load i32, i32* %619, align 4, !tbaa !42
  %621 = getelementptr inbounds i32, i32* %606, i64 %617
  %622 = load i32, i32* %621, align 4, !tbaa !42
  %623 = sub nsw i32 %620, %622
  %624 = getelementptr inbounds i32, i32* %604, i64 %617
  store i32 %623, i32* %624, align 4, !tbaa !42
  %625 = icmp eq i64 %618, %611
  br i1 %625, label %626, label %616, !llvm.loop !70

626:                                              ; preds = %616, %613, %609, %612
  %627 = load i32, i32* %20, align 8, !tbaa !41
  %628 = load i32*, i32** %22, align 8
  %629 = load i32*, i32** %26, align 8
  %630 = icmp sgt i32 %627, 0
  br i1 %630, label %631, label %644

631:                                              ; preds = %626
  %632 = zext i32 %627 to i64
  br label %633

633:                                              ; preds = %631, %687
  %634 = phi i64 [ 0, %631 ], [ %690, %687 ]
  %635 = phi i32 [ 0, %631 ], [ %689, %687 ]
  %636 = getelementptr inbounds i32, i32* %628, i64 %634
  %637 = getelementptr inbounds i32*, i32** %253, i64 %634
  %638 = load i32, i32* %636, align 4, !tbaa !42
  %639 = icmp sgt i32 %638, 0
  br i1 %639, label %640, label %687

640:                                              ; preds = %633
  %641 = getelementptr inbounds i32*, i32** %56, i64 %634
  %642 = load i32*, i32** %641, align 8, !tbaa !34
  %643 = sext i32 %635 to i64
  br label %648

644:                                              ; preds = %687, %626
  %645 = icmp sgt i32 %578, 0
  br i1 %645, label %646, label %692

646:                                              ; preds = %644
  %647 = zext i32 %578 to i64
  br label %697

648:                                              ; preds = %640, %681
  %649 = phi i64 [ 0, %640 ], [ %683, %681 ]
  %650 = phi i32 [ 0, %640 ], [ %682, %681 ]
  %651 = add nsw i64 %649, %643
  %652 = getelementptr inbounds i32, i32* %629, i64 %651
  %653 = load i32, i32* %652, align 4, !tbaa !42
  %654 = getelementptr inbounds i32, i32* %642, i64 %649
  %655 = sext i32 %653 to i64
  %656 = getelementptr inbounds i32, i32* %604, i64 %655
  %657 = sext i32 %653 to i64
  %658 = getelementptr inbounds i32, i32* %586, i64 %657
  %659 = load i32, i32* %654, align 4, !tbaa !42
  %660 = icmp sgt i32 %659, 0
  br i1 %660, label %661, label %681

661:                                              ; preds = %648
  %662 = load i32*, i32** %637, align 8, !tbaa !34
  %663 = sext i32 %650 to i64
  br label %664

664:                                              ; preds = %661, %664
  %665 = phi i64 [ %663, %661 ], [ %667, %664 ]
  %666 = phi i32 [ 0, %661 ], [ %676, %664 ]
  %667 = add nsw i64 %665, 1
  %668 = getelementptr inbounds i32, i32* %662, i64 %665
  %669 = load i32, i32* %668, align 4, !tbaa !42
  %670 = icmp sge i32 %669, %274
  %671 = icmp slt i32 %669, %579
  %672 = select i1 %670, i1 %671, i1 false
  %673 = select i1 %672, i32* %658, i32* %656
  %674 = load i32, i32* %673, align 4, !tbaa !42
  %675 = add nsw i32 %674, 1
  store i32 %675, i32* %673, align 4, !tbaa !42
  %676 = add nuw nsw i32 %666, 1
  %677 = load i32, i32* %654, align 4, !tbaa !42
  %678 = icmp slt i32 %676, %677
  br i1 %678, label %664, label %679, !llvm.loop !71

679:                                              ; preds = %664
  %680 = trunc i64 %667 to i32
  br label %681

681:                                              ; preds = %679, %648
  %682 = phi i32 [ %650, %648 ], [ %680, %679 ]
  %683 = add nuw nsw i64 %649, 1
  %684 = load i32, i32* %636, align 4, !tbaa !42
  %685 = sext i32 %684 to i64
  %686 = icmp slt i64 %683, %685
  br i1 %686, label %648, label %687, !llvm.loop !72

687:                                              ; preds = %681, %633
  %688 = phi i32 [ %638, %633 ], [ %684, %681 ]
  %689 = add nsw i32 %688, %635
  %690 = add nuw nsw i64 %634, 1
  %691 = icmp eq i64 %690, %632
  br i1 %691, label %644, label %633, !llvm.loop !73

692:                                              ; preds = %697, %644
  %693 = phi i32 [ 0, %644 ], [ %702, %697 ]
  %694 = icmp sgt i32 %578, 0
  br i1 %694, label %695, label %713

695:                                              ; preds = %692
  %696 = zext i32 %578 to i64
  br label %705

697:                                              ; preds = %646, %697
  %698 = phi i64 [ 0, %646 ], [ %703, %697 ]
  %699 = phi i32 [ 0, %646 ], [ %702, %697 ]
  %700 = getelementptr inbounds i32, i32* %586, i64 %698
  %701 = load i32, i32* %700, align 4, !tbaa !42
  %702 = add nsw i32 %701, %699
  %703 = add nuw nsw i64 %698, 1
  %704 = icmp eq i64 %703, %647
  br i1 %704, label %692, label %697, !llvm.loop !74

705:                                              ; preds = %695, %705
  %706 = phi i64 [ 0, %695 ], [ %711, %705 ]
  %707 = phi i32 [ 0, %695 ], [ %710, %705 ]
  %708 = getelementptr inbounds i32, i32* %604, i64 %706
  %709 = load i32, i32* %708, align 4, !tbaa !42
  %710 = add nsw i32 %709, %707
  %711 = add nuw nsw i64 %706, 1
  %712 = icmp eq i64 %711, %696
  br i1 %712, label %713, label %705, !llvm.loop !75

713:                                              ; preds = %705, %692
  %714 = phi i32 [ 0, %692 ], [ %710, %705 ]
  %715 = add nsw i32 %578, 1
  %716 = sext i32 %715 to i64
  %717 = call { i64, i1 } @llvm.umul.with.overflow.i64(i64 %716, i64 4)
  %718 = extractvalue { i64, i1 } %717, 1
  %719 = extractvalue { i64, i1 } %717, 0
  %720 = select i1 %718, i64 -1, i64 %719
  %721 = call noalias nonnull i8* @_Znam(i64 %720) #20
  %722 = bitcast i8* %721 to i32*
  %723 = sext i32 %693 to i64
  %724 = call { i64, i1 } @llvm.umul.with.overflow.i64(i64 %723, i64 4)
  %725 = extractvalue { i64, i1 } %724, 1
  %726 = extractvalue { i64, i1 } %724, 0
  %727 = select i1 %725, i64 -1, i64 %726
  %728 = call noalias nonnull i8* @_Znam(i64 %727) #20
  %729 = bitcast i8* %728 to i32*
  %730 = call { i64, i1 } @llvm.umul.with.overflow.i64(i64 %723, i64 8)
  %731 = extractvalue { i64, i1 } %730, 1
  %732 = extractvalue { i64, i1 } %730, 0
  %733 = select i1 %731, i64 -1, i64 %732
  %734 = call noalias nonnull i8* @_Znam(i64 %733) #20
  %735 = bitcast i8* %734 to double*
  store i32 0, i32* %722, align 4, !tbaa !42
  %736 = icmp slt i32 %578, 1
  br i1 %736, label %741, label %737

737:                                              ; preds = %713
  %738 = add i32 %578, 1
  %739 = zext i32 %738 to i64
  %740 = load i32, i32* %722, align 4
  br label %751

741:                                              ; preds = %751, %713
  %742 = getelementptr inbounds %class.LLNL_FEI_Matrix, %class.LLNL_FEI_Matrix* %0, i64 0, i32 10
  %743 = load i32*, i32** %742, align 8
  %744 = getelementptr inbounds %class.LLNL_FEI_Matrix, %class.LLNL_FEI_Matrix* %0, i64 0, i32 11
  %745 = load i32*, i32** %744, align 8
  %746 = getelementptr inbounds %class.LLNL_FEI_Matrix, %class.LLNL_FEI_Matrix* %0, i64 0, i32 12
  %747 = load double*, double** %746, align 8
  %748 = icmp sgt i32 %578, 0
  br i1 %748, label %749, label %793

749:                                              ; preds = %741
  %750 = zext i32 %578 to i64
  br label %761

751:                                              ; preds = %737, %751
  %752 = phi i32 [ %740, %737 ], [ %757, %751 ]
  %753 = phi i64 [ 1, %737 ], [ %759, %751 ]
  %754 = add nsw i64 %753, -1
  %755 = getelementptr inbounds i32, i32* %586, i64 %754
  %756 = load i32, i32* %755, align 4, !tbaa !42
  %757 = add nsw i32 %756, %752
  %758 = getelementptr inbounds i32, i32* %722, i64 %753
  store i32 %757, i32* %758, align 4, !tbaa !42
  %759 = add nuw nsw i64 %753, 1
  %760 = icmp eq i64 %759, %739
  br i1 %760, label %741, label %751, !llvm.loop !76

761:                                              ; preds = %749, %790
  %762 = phi i64 [ 0, %749 ], [ %767, %790 ]
  %763 = getelementptr inbounds i32, i32* %722, i64 %762
  %764 = load i32, i32* %763, align 4, !tbaa !42
  %765 = getelementptr inbounds i32, i32* %743, i64 %762
  %766 = load i32, i32* %765, align 4, !tbaa !42
  %767 = add nuw nsw i64 %762, 1
  %768 = getelementptr inbounds i32, i32* %743, i64 %767
  %769 = load i32, i32* %768, align 4, !tbaa !42
  %770 = icmp slt i32 %766, %769
  br i1 %770, label %771, label %790

771:                                              ; preds = %761
  %772 = sext i32 %766 to i64
  %773 = sext i32 %764 to i64
  br label %774

774:                                              ; preds = %771, %774
  %775 = phi i64 [ %773, %771 ], [ %783, %774 ]
  %776 = phi i64 [ %772, %771 ], [ %784, %774 ]
  %777 = getelementptr inbounds i32, i32* %745, i64 %776
  %778 = load i32, i32* %777, align 4, !tbaa !42
  %779 = getelementptr inbounds i32, i32* %729, i64 %775
  store i32 %778, i32* %779, align 4, !tbaa !42
  %780 = getelementptr inbounds double, double* %747, i64 %776
  %781 = load double, double* %780, align 8, !tbaa !54
  %782 = getelementptr inbounds double, double* %735, i64 %775
  store double %781, double* %782, align 8, !tbaa !54
  %783 = add nsw i64 %775, 1
  %784 = add nsw i64 %776, 1
  %785 = load i32, i32* %768, align 4, !tbaa !42
  %786 = sext i32 %785 to i64
  %787 = icmp slt i64 %784, %786
  br i1 %787, label %774, label %788, !llvm.loop !77

788:                                              ; preds = %774
  %789 = trunc i64 %783 to i32
  br label %790

790:                                              ; preds = %788, %761
  %791 = phi i32 [ %764, %761 ], [ %789, %788 ]
  store i32 %791, i32* %763, align 4, !tbaa !42
  %792 = icmp eq i64 %767, %750
  br i1 %792, label %793, label %761, !llvm.loop !78

793:                                              ; preds = %790, %741
  %794 = getelementptr inbounds %class.LLNL_FEI_Matrix, %class.LLNL_FEI_Matrix* %0, i64 0, i32 10
  %795 = load i32*, i32** %794, align 8, !tbaa !17
  %796 = icmp eq i32* %795, null
  br i1 %796, label %799, label %797

797:                                              ; preds = %793
  %798 = bitcast i32* %795 to i8*
  call void @_ZdaPv(i8* %798) #18
  br label %799

799:                                              ; preds = %797, %793
  %800 = getelementptr inbounds %class.LLNL_FEI_Matrix, %class.LLNL_FEI_Matrix* %0, i64 0, i32 11
  %801 = load i32*, i32** %800, align 8, !tbaa !18
  %802 = icmp eq i32* %801, null
  br i1 %802, label %805, label %803

803:                                              ; preds = %799
  %804 = bitcast i32* %801 to i8*
  call void @_ZdaPv(i8* %804) #18
  br label %805

805:                                              ; preds = %803, %799
  %806 = getelementptr inbounds %class.LLNL_FEI_Matrix, %class.LLNL_FEI_Matrix* %0, i64 0, i32 12
  %807 = load double*, double** %806, align 8, !tbaa !19
  %808 = icmp eq double* %807, null
  br i1 %808, label %811, label %809

809:                                              ; preds = %805
  %810 = bitcast double* %807 to i8*
  call void @_ZdaPv(i8* %810) #18
  br label %811

811:                                              ; preds = %809, %805
  %812 = icmp sgt i32 %714, 0
  br i1 %812, label %813, label %915

813:                                              ; preds = %811
  %814 = load i32, i32* %577, align 4, !tbaa !10
  %815 = add nsw i32 %814, 1
  %816 = sext i32 %815 to i64
  %817 = call { i64, i1 } @llvm.umul.with.overflow.i64(i64 %816, i64 4)
  %818 = extractvalue { i64, i1 } %817, 1
  %819 = extractvalue { i64, i1 } %817, 0
  %820 = select i1 %818, i64 -1, i64 %819
  %821 = call noalias nonnull i8* @_Znam(i64 %820) #20
  %822 = bitcast i8* %821 to i32*
  %823 = sext i32 %714 to i64
  %824 = call { i64, i1 } @llvm.umul.with.overflow.i64(i64 %823, i64 4)
  %825 = extractvalue { i64, i1 } %824, 1
  %826 = extractvalue { i64, i1 } %824, 0
  %827 = select i1 %825, i64 -1, i64 %826
  %828 = call noalias nonnull i8* @_Znam(i64 %827) #20
  %829 = bitcast i8* %828 to i32*
  %830 = call { i64, i1 } @llvm.umul.with.overflow.i64(i64 %823, i64 8)
  %831 = extractvalue { i64, i1 } %830, 1
  %832 = extractvalue { i64, i1 } %830, 0
  %833 = select i1 %831, i64 -1, i64 %832
  %834 = call noalias nonnull i8* @_Znam(i64 %833) #20
  %835 = bitcast i8* %834 to double*
  store i32 0, i32* %822, align 4, !tbaa !42
  %836 = icmp slt i32 %814, 1
  br i1 %836, label %851, label %837

837:                                              ; preds = %813
  %838 = add i32 %814, 1
  %839 = zext i32 %838 to i64
  %840 = load i32, i32* %822, align 4
  br label %841

841:                                              ; preds = %837, %841
  %842 = phi i32 [ %840, %837 ], [ %847, %841 ]
  %843 = phi i64 [ 1, %837 ], [ %849, %841 ]
  %844 = add nsw i64 %843, -1
  %845 = getelementptr inbounds i32, i32* %604, i64 %844
  %846 = load i32, i32* %845, align 4, !tbaa !42
  %847 = add nsw i32 %846, %842
  %848 = getelementptr inbounds i32, i32* %822, i64 %843
  store i32 %847, i32* %848, align 4, !tbaa !42
  %849 = add nuw nsw i64 %843, 1
  %850 = icmp eq i64 %849, %839
  br i1 %850, label %851, label %841, !llvm.loop !79

851:                                              ; preds = %841, %813
  %852 = load i32*, i32** %605, align 8, !tbaa !20
  %853 = icmp eq i32* %852, null
  br i1 %853, label %915, label %854

854:                                              ; preds = %851
  %855 = getelementptr inbounds %class.LLNL_FEI_Matrix, %class.LLNL_FEI_Matrix* %0, i64 0, i32 9
  %856 = load i32*, i32** %855, align 8
  %857 = getelementptr inbounds %class.LLNL_FEI_Matrix, %class.LLNL_FEI_Matrix* %0, i64 0, i32 14
  %858 = load i32*, i32** %857, align 8
  %859 = getelementptr inbounds %class.LLNL_FEI_Matrix, %class.LLNL_FEI_Matrix* %0, i64 0, i32 15
  %860 = load double*, double** %859, align 8
  %861 = icmp sgt i32 %814, 0
  br i1 %861, label %862, label %900

862:                                              ; preds = %854
  %863 = zext i32 %814 to i64
  br label %864

864:                                              ; preds = %862, %897
  %865 = phi i64 [ 0, %862 ], [ %870, %897 ]
  %866 = getelementptr inbounds i32, i32* %822, i64 %865
  %867 = load i32, i32* %866, align 4, !tbaa !42
  %868 = getelementptr inbounds i32, i32* %852, i64 %865
  %869 = load i32, i32* %868, align 4, !tbaa !42
  %870 = add nuw nsw i64 %865, 1
  %871 = getelementptr inbounds i32, i32* %852, i64 %870
  %872 = load i32, i32* %871, align 4, !tbaa !42
  %873 = icmp slt i32 %869, %872
  br i1 %873, label %874, label %897

874:                                              ; preds = %864
  %875 = sext i32 %869 to i64
  %876 = sext i32 %867 to i64
  br label %877

877:                                              ; preds = %874, %877
  %878 = phi i64 [ %876, %874 ], [ %890, %877 ]
  %879 = phi i64 [ %875, %874 ], [ %891, %877 ]
  %880 = getelementptr inbounds i32, i32* %858, i64 %879
  %881 = load i32, i32* %880, align 4, !tbaa !42
  %882 = sub nsw i32 %881, %814
  %883 = sext i32 %882 to i64
  %884 = getelementptr inbounds i32, i32* %856, i64 %883
  %885 = load i32, i32* %884, align 4, !tbaa !42
  %886 = getelementptr inbounds i32, i32* %829, i64 %878
  store i32 %885, i32* %886, align 4, !tbaa !42
  %887 = getelementptr inbounds double, double* %860, i64 %879
  %888 = load double, double* %887, align 8, !tbaa !54
  %889 = getelementptr inbounds double, double* %835, i64 %878
  store double %888, double* %889, align 8, !tbaa !54
  %890 = add nsw i64 %878, 1
  %891 = add nsw i64 %879, 1
  %892 = load i32, i32* %871, align 4, !tbaa !42
  %893 = sext i32 %892 to i64
  %894 = icmp slt i64 %891, %893
  br i1 %894, label %877, label %895, !llvm.loop !80

895:                                              ; preds = %877
  %896 = trunc i64 %890 to i32
  br label %897

897:                                              ; preds = %895, %864
  %898 = phi i32 [ %867, %864 ], [ %896, %895 ]
  store i32 %898, i32* %866, align 4, !tbaa !42
  %899 = icmp eq i64 %870, %863
  br i1 %899, label %900, label %864, !llvm.loop !81

900:                                              ; preds = %897, %854
  %901 = bitcast i32* %852 to i8*
  call void @_ZdaPv(i8* %901) #18
  %902 = getelementptr inbounds %class.LLNL_FEI_Matrix, %class.LLNL_FEI_Matrix* %0, i64 0, i32 14
  %903 = load i32*, i32** %902, align 8, !tbaa !21
  %904 = icmp eq i32* %903, null
  br i1 %904, label %907, label %905

905:                                              ; preds = %900
  %906 = bitcast i32* %903 to i8*
  call void @_ZdaPv(i8* %906) #18
  br label %907

907:                                              ; preds = %905, %900
  %908 = getelementptr inbounds %class.LLNL_FEI_Matrix, %class.LLNL_FEI_Matrix* %0, i64 0, i32 15
  %909 = load double*, double** %908, align 8, !tbaa !22
  %910 = icmp eq double* %909, null
  br i1 %910, label %913, label %911

911:                                              ; preds = %907
  %912 = bitcast double* %909 to i8*
  call void @_ZdaPv(i8* %912) #18
  br label %913

913:                                              ; preds = %911, %907
  %914 = bitcast i32** %605 to i8*
  call void @llvm.memset.p0i8.i64(i8* noundef nonnull align 8 dereferenceable(24) %914, i8 0, i64 24, i1 false)
  br label %915

915:                                              ; preds = %851, %913, %811
  %916 = phi i32* [ %822, %913 ], [ %822, %851 ], [ undef, %811 ]
  %917 = phi i32* [ %829, %913 ], [ %829, %851 ], [ undef, %811 ]
  %918 = phi double* [ %835, %913 ], [ %835, %851 ], [ undef, %811 ]
  %919 = bitcast i32* %917 to i8*
  %920 = load i32, i32* %20, align 8, !tbaa !41
  %921 = load i32*, i32** %22, align 8
  %922 = load i32*, i32** %26, align 8
  %923 = icmp sgt i32 %920, 0
  br i1 %923, label %924, label %1000

924:                                              ; preds = %915
  %925 = zext i32 %920 to i64
  br label %926

926:                                              ; preds = %924, %995
  %927 = phi i64 [ 0, %924 ], [ %998, %995 ]
  %928 = phi i32 [ 0, %924 ], [ %997, %995 ]
  %929 = getelementptr inbounds i32, i32* %921, i64 %927
  %930 = getelementptr inbounds i32*, i32** %253, i64 %927
  %931 = getelementptr inbounds double*, double** %254, i64 %927
  %932 = getelementptr inbounds double*, double** %254, i64 %927
  %933 = load i32, i32* %929, align 4, !tbaa !42
  %934 = icmp sgt i32 %933, 0
  br i1 %934, label %935, label %995

935:                                              ; preds = %926
  %936 = getelementptr inbounds i32*, i32** %56, i64 %927
  %937 = load i32*, i32** %936, align 8, !tbaa !34
  %938 = sext i32 %928 to i64
  br label %939

939:                                              ; preds = %935, %989
  %940 = phi i64 [ 0, %935 ], [ %991, %989 ]
  %941 = phi i32 [ 0, %935 ], [ %990, %989 ]
  %942 = add nsw i64 %940, %938
  %943 = getelementptr inbounds i32, i32* %922, i64 %942
  %944 = load i32, i32* %943, align 4, !tbaa !42
  %945 = getelementptr inbounds i32, i32* %937, i64 %940
  %946 = sext i32 %944 to i64
  %947 = getelementptr inbounds i32, i32* %916, i64 %946
  %948 = sext i32 %944 to i64
  %949 = getelementptr inbounds i32, i32* %722, i64 %948
  %950 = load i32, i32* %945, align 4, !tbaa !42
  %951 = icmp sgt i32 %950, 0
  br i1 %951, label %952, label %989

952:                                              ; preds = %939
  %953 = load i32*, i32** %930, align 8, !tbaa !34
  %954 = sext i32 %941 to i64
  br label %955

955:                                              ; preds = %952, %982
  %956 = phi i64 [ %954, %952 ], [ %983, %982 ]
  %957 = phi i32 [ 0, %952 ], [ %984, %982 ]
  %958 = getelementptr inbounds i32, i32* %953, i64 %956
  %959 = load i32, i32* %958, align 4, !tbaa !42
  %960 = icmp sge i32 %959, %274
  %961 = icmp slt i32 %959, %579
  %962 = select i1 %960, i1 %961, i1 false
  br i1 %962, label %963, label %973

963:                                              ; preds = %955
  %964 = sub nsw i32 %959, %274
  %965 = load i32, i32* %949, align 4, !tbaa !42
  %966 = sext i32 %965 to i64
  %967 = getelementptr inbounds i32, i32* %729, i64 %966
  store i32 %964, i32* %967, align 4, !tbaa !42
  %968 = load double*, double** %932, align 8, !tbaa !34
  %969 = getelementptr inbounds double, double* %968, i64 %956
  %970 = load double, double* %969, align 8, !tbaa !54
  %971 = add nsw i32 %965, 1
  store i32 %971, i32* %949, align 4, !tbaa !42
  %972 = getelementptr inbounds double, double* %735, i64 %966
  store double %970, double* %972, align 8, !tbaa !54
  br label %982

973:                                              ; preds = %955
  %974 = load i32, i32* %947, align 4, !tbaa !42
  %975 = sext i32 %974 to i64
  %976 = getelementptr inbounds i32, i32* %917, i64 %975
  store i32 %959, i32* %976, align 4, !tbaa !42
  %977 = load double*, double** %931, align 8, !tbaa !34
  %978 = getelementptr inbounds double, double* %977, i64 %956
  %979 = load double, double* %978, align 8, !tbaa !54
  %980 = add nsw i32 %974, 1
  store i32 %980, i32* %947, align 4, !tbaa !42
  %981 = getelementptr inbounds double, double* %918, i64 %975
  store double %979, double* %981, align 8, !tbaa !54
  br label %982

982:                                              ; preds = %973, %963
  %983 = add nsw i64 %956, 1
  %984 = add nuw nsw i32 %957, 1
  %985 = load i32, i32* %945, align 4, !tbaa !42
  %986 = icmp slt i32 %984, %985
  br i1 %986, label %955, label %987, !llvm.loop !82

987:                                              ; preds = %982
  %988 = trunc i64 %983 to i32
  br label %989

989:                                              ; preds = %987, %939
  %990 = phi i32 [ %941, %939 ], [ %988, %987 ]
  %991 = add nuw nsw i64 %940, 1
  %992 = load i32, i32* %929, align 4, !tbaa !42
  %993 = sext i32 %992 to i64
  %994 = icmp slt i64 %991, %993
  br i1 %994, label %939, label %995, !llvm.loop !83

995:                                              ; preds = %989, %926
  %996 = phi i32 [ %933, %926 ], [ %992, %989 ]
  %997 = add nsw i32 %996, %928
  %998 = add nuw nsw i64 %927, 1
  %999 = icmp eq i64 %998, %925
  br i1 %999, label %1000, label %926, !llvm.loop !84

1000:                                             ; preds = %995, %915
  br i1 %46, label %1001, label %1057

1001:                                             ; preds = %1000
  %1002 = zext i32 %21 to i64
  br label %1007

1003:                                             ; preds = %1014
  %1004 = icmp sgt i32 %21, 0
  br i1 %1004, label %1005, label %1017

1005:                                             ; preds = %1003
  %1006 = zext i32 %21 to i64
  br label %1021

1007:                                             ; preds = %1001, %1014
  %1008 = phi i64 [ 0, %1001 ], [ %1015, %1014 ]
  %1009 = getelementptr inbounds i32*, i32** %253, i64 %1008
  %1010 = load i32*, i32** %1009, align 8, !tbaa !34
  %1011 = icmp eq i32* %1010, null
  br i1 %1011, label %1014, label %1012

1012:                                             ; preds = %1007
  %1013 = bitcast i32* %1010 to i8*
  call void @_ZdaPv(i8* %1013) #18
  br label %1014

1014:                                             ; preds = %1007, %1012
  %1015 = add nuw nsw i64 %1008, 1
  %1016 = icmp eq i64 %1015, %1002
  br i1 %1016, label %1003, label %1007, !llvm.loop !85

1017:                                             ; preds = %1028, %1003
  %1018 = icmp sgt i32 %21, 0
  br i1 %1018, label %1019, label %1041

1019:                                             ; preds = %1017
  %1020 = zext i32 %21 to i64
  br label %1031

1021:                                             ; preds = %1005, %1028
  %1022 = phi i64 [ 0, %1005 ], [ %1029, %1028 ]
  %1023 = getelementptr inbounds double*, double** %254, i64 %1022
  %1024 = load double*, double** %1023, align 8, !tbaa !34
  %1025 = icmp eq double* %1024, null
  br i1 %1025, label %1028, label %1026

1026:                                             ; preds = %1021
  %1027 = bitcast double* %1024 to i8*
  call void @_ZdaPv(i8* %1027) #18
  br label %1028

1028:                                             ; preds = %1021, %1026
  %1029 = add nuw nsw i64 %1022, 1
  %1030 = icmp eq i64 %1029, %1006
  br i1 %1030, label %1017, label %1021, !llvm.loop !86

1031:                                             ; preds = %1019, %1038
  %1032 = phi i64 [ 0, %1019 ], [ %1039, %1038 ]
  %1033 = getelementptr inbounds i32*, i32** %56, i64 %1032
  %1034 = load i32*, i32** %1033, align 8, !tbaa !34
  %1035 = icmp eq i32* %1034, null
  br i1 %1035, label %1038, label %1036

1036:                                             ; preds = %1031
  %1037 = bitcast i32* %1034 to i8*
  call void @_ZdaPv(i8* %1037) #18
  br label %1038

1038:                                             ; preds = %1031, %1036
  %1039 = add nuw nsw i64 %1032, 1
  %1040 = icmp eq i64 %1039, %1020
  br i1 %1040, label %1041, label %1031, !llvm.loop !87

1041:                                             ; preds = %1038, %1017
  %1042 = icmp eq i32** %253, null
  br i1 %1042, label %1045, label %1043

1043:                                             ; preds = %1041
  %1044 = bitcast i32** %253 to i8*
  call void @_ZdaPv(i8* %1044) #18
  br label %1045

1045:                                             ; preds = %1043, %1041
  %1046 = icmp eq double** %254, null
  br i1 %1046, label %1049, label %1047

1047:                                             ; preds = %1045
  %1048 = bitcast double** %254 to i8*
  call void @_ZdaPv(i8* %1048) #18
  br label %1049

1049:                                             ; preds = %1047, %1045
  %1050 = icmp eq i32** %56, null
  br i1 %1050, label %1053, label %1051

1051:                                             ; preds = %1049
  %1052 = bitcast i32** %56 to i8*
  call void @_ZdaPv(i8* %1052) #18
  br label %1053

1053:                                             ; preds = %1051, %1049
  %1054 = icmp eq i32* %189, null
  br i1 %1054, label %1057, label %1055

1055:                                             ; preds = %1053
  %1056 = bitcast i32* %189 to i8*
  call void @_ZdaPv(i8* %1056) #18
  br label %1057

1057:                                             ; preds = %1053, %1055, %1000
  store i32 0, i32* %722, align 4, !tbaa !42
  %1058 = load i32, i32* %577, align 4, !tbaa !10
  %1059 = icmp slt i32 %1058, 1
  br i1 %1059, label %1064, label %1060

1060:                                             ; preds = %1057
  %1061 = add i32 %1058, 1
  %1062 = zext i32 %1061 to i64
  %1063 = load i32, i32* %722, align 4
  br label %1067

1064:                                             ; preds = %1067, %1057
  %1065 = load i32, i32* %577, align 4, !tbaa !10
  %1066 = icmp sgt i32 %1065, 0
  br i1 %1066, label %1082, label %1077

1067:                                             ; preds = %1060, %1067
  %1068 = phi i32 [ %1063, %1060 ], [ %1073, %1067 ]
  %1069 = phi i64 [ 1, %1060 ], [ %1075, %1067 ]
  %1070 = add nsw i64 %1069, -1
  %1071 = getelementptr inbounds i32, i32* %586, i64 %1070
  %1072 = load i32, i32* %1071, align 4, !tbaa !42
  %1073 = add nsw i32 %1072, %1068
  %1074 = getelementptr inbounds i32, i32* %722, i64 %1069
  store i32 %1073, i32* %1074, align 4, !tbaa !42
  %1075 = add nuw nsw i64 %1069, 1
  %1076 = icmp eq i64 %1075, %1062
  br i1 %1076, label %1064, label %1067, !llvm.loop !88

1077:                                             ; preds = %1124, %1064
  %1078 = phi i32 [ %1065, %1064 ], [ %1131, %1124 ]
  %1079 = icmp sgt i32 %1078, 0
  br i1 %1079, label %1080, label %1142

1080:                                             ; preds = %1077
  %1081 = zext i32 %1078 to i64
  br label %1134

1082:                                             ; preds = %1064, %1124
  %1083 = phi i64 [ %1130, %1124 ], [ 0, %1064 ]
  %1084 = getelementptr inbounds i32, i32* %722, i64 %1083
  %1085 = load i32, i32* %1084, align 4, !tbaa !42
  %1086 = getelementptr inbounds i32, i32* %586, i64 %1083
  %1087 = load i32, i32* %1086, align 4, !tbaa !42
  %1088 = sext i32 %1085 to i64
  %1089 = getelementptr inbounds i32, i32* %729, i64 %1088
  %1090 = getelementptr inbounds double, double* %735, i64 %1088
  %1091 = add nsw i32 %1087, -1
  call void @_ZN15LLNL_FEI_Matrix9IntSort2aEPiPdii(%class.LLNL_FEI_Matrix* nonnull align 8 dereferenceable(216) %0, i32* nonnull %1089, double* nonnull %1090, i32 0, i32 %1091)
  %1092 = icmp sgt i32 %1087, 1
  br i1 %1092, label %1093, label %1124

1093:                                             ; preds = %1082
  %1094 = add nsw i32 %1087, %1085
  %1095 = add i32 %1085, 1
  %1096 = sext i32 %1095 to i64
  %1097 = sext i32 %1094 to i64
  br label %1098

1098:                                             ; preds = %1093, %1120
  %1099 = phi i64 [ %1096, %1093 ], [ %1122, %1120 ]
  %1100 = phi i32 [ %1085, %1093 ], [ %1121, %1120 ]
  %1101 = getelementptr inbounds i32, i32* %729, i64 %1099
  %1102 = load i32, i32* %1101, align 4, !tbaa !42
  %1103 = sext i32 %1100 to i64
  %1104 = getelementptr inbounds i32, i32* %729, i64 %1103
  %1105 = load i32, i32* %1104, align 4, !tbaa !42
  %1106 = icmp eq i32 %1102, %1105
  br i1 %1106, label %1114, label %1107

1107:                                             ; preds = %1098
  %1108 = add nsw i32 %1100, 1
  %1109 = sext i32 %1108 to i64
  %1110 = getelementptr inbounds i32, i32* %729, i64 %1109
  store i32 %1102, i32* %1110, align 4, !tbaa !42
  %1111 = getelementptr inbounds double, double* %735, i64 %1099
  %1112 = load double, double* %1111, align 8, !tbaa !54
  %1113 = getelementptr inbounds double, double* %735, i64 %1109
  store double %1112, double* %1113, align 8, !tbaa !54
  br label %1120

1114:                                             ; preds = %1098
  %1115 = getelementptr inbounds double, double* %735, i64 %1099
  %1116 = load double, double* %1115, align 8, !tbaa !54
  %1117 = getelementptr inbounds double, double* %735, i64 %1103
  %1118 = load double, double* %1117, align 8, !tbaa !54
  %1119 = fadd double %1116, %1118
  store double %1119, double* %1117, align 8, !tbaa !54
  br label %1120

1120:                                             ; preds = %1107, %1114
  %1121 = phi i32 [ %1108, %1107 ], [ %1100, %1114 ]
  %1122 = add nsw i64 %1099, 1
  %1123 = icmp slt i64 %1122, %1097
  br i1 %1123, label %1098, label %1124, !llvm.loop !89

1124:                                             ; preds = %1120, %1082
  %1125 = phi i32 [ %1085, %1082 ], [ %1121, %1120 ]
  %1126 = icmp sgt i32 %1087, 0
  %1127 = sub i32 1, %1085
  %1128 = add i32 %1127, %1125
  %1129 = select i1 %1126, i32 %1128, i32 0
  store i32 %1129, i32* %1086, align 4, !tbaa !42
  %1130 = add nuw nsw i64 %1083, 1
  %1131 = load i32, i32* %577, align 4, !tbaa !10
  %1132 = sext i32 %1131 to i64
  %1133 = icmp slt i64 %1130, %1132
  br i1 %1133, label %1082, label %1077, !llvm.loop !90

1134:                                             ; preds = %1080, %1134
  %1135 = phi i64 [ 0, %1080 ], [ %1140, %1134 ]
  %1136 = phi i32 [ 0, %1080 ], [ %1139, %1134 ]
  %1137 = getelementptr inbounds i32, i32* %586, i64 %1135
  %1138 = load i32, i32* %1137, align 4, !tbaa !42
  %1139 = add nsw i32 %1138, %1136
  %1140 = add nuw nsw i64 %1135, 1
  %1141 = icmp eq i64 %1140, %1081
  br i1 %1141, label %1142, label %1134, !llvm.loop !91

1142:                                             ; preds = %1134, %1077
  %1143 = phi i32 [ 0, %1077 ], [ %1139, %1134 ]
  %1144 = add nsw i32 %1078, 1
  %1145 = sext i32 %1144 to i64
  %1146 = call { i64, i1 } @llvm.umul.with.overflow.i64(i64 %1145, i64 4)
  %1147 = extractvalue { i64, i1 } %1146, 1
  %1148 = extractvalue { i64, i1 } %1146, 0
  %1149 = select i1 %1147, i64 -1, i64 %1148
  %1150 = call noalias nonnull i8* @_Znam(i64 %1149) #20
  %1151 = bitcast i32** %794 to i8**
  store i8* %1150, i8** %1151, align 8, !tbaa !17
  %1152 = sext i32 %1143 to i64
  %1153 = call { i64, i1 } @llvm.umul.with.overflow.i64(i64 %1152, i64 4)
  %1154 = extractvalue { i64, i1 } %1153, 1
  %1155 = extractvalue { i64, i1 } %1153, 0
  %1156 = select i1 %1154, i64 -1, i64 %1155
  %1157 = call noalias nonnull i8* @_Znam(i64 %1156) #20
  %1158 = bitcast i32** %800 to i8**
  store i8* %1157, i8** %1158, align 8, !tbaa !18
  %1159 = call { i64, i1 } @llvm.umul.with.overflow.i64(i64 %1152, i64 8)
  %1160 = extractvalue { i64, i1 } %1159, 1
  %1161 = extractvalue { i64, i1 } %1159, 0
  %1162 = select i1 %1160, i64 -1, i64 %1161
  %1163 = call noalias nonnull i8* @_Znam(i64 %1162) #20
  %1164 = bitcast double** %806 to i8**
  store i8* %1163, i8** %1164, align 8, !tbaa !19
  %1165 = load i32*, i32** %794, align 8, !tbaa !17
  store i32 0, i32* %1165, align 4, !tbaa !42
  %1166 = load i32, i32* %577, align 4, !tbaa !10
  %1167 = icmp sgt i32 %1166, 0
  br i1 %1167, label %1168, label %1204

1168:                                             ; preds = %1142, %1197
  %1169 = phi i64 [ %1199, %1197 ], [ 0, %1142 ]
  %1170 = phi i32 [ %1198, %1197 ], [ 0, %1142 ]
  %1171 = getelementptr inbounds i32, i32* %722, i64 %1169
  %1172 = load i32, i32* %1171, align 4, !tbaa !42
  %1173 = getelementptr inbounds i32, i32* %586, i64 %1169
  %1174 = load i32, i32* %1173, align 4, !tbaa !42
  %1175 = load i32*, i32** %800, align 8
  %1176 = load double*, double** %806, align 8
  %1177 = icmp sgt i32 %1174, 0
  br i1 %1177, label %1178, label %1197

1178:                                             ; preds = %1168
  %1179 = add nsw i32 %1174, %1172
  %1180 = sext i32 %1170 to i64
  %1181 = sext i32 %1172 to i64
  %1182 = sext i32 %1179 to i64
  br label %1183

1183:                                             ; preds = %1178, %1183
  %1184 = phi i64 [ %1181, %1178 ], [ %1193, %1183 ]
  %1185 = phi i64 [ %1180, %1178 ], [ %1191, %1183 ]
  %1186 = getelementptr inbounds i32, i32* %729, i64 %1184
  %1187 = load i32, i32* %1186, align 4, !tbaa !42
  %1188 = getelementptr inbounds i32, i32* %1175, i64 %1185
  store i32 %1187, i32* %1188, align 4, !tbaa !42
  %1189 = getelementptr inbounds double, double* %735, i64 %1184
  %1190 = load double, double* %1189, align 8, !tbaa !54
  %1191 = add nsw i64 %1185, 1
  %1192 = getelementptr inbounds double, double* %1176, i64 %1185
  store double %1190, double* %1192, align 8, !tbaa !54
  %1193 = add nsw i64 %1184, 1
  %1194 = icmp slt i64 %1193, %1182
  br i1 %1194, label %1183, label %1195, !llvm.loop !92

1195:                                             ; preds = %1183
  %1196 = trunc i64 %1191 to i32
  br label %1197

1197:                                             ; preds = %1195, %1168
  %1198 = phi i32 [ %1170, %1168 ], [ %1196, %1195 ]
  %1199 = add nuw nsw i64 %1169, 1
  %1200 = getelementptr inbounds i32, i32* %1165, i64 %1199
  store i32 %1198, i32* %1200, align 4, !tbaa !42
  %1201 = load i32, i32* %577, align 4, !tbaa !10
  %1202 = sext i32 %1201 to i64
  %1203 = icmp slt i64 %1199, %1202
  br i1 %1203, label %1168, label %1204, !llvm.loop !93

1204:                                             ; preds = %1197, %1142
  call void @_ZdaPv(i8* %721) #18
  call void @_ZdaPv(i8* %728) #18
  call void @_ZdaPv(i8* %734) #18
  call void @_ZdaPv(i8* %585) #18
  br i1 %812, label %1205, label %1300

1205:                                             ; preds = %1204
  store i32 0, i32* %916, align 4, !tbaa !42
  %1206 = load i32, i32* %577, align 4, !tbaa !10
  %1207 = icmp slt i32 %1206, 1
  br i1 %1207, label %1212, label %1208

1208:                                             ; preds = %1205
  %1209 = add i32 %1206, 1
  %1210 = zext i32 %1209 to i64
  %1211 = load i32, i32* %916, align 4
  br label %1215

1212:                                             ; preds = %1215, %1205
  %1213 = load i32, i32* %577, align 4, !tbaa !10
  %1214 = icmp sgt i32 %1213, 0
  br i1 %1214, label %1225, label %1300

1215:                                             ; preds = %1208, %1215
  %1216 = phi i32 [ %1211, %1208 ], [ %1221, %1215 ]
  %1217 = phi i64 [ 1, %1208 ], [ %1223, %1215 ]
  %1218 = add nsw i64 %1217, -1
  %1219 = getelementptr inbounds i32, i32* %604, i64 %1218
  %1220 = load i32, i32* %1219, align 4, !tbaa !42
  %1221 = add nsw i32 %1220, %1216
  %1222 = getelementptr inbounds i32, i32* %916, i64 %1217
  store i32 %1221, i32* %1222, align 4, !tbaa !42
  %1223 = add nuw nsw i64 %1217, 1
  %1224 = icmp eq i64 %1223, %1210
  br i1 %1224, label %1212, label %1215, !llvm.loop !94

1225:                                             ; preds = %1212, %1294
  %1226 = phi i64 [ %1296, %1294 ], [ 0, %1212 ]
  %1227 = phi i32 [ %1295, %1294 ], [ 0, %1212 ]
  %1228 = getelementptr inbounds i32, i32* %916, i64 %1226
  %1229 = load i32, i32* %1228, align 4, !tbaa !42
  %1230 = getelementptr inbounds i32, i32* %604, i64 %1226
  %1231 = load i32, i32* %1230, align 4, !tbaa !42
  %1232 = sext i32 %1229 to i64
  %1233 = getelementptr inbounds i32, i32* %917, i64 %1232
  %1234 = getelementptr inbounds double, double* %918, i64 %1232
  %1235 = add nsw i32 %1231, -1
  call void @_ZN15LLNL_FEI_Matrix9IntSort2aEPiPdii(%class.LLNL_FEI_Matrix* nonnull align 8 dereferenceable(216) %0, i32* %1233, double* %1234, i32 0, i32 %1235)
  %1236 = icmp sgt i32 %1231, 1
  br i1 %1236, label %1237, label %1268

1237:                                             ; preds = %1225
  %1238 = add nsw i32 %1231, %1229
  %1239 = add i32 %1229, 1
  %1240 = sext i32 %1239 to i64
  %1241 = sext i32 %1238 to i64
  br label %1242

1242:                                             ; preds = %1237, %1264
  %1243 = phi i64 [ %1240, %1237 ], [ %1266, %1264 ]
  %1244 = phi i32 [ %1229, %1237 ], [ %1265, %1264 ]
  %1245 = getelementptr inbounds i32, i32* %917, i64 %1243
  %1246 = load i32, i32* %1245, align 4, !tbaa !42
  %1247 = sext i32 %1244 to i64
  %1248 = getelementptr inbounds i32, i32* %917, i64 %1247
  %1249 = load i32, i32* %1248, align 4, !tbaa !42
  %1250 = icmp eq i32 %1246, %1249
  br i1 %1250, label %1258, label %1251

1251:                                             ; preds = %1242
  %1252 = add nsw i32 %1244, 1
  %1253 = sext i32 %1252 to i64
  %1254 = getelementptr inbounds i32, i32* %917, i64 %1253
  store i32 %1246, i32* %1254, align 4, !tbaa !42
  %1255 = getelementptr inbounds double, double* %918, i64 %1243
  %1256 = load double, double* %1255, align 8, !tbaa !54
  %1257 = getelementptr inbounds double, double* %918, i64 %1253
  store double %1256, double* %1257, align 8, !tbaa !54
  br label %1264

1258:                                             ; preds = %1242
  %1259 = getelementptr inbounds double, double* %918, i64 %1243
  %1260 = load double, double* %1259, align 8, !tbaa !54
  %1261 = getelementptr inbounds double, double* %918, i64 %1247
  %1262 = load double, double* %1261, align 8, !tbaa !54
  %1263 = fadd double %1260, %1262
  store double %1263, double* %1261, align 8, !tbaa !54
  br label %1264

1264:                                             ; preds = %1251, %1258
  %1265 = phi i32 [ %1252, %1251 ], [ %1244, %1258 ]
  %1266 = add nsw i64 %1243, 1
  %1267 = icmp slt i64 %1266, %1241
  br i1 %1267, label %1242, label %1268, !llvm.loop !95

1268:                                             ; preds = %1264, %1225
  %1269 = phi i32 [ %1229, %1225 ], [ %1265, %1264 ]
  %1270 = icmp sgt i32 %1231, 0
  %1271 = sub i32 1, %1229
  %1272 = add i32 %1271, %1269
  %1273 = select i1 %1270, i32 %1272, i32 0
  store i32 %1273, i32* %1230, align 4, !tbaa !42
  %1274 = icmp sgt i32 %1273, 0
  br i1 %1274, label %1275, label %1294

1275:                                             ; preds = %1268
  %1276 = sext i32 %1227 to i64
  %1277 = sext i32 %1229 to i64
  %1278 = zext i32 %1273 to i64
  br label %1279

1279:                                             ; preds = %1275, %1279
  %1280 = phi i64 [ 0, %1275 ], [ %1290, %1279 ]
  %1281 = phi i64 [ %1276, %1275 ], [ %1288, %1279 ]
  %1282 = add nsw i64 %1280, %1277
  %1283 = getelementptr inbounds i32, i32* %917, i64 %1282
  %1284 = load i32, i32* %1283, align 4, !tbaa !42
  %1285 = getelementptr inbounds i32, i32* %917, i64 %1281
  store i32 %1284, i32* %1285, align 4, !tbaa !42
  %1286 = getelementptr inbounds double, double* %918, i64 %1282
  %1287 = load double, double* %1286, align 8, !tbaa !54
  %1288 = add nsw i64 %1281, 1
  %1289 = getelementptr inbounds double, double* %918, i64 %1281
  store double %1287, double* %1289, align 8, !tbaa !54
  %1290 = add nuw nsw i64 %1280, 1
  %1291 = icmp eq i64 %1290, %1278
  br i1 %1291, label %1292, label %1279, !llvm.loop !96

1292:                                             ; preds = %1279
  %1293 = trunc i64 %1288 to i32
  br label %1294

1294:                                             ; preds = %1292, %1268
  %1295 = phi i32 [ %1227, %1268 ], [ %1293, %1292 ]
  %1296 = add nuw nsw i64 %1226, 1
  %1297 = load i32, i32* %577, align 4, !tbaa !10
  %1298 = sext i32 %1297 to i64
  %1299 = icmp slt i64 %1296, %1298
  br i1 %1299, label %1225, label %1300, !llvm.loop !97

1300:                                             ; preds = %1294, %1212, %1204
  %1301 = phi i32 [ %714, %1204 ], [ 0, %1212 ], [ %1295, %1294 ]
  %1302 = icmp sgt i32 %1301, 0
  br i1 %1302, label %1303, label %1616

1303:                                             ; preds = %1300
  %1304 = sext i32 %1301 to i64
  %1305 = call { i64, i1 } @llvm.umul.with.overflow.i64(i64 %1304, i64 4)
  %1306 = extractvalue { i64, i1 } %1305, 1
  %1307 = extractvalue { i64, i1 } %1305, 0
  %1308 = select i1 %1306, i64 -1, i64 %1307
  %1309 = call noalias nonnull i8* @_Znam(i64 %1308) #20
  %1310 = zext i32 %1301 to i64
  %1311 = shl nuw nsw i64 %1310, 2
  call void @llvm.memcpy.p0i8.p0i8.i64(i8* nonnull align 4 %1309, i8* align 4 %919, i64 %1311, i1 false)
  %1312 = bitcast i8* %1309 to i32*
  %1313 = call noalias nonnull i8* @_Znam(i64 %1308) #20
  %1314 = bitcast i8* %1313 to i32*
  %1315 = zext i32 %1301 to i64
  br label %1316

1316:                                             ; preds = %1303, %1316
  %1317 = phi i64 [ 0, %1303 ], [ %1320, %1316 ]
  %1318 = getelementptr inbounds i32, i32* %1314, i64 %1317
  %1319 = trunc i64 %1317 to i32
  store i32 %1319, i32* %1318, align 4, !tbaa !42
  %1320 = add nuw nsw i64 %1317, 1
  %1321 = icmp eq i64 %1320, %1315
  br i1 %1321, label %1322, label %1316, !llvm.loop !98

1322:                                             ; preds = %1316
  %1323 = add nsw i32 %1301, -1
  call void @_ZN15LLNL_FEI_Matrix8IntSort2EPiS0_ii(%class.LLNL_FEI_Matrix* nonnull align 8 dereferenceable(216) %0, i32* nonnull %1312, i32* nonnull %1314, i32 0, i32 %1323)
  %1324 = load i32, i32* %1312, align 4, !tbaa !42
  %1325 = icmp sgt i32 %1301, 1
  br i1 %1325, label %1326, label %1339

1326:                                             ; preds = %1322
  %1327 = zext i32 %1301 to i64
  br label %1328

1328:                                             ; preds = %1326, %1328
  %1329 = phi i64 [ 1, %1326 ], [ %1337, %1328 ]
  %1330 = phi i32 [ 0, %1326 ], [ %1336, %1328 ]
  %1331 = phi i32 [ %1324, %1326 ], [ %1333, %1328 ]
  %1332 = getelementptr inbounds i32, i32* %1312, i64 %1329
  %1333 = load i32, i32* %1332, align 4, !tbaa !42
  %1334 = icmp ne i32 %1333, %1331
  %1335 = zext i1 %1334 to i32
  %1336 = add nuw nsw i32 %1330, %1335
  %1337 = add nuw nsw i64 %1329, 1
  %1338 = icmp eq i64 %1337, %1327
  br i1 %1338, label %1339, label %1328, !llvm.loop !99

1339:                                             ; preds = %1328, %1322
  %1340 = phi i32 [ 0, %1322 ], [ %1336, %1328 ]
  %1341 = add nuw nsw i32 %1340, 1
  %1342 = zext i32 %1341 to i64
  %1343 = shl nuw nsw i64 %1342, 2
  %1344 = call noalias nonnull i8* @_Znam(i64 %1343) #20
  %1345 = bitcast i8* %1344 to i32*
  store i32 %1324, i32* %1345, align 4, !tbaa !42
  store i32 0, i32* %1312, align 4, !tbaa !42
  %1346 = icmp sgt i32 %1301, 1
  br i1 %1346, label %1347, label %1365

1347:                                             ; preds = %1339
  %1348 = zext i32 %1301 to i64
  br label %1349

1349:                                             ; preds = %1347, %1360
  %1350 = phi i64 [ 1, %1347 ], [ %1363, %1360 ]
  %1351 = phi i32 [ 0, %1347 ], [ %1362, %1360 ]
  %1352 = phi i32 [ %1324, %1347 ], [ %1361, %1360 ]
  %1353 = getelementptr inbounds i32, i32* %1312, i64 %1350
  %1354 = load i32, i32* %1353, align 4, !tbaa !42
  %1355 = icmp eq i32 %1354, %1352
  br i1 %1355, label %1360, label %1356

1356:                                             ; preds = %1349
  %1357 = add nsw i32 %1351, 1
  %1358 = sext i32 %1357 to i64
  %1359 = getelementptr inbounds i32, i32* %1345, i64 %1358
  store i32 %1354, i32* %1359, align 4, !tbaa !42
  br label %1360

1360:                                             ; preds = %1356, %1349
  %1361 = phi i32 [ %1354, %1356 ], [ %1352, %1349 ]
  %1362 = phi i32 [ %1357, %1356 ], [ %1351, %1349 ]
  store i32 %1362, i32* %1353, align 4, !tbaa !42
  %1363 = add nuw nsw i64 %1350, 1
  %1364 = icmp eq i64 %1363, %1348
  br i1 %1364, label %1365, label %1349, !llvm.loop !100

1365:                                             ; preds = %1360, %1339
  %1366 = phi i32 [ 0, %1339 ], [ %1362, %1360 ]
  %1367 = add nsw i32 %1366, 1
  %1368 = getelementptr inbounds %class.LLNL_FEI_Matrix, %class.LLNL_FEI_Matrix* %0, i64 0, i32 9
  %1369 = load i32*, i32** %1368, align 8, !tbaa !16
  %1370 = icmp eq i32* %1369, null
  br i1 %1370, label %1373, label %1371

1371:                                             ; preds = %1365
  %1372 = bitcast i32* %1369 to i8*
  call void @_ZdaPv(i8* %1372) #18
  br label %1373

1373:                                             ; preds = %1371, %1365
  %1374 = bitcast i32** %1368 to i8**
  store i8* %1344, i8** %1374, align 8, !tbaa !16
  %1375 = getelementptr inbounds %class.LLNL_FEI_Matrix, %class.LLNL_FEI_Matrix* %0, i64 0, i32 5
  store i32 %1367, i32* %1375, align 4, !tbaa !12
  %1376 = load i32, i32* %577, align 4
  %1377 = icmp sgt i32 %1301, 0
  br i1 %1377, label %1378, label %1391

1378:                                             ; preds = %1373
  %1379 = zext i32 %1301 to i64
  br label %1380

1380:                                             ; preds = %1378, %1380
  %1381 = phi i64 [ 0, %1378 ], [ %1389, %1380 ]
  %1382 = getelementptr inbounds i32, i32* %1312, i64 %1381
  %1383 = load i32, i32* %1382, align 4, !tbaa !42
  %1384 = add nsw i32 %1376, %1383
  %1385 = getelementptr inbounds i32, i32* %1314, i64 %1381
  %1386 = load i32, i32* %1385, align 4, !tbaa !42
  %1387 = sext i32 %1386 to i64
  %1388 = getelementptr inbounds i32, i32* %917, i64 %1387
  store i32 %1384, i32* %1388, align 4, !tbaa !42
  %1389 = add nuw nsw i64 %1381, 1
  %1390 = icmp eq i64 %1389, %1379
  br i1 %1390, label %1391, label %1380, !llvm.loop !101

1391:                                             ; preds = %1380, %1373
  store i32 0, i32* %916, align 4, !tbaa !42
  %1392 = load i32, i32* %577, align 4, !tbaa !10
  %1393 = icmp slt i32 %1392, 1
  br i1 %1393, label %1408, label %1394

1394:                                             ; preds = %1391
  %1395 = add i32 %1392, 1
  %1396 = zext i32 %1395 to i64
  %1397 = load i32, i32* %916, align 4
  br label %1398

1398:                                             ; preds = %1394, %1398
  %1399 = phi i32 [ %1397, %1394 ], [ %1404, %1398 ]
  %1400 = phi i64 [ 1, %1394 ], [ %1406, %1398 ]
  %1401 = add nsw i64 %1400, -1
  %1402 = getelementptr inbounds i32, i32* %604, i64 %1401
  %1403 = load i32, i32* %1402, align 4, !tbaa !42
  %1404 = add nsw i32 %1403, %1399
  %1405 = getelementptr inbounds i32, i32* %916, i64 %1400
  store i32 %1404, i32* %1405, align 4, !tbaa !42
  %1406 = add nuw nsw i64 %1400, 1
  %1407 = icmp eq i64 %1406, %1396
  br i1 %1407, label %1408, label %1398, !llvm.loop !102

1408:                                             ; preds = %1398, %1391
  store i32* %916, i32** %605, align 8, !tbaa !20
  %1409 = call noalias nonnull i8* @_Znam(i64 %1308) #20
  %1410 = getelementptr inbounds %class.LLNL_FEI_Matrix, %class.LLNL_FEI_Matrix* %0, i64 0, i32 14
  %1411 = bitcast i32** %1410 to i8**
  store i8* %1409, i8** %1411, align 8, !tbaa !21
  %1412 = call { i64, i1 } @llvm.umul.with.overflow.i64(i64 %1304, i64 8)
  %1413 = extractvalue { i64, i1 } %1412, 1
  %1414 = extractvalue { i64, i1 } %1412, 0
  %1415 = select i1 %1413, i64 -1, i64 %1414
  %1416 = call noalias nonnull i8* @_Znam(i64 %1415) #20
  %1417 = getelementptr inbounds %class.LLNL_FEI_Matrix, %class.LLNL_FEI_Matrix* %0, i64 0, i32 15
  %1418 = bitcast double** %1417 to i8**
  store i8* %1416, i8** %1418, align 8, !tbaa !22
  %1419 = load i32, i32* %577, align 4, !tbaa !10
  %1420 = icmp sgt i32 %1419, 0
  br i1 %1420, label %1421, label %1456

1421:                                             ; preds = %1408, %1450
  %1422 = phi i64 [ %1452, %1450 ], [ 0, %1408 ]
  %1423 = phi i32 [ %1451, %1450 ], [ 0, %1408 ]
  %1424 = getelementptr inbounds i32, i32* %916, i64 %1422
  %1425 = load i32, i32* %1424, align 4, !tbaa !42
  %1426 = getelementptr inbounds i32, i32* %604, i64 %1422
  %1427 = load i32, i32* %1426, align 4, !tbaa !42
  %1428 = load i32*, i32** %1410, align 8
  %1429 = load double*, double** %1417, align 8
  %1430 = icmp sgt i32 %1427, 0
  br i1 %1430, label %1431, label %1450

1431:                                             ; preds = %1421
  %1432 = add nsw i32 %1427, %1425
  %1433 = sext i32 %1423 to i64
  %1434 = sext i32 %1425 to i64
  %1435 = sext i32 %1432 to i64
  br label %1436

1436:                                             ; preds = %1431, %1436
  %1437 = phi i64 [ %1434, %1431 ], [ %1446, %1436 ]
  %1438 = phi i64 [ %1433, %1431 ], [ %1444, %1436 ]
  %1439 = getelementptr inbounds i32, i32* %917, i64 %1437
  %1440 = load i32, i32* %1439, align 4, !tbaa !42
  %1441 = getelementptr inbounds i32, i32* %1428, i64 %1438
  store i32 %1440, i32* %1441, align 4, !tbaa !42
  %1442 = getelementptr inbounds double, double* %918, i64 %1437
  %1443 = load double, double* %1442, align 8, !tbaa !54
  %1444 = add nsw i64 %1438, 1
  %1445 = getelementptr inbounds double, double* %1429, i64 %1438
  store double %1443, double* %1445, align 8, !tbaa !54
  %1446 = add nsw i64 %1437, 1
  %1447 = icmp slt i64 %1446, %1435
  br i1 %1447, label %1436, label %1448, !llvm.loop !103

1448:                                             ; preds = %1436
  %1449 = trunc i64 %1444 to i32
  br label %1450

1450:                                             ; preds = %1448, %1421
  %1451 = phi i32 [ %1423, %1421 ], [ %1449, %1448 ]
  %1452 = add nuw nsw i64 %1422, 1
  %1453 = load i32, i32* %577, align 4, !tbaa !10
  %1454 = sext i32 %1453 to i64
  %1455 = icmp slt i64 %1452, %1454
  br i1 %1455, label %1421, label %1456, !llvm.loop !104

1456:                                             ; preds = %1450, %1408
  %1457 = icmp eq i32* %917, null
  br i1 %1457, label %1460, label %1458

1458:                                             ; preds = %1456
  %1459 = bitcast i32* %917 to i8*
  call void @_ZdaPv(i8* %1459) #18
  br label %1460

1460:                                             ; preds = %1458, %1456
  %1461 = icmp eq double* %918, null
  br i1 %1461, label %1464, label %1462

1462:                                             ; preds = %1460
  %1463 = bitcast double* %918 to i8*
  call void @_ZdaPv(i8* %1463) #18
  br label %1464

1464:                                             ; preds = %1462, %1460
  %1465 = load i32, i32* %2, align 4, !tbaa !42
  %1466 = add nsw i32 %1465, 1
  %1467 = sext i32 %1466 to i64
  %1468 = call { i64, i1 } @llvm.umul.with.overflow.i64(i64 %1467, i64 4)
  %1469 = extractvalue { i64, i1 } %1468, 1
  %1470 = extractvalue { i64, i1 } %1468, 0
  %1471 = select i1 %1469, i64 -1, i64 %1470
  %1472 = call noalias nonnull i8* @_Znam(i64 %1471) #20
  %1473 = bitcast i8* %1472 to i32*
  %1474 = icmp sgt i32 %1465, 0
  br i1 %1474, label %1475, label %1478

1475:                                             ; preds = %1464
  %1476 = zext i32 %1465 to i64
  %1477 = shl nuw nsw i64 %1476, 2
  call void @llvm.memset.p0i8.i64(i8* nonnull align 4 %1472, i8 0, i64 %1477, i1 false)
  br label %1478

1478:                                             ; preds = %1475, %1464
  %1479 = load i32*, i32** %268, align 8
  %1480 = icmp sgt i32 %1366, 0
  %1481 = sub i32 0, %1366
  %1482 = icmp slt i32 %1465, 0
  br i1 %1482, label %1486, label %1483

1483:                                             ; preds = %1478
  %1484 = add i32 %1465, 1
  %1485 = zext i32 %1484 to i64
  br label %1490

1486:                                             ; preds = %1532, %1478
  %1487 = icmp sgt i32 %1465, 0
  br i1 %1487, label %1488, label %1549

1488:                                             ; preds = %1486
  %1489 = zext i32 %1465 to i64
  br label %1537

1490:                                             ; preds = %1483, %1532
  %1491 = phi i64 [ 0, %1483 ], [ %1535, %1532 ]
  %1492 = getelementptr inbounds i32, i32* %1479, i64 %1491
  %1493 = load i32, i32* %1492, align 4, !tbaa !42
  br i1 %1480, label %1494, label %1509

1494:                                             ; preds = %1490, %1503
  %1495 = phi i32 [ %1506, %1503 ], [ 0, %1490 ]
  %1496 = phi i32 [ %1505, %1503 ], [ %1367, %1490 ]
  %1497 = add nsw i32 %1496, %1495
  %1498 = ashr i32 %1497, 1
  %1499 = sext i32 %1498 to i64
  %1500 = getelementptr inbounds i32, i32* %1345, i64 %1499
  %1501 = load i32, i32* %1500, align 4, !tbaa !42
  %1502 = icmp eq i32 %1501, %1493
  br i1 %1502, label %1523, label %1503

1503:                                             ; preds = %1494
  %1504 = icmp sgt i32 %1501, %1493
  %1505 = select i1 %1504, i32 %1498, i32 %1496
  %1506 = select i1 %1504, i32 %1495, i32 %1498
  %1507 = sub nsw i32 %1505, %1506
  %1508 = icmp sgt i32 %1507, 1
  br i1 %1508, label %1494, label %1509, !llvm.loop !105

1509:                                             ; preds = %1503, %1490
  %1510 = phi i32 [ %1367, %1490 ], [ %1505, %1503 ]
  %1511 = phi i32 [ 0, %1490 ], [ %1506, %1503 ]
  %1512 = sext i32 %1510 to i64
  %1513 = getelementptr inbounds i32, i32* %1345, i64 %1512
  %1514 = load i32, i32* %1513, align 4, !tbaa !42
  %1515 = icmp eq i32 %1514, %1493
  br i1 %1515, label %1523, label %1516

1516:                                             ; preds = %1509
  %1517 = sext i32 %1511 to i64
  %1518 = getelementptr inbounds i32, i32* %1345, i64 %1517
  %1519 = load i32, i32* %1518, align 4, !tbaa !42
  %1520 = icmp ne i32 %1519, %1493
  %1521 = sext i1 %1520 to i32
  %1522 = xor i32 %1511, %1521
  br label %1523

1523:                                             ; preds = %1494, %1509, %1516
  %1524 = phi i32 [ %1510, %1509 ], [ %1522, %1516 ], [ %1498, %1494 ]
  %1525 = icmp eq i32 %1524, -1
  br i1 %1525, label %1532, label %1526

1526:                                             ; preds = %1523
  %1527 = icmp eq i32 %1524, %1481
  br i1 %1527, label %1528, label %1530

1528:                                             ; preds = %1526
  %1529 = sub i32 1, %1524
  br label %1532

1530:                                             ; preds = %1526
  %1531 = call i32 @llvm.abs.i32(i32 %1524, i1 true)
  br label %1532

1532:                                             ; preds = %1530, %1523, %1528
  %1533 = phi i32 [ %1529, %1528 ], [ 0, %1523 ], [ %1531, %1530 ]
  %1534 = getelementptr inbounds i32, i32* %1473, i64 %1491
  store i32 %1533, i32* %1534, align 4, !tbaa !42
  %1535 = add nuw nsw i64 %1491, 1
  %1536 = icmp eq i64 %1535, %1485
  br i1 %1536, label %1486, label %1490, !llvm.loop !106

1537:                                             ; preds = %1488, %1537
  %1538 = phi i64 [ 0, %1488 ], [ %1542, %1537 ]
  %1539 = phi i32 [ 0, %1488 ], [ %1547, %1537 ]
  %1540 = getelementptr inbounds i32, i32* %1473, i64 %1538
  %1541 = load i32, i32* %1540, align 4, !tbaa !42
  %1542 = add nuw nsw i64 %1538, 1
  %1543 = getelementptr inbounds i32, i32* %1473, i64 %1542
  %1544 = load i32, i32* %1543, align 4, !tbaa !42
  %1545 = icmp ne i32 %1541, %1544
  %1546 = zext i1 %1545 to i32
  %1547 = add nuw nsw i32 %1539, %1546
  %1548 = icmp eq i64 %1542, %1489
  br i1 %1548, label %1549, label %1537, !llvm.loop !107

1549:                                             ; preds = %1537, %1486
  %1550 = phi i32 [ 0, %1486 ], [ %1547, %1537 ]
  %1551 = icmp eq i32 %1550, 0
  br i1 %1551, label %1559, label %1552

1552:                                             ; preds = %1549
  %1553 = zext i32 %1550 to i64
  %1554 = shl nuw nsw i64 %1553, 2
  %1555 = call noalias nonnull i8* @_Znam(i64 %1554) #20
  %1556 = bitcast i8* %1555 to i32*
  %1557 = call noalias nonnull i8* @_Znam(i64 %1554) #20
  %1558 = bitcast i8* %1557 to i32*
  br label %1559

1559:                                             ; preds = %1549, %1552
  %1560 = phi i32* [ %1558, %1552 ], [ null, %1549 ]
  %1561 = phi i32* [ %1556, %1552 ], [ null, %1549 ]
  %1562 = icmp sgt i32 %1465, 0
  br i1 %1562, label %1563, label %1584

1563:                                             ; preds = %1559
  %1564 = zext i32 %1465 to i64
  br label %1565

1565:                                             ; preds = %1563, %1581
  %1566 = phi i64 [ 0, %1563 ], [ %1570, %1581 ]
  %1567 = phi i32 [ 0, %1563 ], [ %1582, %1581 ]
  %1568 = getelementptr inbounds i32, i32* %1473, i64 %1566
  %1569 = load i32, i32* %1568, align 4, !tbaa !42
  %1570 = add nuw nsw i64 %1566, 1
  %1571 = getelementptr inbounds i32, i32* %1473, i64 %1570
  %1572 = load i32, i32* %1571, align 4, !tbaa !42
  %1573 = icmp eq i32 %1572, %1569
  br i1 %1573, label %1581, label %1574

1574:                                             ; preds = %1565
  %1575 = sub nsw i32 %1572, %1569
  %1576 = sext i32 %1567 to i64
  %1577 = getelementptr inbounds i32, i32* %1560, i64 %1576
  store i32 %1575, i32* %1577, align 4, !tbaa !42
  %1578 = add nsw i32 %1567, 1
  %1579 = getelementptr inbounds i32, i32* %1561, i64 %1576
  %1580 = trunc i64 %1566 to i32
  store i32 %1580, i32* %1579, align 4, !tbaa !42
  br label %1581

1581:                                             ; preds = %1565, %1574
  %1582 = phi i32 [ %1578, %1574 ], [ %1567, %1565 ]
  %1583 = icmp eq i64 %1570, %1564
  br i1 %1583, label %1584, label %1565, !llvm.loop !108

1584:                                             ; preds = %1581, %1559
  %1585 = phi i32 [ 0, %1559 ], [ %1582, %1581 ]
  call void @_ZdaPv(i8* %1309) #18
  call void @_ZdaPv(i8* %1313) #18
  call void @_ZdaPv(i8* %1472) #18
  %1586 = icmp sgt i32 %1585, 0
  br i1 %1586, label %1587, label %1616

1587:                                             ; preds = %1584
  %1588 = zext i32 %1585 to i64
  br label %1589

1589:                                             ; preds = %1587, %1589
  %1590 = phi i64 [ 0, %1587 ], [ %1595, %1589 ]
  %1591 = phi i32 [ 0, %1587 ], [ %1594, %1589 ]
  %1592 = getelementptr inbounds i32, i32* %1560, i64 %1590
  %1593 = load i32, i32* %1592, align 4, !tbaa !42
  %1594 = add nsw i32 %1593, %1591
  %1595 = add nuw nsw i64 %1590, 1
  %1596 = icmp eq i64 %1595, %1588
  br i1 %1596, label %1597, label %1589, !llvm.loop !109

1597:                                             ; preds = %1589
  %1598 = sext i32 %1594 to i64
  %1599 = call { i64, i1 } @llvm.umul.with.overflow.i64(i64 %1598, i64 4)
  %1600 = extractvalue { i64, i1 } %1599, 1
  %1601 = extractvalue { i64, i1 } %1599, 0
  %1602 = select i1 %1600, i64 -1, i64 %1601
  %1603 = call noalias nonnull i8* @_Znam(i64 %1602) #20
  %1604 = bitcast i8* %1603 to i32*
  %1605 = load i32, i32* %577, align 4
  %1606 = icmp sgt i32 %1594, 0
  br i1 %1606, label %1607, label %1616

1607:                                             ; preds = %1597
  %1608 = zext i32 %1594 to i64
  br label %1609

1609:                                             ; preds = %1607, %1609
  %1610 = phi i64 [ 0, %1607 ], [ %1614, %1609 ]
  %1611 = trunc i64 %1610 to i32
  %1612 = add nsw i32 %1605, %1611
  %1613 = getelementptr inbounds i32, i32* %1604, i64 %1610
  store i32 %1612, i32* %1613, align 4, !tbaa !42
  %1614 = add nuw nsw i64 %1610, 1
  %1615 = icmp eq i64 %1614, %1608
  br i1 %1615, label %1616, label %1609, !llvm.loop !110

1616:                                             ; preds = %1609, %1597, %1300, %1584
  %1617 = phi i32 [ %1585, %1584 ], [ 0, %1300 ], [ %1585, %1597 ], [ %1585, %1609 ]
  %1618 = phi i32* [ %1560, %1584 ], [ null, %1300 ], [ %1560, %1597 ], [ %1560, %1609 ]
  %1619 = phi i32* [ %1561, %1584 ], [ null, %1300 ], [ %1561, %1597 ], [ %1561, %1609 ]
  %1620 = phi i32* [ null, %1584 ], [ null, %1300 ], [ %1604, %1597 ], [ %1604, %1609 ]
  call void @_ZdaPv(i8* %603) #18
  %1621 = load i32, i32* %2, align 4, !tbaa !42
  %1622 = sext i32 %1621 to i64
  %1623 = call { i64, i1 } @llvm.umul.with.overflow.i64(i64 %1622, i64 4)
  %1624 = extractvalue { i64, i1 } %1623, 1
  %1625 = extractvalue { i64, i1 } %1623, 0
  %1626 = select i1 %1624, i64 -1, i64 %1625
  %1627 = call noalias nonnull i8* @_Znam(i64 %1626) #20
  %1628 = bitcast i8* %1627 to i32*
  %1629 = icmp sgt i32 %1621, 0
  br i1 %1629, label %1630, label %1633

1630:                                             ; preds = %1616
  %1631 = zext i32 %1621 to i64
  %1632 = shl nuw nsw i64 %1631, 2
  call void @llvm.memset.p0i8.i64(i8* nonnull align 4 %1627, i8 0, i64 %1632, i1 false)
  br label %1633

1633:                                             ; preds = %1630, %1616
  %1634 = icmp sgt i32 %1617, 0
  br i1 %1634, label %1635, label %1645

1635:                                             ; preds = %1633
  %1636 = zext i32 %1617 to i64
  br label %1637

1637:                                             ; preds = %1635, %1637
  %1638 = phi i64 [ 0, %1635 ], [ %1643, %1637 ]
  %1639 = getelementptr inbounds i32, i32* %1619, i64 %1638
  %1640 = load i32, i32* %1639, align 4, !tbaa !42
  %1641 = sext i32 %1640 to i64
  %1642 = getelementptr inbounds i32, i32* %1628, i64 %1641
  store i32 1, i32* %1642, align 4, !tbaa !42
  %1643 = add nuw nsw i64 %1638, 1
  %1644 = icmp eq i64 %1643, %1636
  br i1 %1644, label %1645, label %1637, !llvm.loop !111

1645:                                             ; preds = %1637, %1633
  %1646 = call noalias nonnull i8* @_Znam(i64 %1626) #20
  %1647 = bitcast i8* %1646 to i32*
  %1648 = load i32, i32* %6, align 8, !tbaa !3
  %1649 = call i32 @MPI_Allreduce(i8* nonnull %1627, i8* nonnull %1646, i32 %1621, i32 1275069445, i32 1476395011, i32 %1648)
  %1650 = load i32, i32* %270, align 4, !tbaa !45
  %1651 = sext i32 %1650 to i64
  %1652 = getelementptr inbounds i32, i32* %1647, i64 %1651
  %1653 = load i32, i32* %1652, align 4, !tbaa !42
  call void @_ZdaPv(i8* %1627) #18
  call void @_ZdaPv(i8* %1646) #18
  %1654 = icmp sgt i32 %1653, 0
  br i1 %1654, label %1655, label %1667

1655:                                             ; preds = %1645
  %1656 = sext i32 %1653 to i64
  %1657 = call { i64, i1 } @llvm.umul.with.overflow.i64(i64 %1656, i64 4)
  %1658 = extractvalue { i64, i1 } %1657, 1
  %1659 = extractvalue { i64, i1 } %1657, 0
  %1660 = select i1 %1658, i64 -1, i64 %1659
  %1661 = call noalias nonnull i8* @_Znam(i64 %1660) #20
  %1662 = bitcast i8* %1661 to i32*
  %1663 = call noalias nonnull i8* @_Znam(i64 %1660) #20
  %1664 = bitcast i8* %1663 to i32*
  %1665 = call noalias nonnull i8* @_Znam(i64 %1660) #20
  %1666 = bitcast i8* %1665 to i32*
  br label %1667

1667:                                             ; preds = %1655, %1645
  %1668 = phi i32* [ %1664, %1655 ], [ null, %1645 ]
  %1669 = phi i32* [ %1662, %1655 ], [ null, %1645 ]
  %1670 = phi i32* [ %1666, %1655 ], [ %412, %1645 ]
  %1671 = icmp sgt i32 %1653, 0
  br i1 %1671, label %1672, label %1674

1672:                                             ; preds = %1667
  %1673 = zext i32 %1653 to i64
  br label %1678

1674:                                             ; preds = %1678, %1667
  %1675 = icmp sgt i32 %1617, 0
  br i1 %1675, label %1676, label %1687

1676:                                             ; preds = %1674
  %1677 = zext i32 %1617 to i64
  br label %1692

1678:                                             ; preds = %1672, %1678
  %1679 = phi i64 [ 0, %1672 ], [ %1685, %1678 ]
  %1680 = getelementptr inbounds i32, i32* %1668, i64 %1679
  %1681 = bitcast i32* %1680 to i8*
  %1682 = load i32, i32* %6, align 8, !tbaa !3
  %1683 = getelementptr inbounds i32, i32* %1670, i64 %1679
  %1684 = call i32 @MPI_Irecv(i8* %1681, i32 1, i32 1275069445, i32 -2, i32 12233, i32 %1682, i32* %1683)
  %1685 = add nuw nsw i64 %1679, 1
  %1686 = icmp eq i64 %1685, %1673
  br i1 %1686, label %1674, label %1678, !llvm.loop !112

1687:                                             ; preds = %1692, %1674
  %1688 = getelementptr inbounds %struct.MPI_Status, %struct.MPI_Status* %3, i64 0, i32 2
  %1689 = icmp sgt i32 %1653, 0
  br i1 %1689, label %1690, label %1710

1690:                                             ; preds = %1687
  %1691 = zext i32 %1653 to i64
  br label %1702

1692:                                             ; preds = %1676, %1692
  %1693 = phi i64 [ 0, %1676 ], [ %1700, %1692 ]
  %1694 = getelementptr inbounds i32, i32* %1618, i64 %1693
  %1695 = bitcast i32* %1694 to i8*
  %1696 = getelementptr inbounds i32, i32* %1619, i64 %1693
  %1697 = load i32, i32* %1696, align 4, !tbaa !42
  %1698 = load i32, i32* %6, align 8, !tbaa !3
  %1699 = call i32 @MPI_Send(i8* %1695, i32 1, i32 1275069445, i32 %1697, i32 12233, i32 %1698)
  %1700 = add nuw nsw i64 %1693, 1
  %1701 = icmp eq i64 %1700, %1677
  br i1 %1701, label %1687, label %1692, !llvm.loop !113

1702:                                             ; preds = %1690, %1702
  %1703 = phi i64 [ 0, %1690 ], [ %1708, %1702 ]
  %1704 = getelementptr inbounds i32, i32* %1670, i64 %1703
  %1705 = call i32 @MPI_Wait(i32* %1704, %struct.MPI_Status* nonnull %3)
  %1706 = load i32, i32* %1688, align 4, !tbaa !114
  %1707 = getelementptr inbounds i32, i32* %1669, i64 %1703
  store i32 %1706, i32* %1707, align 4, !tbaa !42
  %1708 = add nuw nsw i64 %1703, 1
  %1709 = icmp eq i64 %1708, %1691
  br i1 %1709, label %1710, label %1702, !llvm.loop !116

1710:                                             ; preds = %1702, %1687
  br i1 %1654, label %1711, label %1729

1711:                                             ; preds = %1710
  %1712 = zext i32 %1653 to i64
  br label %1713

1713:                                             ; preds = %1711, %1713
  %1714 = phi i64 [ 0, %1711 ], [ %1719, %1713 ]
  %1715 = phi i32 [ 0, %1711 ], [ %1718, %1713 ]
  %1716 = getelementptr inbounds i32, i32* %1668, i64 %1714
  %1717 = load i32, i32* %1716, align 4, !tbaa !42
  %1718 = add nsw i32 %1717, %1715
  %1719 = add nuw nsw i64 %1714, 1
  %1720 = icmp eq i64 %1719, %1712
  br i1 %1720, label %1721, label %1713, !llvm.loop !117

1721:                                             ; preds = %1713
  %1722 = sext i32 %1718 to i64
  %1723 = call { i64, i1 } @llvm.umul.with.overflow.i64(i64 %1722, i64 4)
  %1724 = extractvalue { i64, i1 } %1723, 1
  %1725 = extractvalue { i64, i1 } %1723, 0
  %1726 = select i1 %1724, i64 -1, i64 %1725
  %1727 = call noalias nonnull i8* @_Znam(i64 %1726) #20
  %1728 = bitcast i8* %1727 to i32*
  br label %1729

1729:                                             ; preds = %1721, %1710
  %1730 = phi i32* [ %1728, %1721 ], [ null, %1710 ]
  %1731 = icmp sgt i32 %1653, 0
  br i1 %1731, label %1732, label %1734

1732:                                             ; preds = %1729
  %1733 = zext i32 %1653 to i64
  br label %1739

1734:                                             ; preds = %1739, %1729
  %1735 = getelementptr inbounds %class.LLNL_FEI_Matrix, %class.LLNL_FEI_Matrix* %0, i64 0, i32 9
  %1736 = icmp sgt i32 %1617, 0
  br i1 %1736, label %1737, label %1756

1737:                                             ; preds = %1734
  %1738 = zext i32 %1617 to i64
  br label %1760

1739:                                             ; preds = %1732, %1739
  %1740 = phi i64 [ 0, %1732 ], [ %1754, %1739 ]
  %1741 = phi i32 [ 0, %1732 ], [ %1753, %1739 ]
  %1742 = sext i32 %1741 to i64
  %1743 = getelementptr inbounds i32, i32* %1730, i64 %1742
  %1744 = bitcast i32* %1743 to i8*
  %1745 = getelementptr inbounds i32, i32* %1668, i64 %1740
  %1746 = load i32, i32* %1745, align 4, !tbaa !42
  %1747 = getelementptr inbounds i32, i32* %1669, i64 %1740
  %1748 = load i32, i32* %1747, align 4, !tbaa !42
  %1749 = load i32, i32* %6, align 8, !tbaa !3
  %1750 = getelementptr inbounds i32, i32* %1670, i64 %1740
  %1751 = call i32 @MPI_Irecv(i8* %1744, i32 %1746, i32 1275069445, i32 %1748, i32 12234, i32 %1749, i32* %1750)
  %1752 = load i32, i32* %1745, align 4, !tbaa !42
  %1753 = add nsw i32 %1752, %1741
  %1754 = add nuw nsw i64 %1740, 1
  %1755 = icmp eq i64 %1754, %1733
  br i1 %1755, label %1734, label %1739, !llvm.loop !118

1756:                                             ; preds = %1760, %1734
  %1757 = icmp sgt i32 %1653, 0
  br i1 %1757, label %1758, label %1782

1758:                                             ; preds = %1756
  %1759 = zext i32 %1653 to i64
  br label %1776

1760:                                             ; preds = %1737, %1760
  %1761 = phi i64 [ 0, %1737 ], [ %1774, %1760 ]
  %1762 = phi i32 [ 0, %1737 ], [ %1768, %1760 ]
  %1763 = load i32*, i32** %1735, align 8, !tbaa !16
  %1764 = sext i32 %1762 to i64
  %1765 = getelementptr inbounds i32, i32* %1763, i64 %1764
  %1766 = getelementptr inbounds i32, i32* %1618, i64 %1761
  %1767 = load i32, i32* %1766, align 4, !tbaa !42
  %1768 = add nsw i32 %1767, %1762
  %1769 = bitcast i32* %1765 to i8*
  %1770 = getelementptr inbounds i32, i32* %1619, i64 %1761
  %1771 = load i32, i32* %1770, align 4, !tbaa !42
  %1772 = load i32, i32* %6, align 8, !tbaa !3
  %1773 = call i32 @MPI_Send(i8* %1769, i32 %1767, i32 1275069445, i32 %1771, i32 12234, i32 %1772)
  %1774 = add nuw nsw i64 %1761, 1
  %1775 = icmp eq i64 %1774, %1738
  br i1 %1775, label %1756, label %1760, !llvm.loop !119

1776:                                             ; preds = %1758, %1776
  %1777 = phi i64 [ 0, %1758 ], [ %1780, %1776 ]
  %1778 = getelementptr inbounds i32, i32* %1670, i64 %1777
  %1779 = call i32 @MPI_Wait(i32* %1778, %struct.MPI_Status* nonnull %3)
  %1780 = add nuw nsw i64 %1777, 1
  %1781 = icmp eq i64 %1780, %1759
  br i1 %1781, label %1782, label %1776, !llvm.loop !120

1782:                                             ; preds = %1776, %1756
  %1783 = xor i1 %1654, true
  %1784 = icmp eq i32* %1670, null
  %1785 = select i1 %1783, i1 true, i1 %1784
  br i1 %1785, label %1788, label %1786

1786:                                             ; preds = %1782
  %1787 = bitcast i32* %1670 to i8*
  call void @_ZdaPv(i8* %1787) #18
  br label %1788

1788:                                             ; preds = %1786, %1782
  store i32 %1617, i32* %27, align 8, !tbaa !40
  %1789 = load i32*, i32** %29, align 8, !tbaa !24
  %1790 = icmp eq i32* %1789, null
  br i1 %1790, label %1793, label %1791

1791:                                             ; preds = %1788
  %1792 = bitcast i32* %1789 to i8*
  call void @_ZdaPv(i8* %1792) #18
  br label %1793

1793:                                             ; preds = %1791, %1788
  %1794 = load i32*, i32** %31, align 8, !tbaa !25
  %1795 = icmp eq i32* %1794, null
  br i1 %1795, label %1798, label %1796

1796:                                             ; preds = %1793
  %1797 = bitcast i32* %1794 to i8*
  call void @_ZdaPv(i8* %1797) #18
  br label %1798

1798:                                             ; preds = %1796, %1793
  %1799 = load i32*, i32** %33, align 8, !tbaa !26
  %1800 = icmp eq i32* %1799, null
  br i1 %1800, label %1803, label %1801

1801:                                             ; preds = %1798
  %1802 = bitcast i32* %1799 to i8*
  call void @_ZdaPv(i8* %1802) #18
  br label %1803

1803:                                             ; preds = %1801, %1798
  store i32* %1618, i32** %29, align 8, !tbaa !24
  store i32* %1619, i32** %31, align 8, !tbaa !25
  store i32* %1620, i32** %33, align 8, !tbaa !26
  store i32 %1653, i32* %20, align 8, !tbaa !41
  %1804 = load i32*, i32** %22, align 8, !tbaa !29
  %1805 = icmp eq i32* %1804, null
  br i1 %1805, label %1808, label %1806

1806:                                             ; preds = %1803
  %1807 = bitcast i32* %1804 to i8*
  call void @_ZdaPv(i8* %1807) #18
  br label %1808

1808:                                             ; preds = %1806, %1803
  %1809 = load i32*, i32** %24, align 8, !tbaa !30
  %1810 = icmp eq i32* %1809, null
  br i1 %1810, label %1813, label %1811

1811:                                             ; preds = %1808
  %1812 = bitcast i32* %1809 to i8*
  call void @_ZdaPv(i8* %1812) #18
  br label %1813

1813:                                             ; preds = %1811, %1808
  %1814 = load i32*, i32** %26, align 8, !tbaa !31
  %1815 = icmp eq i32* %1814, null
  br i1 %1815, label %1818, label %1816

1816:                                             ; preds = %1813
  %1817 = bitcast i32* %1814 to i8*
  call void @_ZdaPv(i8* %1817) #18
  br label %1818

1818:                                             ; preds = %1816, %1813
  store i32* %1668, i32** %22, align 8, !tbaa !29
  store i32* %1669, i32** %24, align 8, !tbaa !30
  store i32* %1730, i32** %26, align 8, !tbaa !31
  %1819 = load i32, i32* %20, align 8, !tbaa !41
  %1820 = icmp sgt i32 %1819, 0
  br i1 %1820, label %1821, label %1861

1821:                                             ; preds = %1818, %1854
  %1822 = phi i64 [ %1857, %1854 ], [ 0, %1818 ]
  %1823 = phi i32 [ %1856, %1854 ], [ 0, %1818 ]
  %1824 = load i32*, i32** %22, align 8, !tbaa !29
  %1825 = getelementptr inbounds i32, i32* %1824, i64 %1822
  %1826 = load i32, i32* %1825, align 4, !tbaa !42
  %1827 = icmp sgt i32 %1826, 0
  br i1 %1827, label %1828, label %1854

1828:                                             ; preds = %1821
  %1829 = sext i32 %1823 to i64
  br label %1830

1830:                                             ; preds = %1828, %1847
  %1831 = phi i64 [ 0, %1828 ], [ %1848, %1847 ]
  %1832 = add nsw i64 %1831, %1829
  %1833 = getelementptr inbounds i32, i32* %1730, i64 %1832
  %1834 = load i32, i32* %1833, align 4, !tbaa !42
  %1835 = icmp slt i32 %1834, %274
  br i1 %1835, label %1840, label %1836

1836:                                             ; preds = %1830
  %1837 = load i32, i32* %577, align 4, !tbaa !10
  %1838 = add nsw i32 %1837, %274
  %1839 = icmp slt i32 %1834, %1838
  br i1 %1839, label %1845, label %1840

1840:                                             ; preds = %1836, %1830
  %1841 = load i32, i32* %270, align 4, !tbaa !45
  %1842 = load i32, i32* %577, align 4, !tbaa !10
  %1843 = add nsw i32 %1842, %274
  %1844 = call i32 (i8*, ...) @printf(i8* nonnull dereferenceable(1) getelementptr inbounds ([57 x i8], [57 x i8]* @.str.12, i64 0, i64 0), i32 %1841, i32 %1834, i32 %274, i32 %1843)
  br label %1847

1845:                                             ; preds = %1836
  %1846 = sub nsw i32 %1834, %274
  store i32 %1846, i32* %1833, align 4, !tbaa !42
  br label %1847

1847:                                             ; preds = %1840, %1845
  %1848 = add nuw nsw i64 %1831, 1
  %1849 = load i32*, i32** %22, align 8, !tbaa !29
  %1850 = getelementptr inbounds i32, i32* %1849, i64 %1822
  %1851 = load i32, i32* %1850, align 4, !tbaa !42
  %1852 = sext i32 %1851 to i64
  %1853 = icmp slt i64 %1848, %1852
  br i1 %1853, label %1830, label %1854, !llvm.loop !121

1854:                                             ; preds = %1847, %1821
  %1855 = phi i32 [ %1826, %1821 ], [ %1851, %1847 ]
  %1856 = add nsw i32 %1855, %1823
  %1857 = add nuw nsw i64 %1822, 1
  %1858 = load i32, i32* %20, align 8, !tbaa !41
  %1859 = sext i32 %1858 to i64
  %1860 = icmp slt i64 %1857, %1859
  br i1 %1860, label %1821, label %1861, !llvm.loop !122

1861:                                             ; preds = %1854, %1818
  %1862 = getelementptr inbounds %class.LLNL_FEI_Matrix, %class.LLNL_FEI_Matrix* %0, i64 0, i32 21
  %1863 = load double*, double** %1862, align 8, !tbaa !27
  %1864 = icmp eq double* %1863, null
  br i1 %1864, label %1867, label %1865

1865:                                             ; preds = %1861
  %1866 = bitcast double* %1863 to i8*
  call void @_ZdaPv(i8* %1866) #18
  br label %1867

1867:                                             ; preds = %1865, %1861
  %1868 = getelementptr inbounds %class.LLNL_FEI_Matrix, %class.LLNL_FEI_Matrix* %0, i64 0, i32 22
  %1869 = load double*, double** %1868, align 8, !tbaa !28
  %1870 = icmp eq double* %1869, null
  br i1 %1870, label %1873, label %1871

1871:                                             ; preds = %1867
  %1872 = bitcast double* %1869 to i8*
  call void @_ZdaPv(i8* %1872) #18
  br label %1873

1873:                                             ; preds = %1871, %1867
  %1874 = load i32, i32* %27, align 8, !tbaa !40
  %1875 = icmp sgt i32 %1874, 0
  br i1 %1875, label %1876, label %1897

1876:                                             ; preds = %1873
  %1877 = load i32*, i32** %29, align 8
  %1878 = zext i32 %1874 to i64
  br label %1879

1879:                                             ; preds = %1876, %1879
  %1880 = phi i64 [ 0, %1876 ], [ %1885, %1879 ]
  %1881 = phi i32 [ 0, %1876 ], [ %1884, %1879 ]
  %1882 = getelementptr inbounds i32, i32* %1877, i64 %1880
  %1883 = load i32, i32* %1882, align 4, !tbaa !42
  %1884 = add nsw i32 %1883, %1881
  %1885 = add nuw nsw i64 %1880, 1
  %1886 = icmp eq i64 %1885, %1878
  br i1 %1886, label %1887, label %1879, !llvm.loop !123

1887:                                             ; preds = %1879
  %1888 = sext i32 %1884 to i64
  %1889 = call { i64, i1 } @llvm.umul.with.overflow.i64(i64 %1888, i64 8)
  %1890 = extractvalue { i64, i1 } %1889, 1
  %1891 = extractvalue { i64, i1 } %1889, 0
  %1892 = select i1 %1890, i64 -1, i64 %1891
  %1893 = call noalias nonnull i8* @_Znam(i64 %1892) #20
  %1894 = bitcast double** %1862 to i8**
  store i8* %1893, i8** %1894, align 8, !tbaa !27
  %1895 = call noalias nonnull i8* @_Znam(i64 %1892) #20
  %1896 = bitcast double** %1868 to i8**
  store i8* %1895, i8** %1896, align 8, !tbaa !28
  br label %1897

1897:                                             ; preds = %1887, %1873
  %1898 = getelementptr inbounds %class.LLNL_FEI_Matrix, %class.LLNL_FEI_Matrix* %0, i64 0, i32 27
  %1899 = load double*, double** %1898, align 8, !tbaa !32
  %1900 = icmp eq double* %1899, null
  br i1 %1900, label %1903, label %1901

1901:                                             ; preds = %1897
  %1902 = bitcast double* %1899 to i8*
  call void @_ZdaPv(i8* %1902) #18
  br label %1903

1903:                                             ; preds = %1901, %1897
  %1904 = load i32, i32* %20, align 8, !tbaa !41
  %1905 = icmp sgt i32 %1904, 0
  br i1 %1905, label %1906, label %1925

1906:                                             ; preds = %1903
  %1907 = load i32*, i32** %22, align 8
  %1908 = zext i32 %1904 to i64
  br label %1909

1909:                                             ; preds = %1906, %1909
  %1910 = phi i64 [ 0, %1906 ], [ %1915, %1909 ]
  %1911 = phi i32 [ 0, %1906 ], [ %1914, %1909 ]
  %1912 = getelementptr inbounds i32, i32* %1907, i64 %1910
  %1913 = load i32, i32* %1912, align 4, !tbaa !42
  %1914 = add nsw i32 %1913, %1911
  %1915 = add nuw nsw i64 %1910, 1
  %1916 = icmp eq i64 %1915, %1908
  br i1 %1916, label %1917, label %1909, !llvm.loop !124

1917:                                             ; preds = %1909
  %1918 = sext i32 %1914 to i64
  %1919 = call { i64, i1 } @llvm.umul.with.overflow.i64(i64 %1918, i64 8)
  %1920 = extractvalue { i64, i1 } %1919, 1
  %1921 = extractvalue { i64, i1 } %1919, 0
  %1922 = select i1 %1920, i64 -1, i64 %1921
  %1923 = call noalias nonnull i8* @_Znam(i64 %1922) #20
  %1924 = bitcast double** %1898 to i8**
  store i8* %1923, i8** %1924, align 8, !tbaa !32
  br label %1925

1925:                                             ; preds = %1917, %1903
  %1926 = getelementptr inbounds %class.LLNL_FEI_Matrix, %class.LLNL_FEI_Matrix* %0, i64 0, i32 28
  %1927 = load i32*, i32** %1926, align 8, !tbaa !33
  %1928 = icmp eq i32* %1927, null
  br i1 %1928, label %1931, label %1929

1929:                                             ; preds = %1925
  %1930 = bitcast i32* %1927 to i8*
  call void @_ZdaPv(i8* %1930) #18
  br label %1931

1931:                                             ; preds = %1929, %1925
  %1932 = load i32, i32* %27, align 8, !tbaa !40
  %1933 = load i32, i32* %20, align 8, !tbaa !41
  %1934 = add nsw i32 %1933, %1932
  %1935 = icmp sgt i32 %1934, 0
  br i1 %1935, label %1936, label %1944

1936:                                             ; preds = %1931
  %1937 = sext i32 %1934 to i64
  %1938 = call { i64, i1 } @llvm.umul.with.overflow.i64(i64 %1937, i64 4)
  %1939 = extractvalue { i64, i1 } %1938, 1
  %1940 = extractvalue { i64, i1 } %1938, 0
  %1941 = select i1 %1939, i64 -1, i64 %1940
  %1942 = call noalias nonnull i8* @_Znam(i64 %1941) #20
  %1943 = bitcast i32** %1926 to i8**
  store i8* %1942, i8** %1943, align 8, !tbaa !33
  br label %1944

1944:                                             ; preds = %1936, %1931
  %1945 = load i32, i32* %12, align 8, !tbaa !35
  %1946 = icmp sgt i32 %1945, 2
  br i1 %1946, label %1947, label %1950

1947:                                             ; preds = %1944
  %1948 = load i32, i32* %270, align 4, !tbaa !45
  %1949 = call i32 (i8*, ...) @printf(i8* nonnull dereferenceable(1) getelementptr inbounds ([34 x i8], [34 x i8]* @.str.13, i64 0, i64 0), i32 %1948)
  br label %1950

1950:                                             ; preds = %1944, %1947, %1
  call void @llvm.lifetime.end.p0i8(i64 20, i8* nonnull %5) #19
  call void @llvm.lifetime.end.p0i8(i64 4, i8* nonnull %4) #19
  ret void
}

; Function Attrs: mustprogress nofree nounwind uwtable
define dso_local void @_ZN15LLNL_FEI_Matrix11printMatrixEv(%class.LLNL_FEI_Matrix* nonnull readonly align 8 dereferenceable(216) %0) local_unnamed_addr #5 align 2 {
  %2 = alloca [20 x i8], align 16
  %3 = getelementptr inbounds [20 x i8], [20 x i8]* %2, i64 0, i64 0
  call void @llvm.lifetime.start.p0i8(i64 20, i8* nonnull %3) #19
  %4 = getelementptr inbounds %class.LLNL_FEI_Matrix, %class.LLNL_FEI_Matrix* %0, i64 0, i32 1
  %5 = load i32, i32* %4, align 4, !tbaa !45
  %6 = call i32 (i8*, i8*, ...) @sprintf(i8* nonnull %3, i8* nonnull dereferenceable(1) getelementptr inbounds ([7 x i8], [7 x i8]* @.str.7, i64 0, i64 0), i32 %5) #19
  %7 = call %struct._IO_FILE* @fopen(i8* nonnull %3, i8* getelementptr inbounds ([2 x i8], [2 x i8]* @.str.8, i64 0, i64 0))
  %8 = getelementptr inbounds %class.LLNL_FEI_Matrix, %class.LLNL_FEI_Matrix* %0, i64 0, i32 30
  %9 = load i32, i32* %8, align 4, !tbaa !9
  %10 = icmp eq i32 %9, 1
  %11 = getelementptr inbounds %class.LLNL_FEI_Matrix, %class.LLNL_FEI_Matrix* %0, i64 0, i32 3
  %12 = load i32, i32* %11, align 4
  %13 = getelementptr inbounds %class.LLNL_FEI_Matrix, %class.LLNL_FEI_Matrix* %0, i64 0, i32 5
  %14 = load i32, i32* %13, align 4
  %15 = select i1 %10, i32 %14, i32 0
  %16 = add nsw i32 %15, %12
  %17 = getelementptr inbounds %class.LLNL_FEI_Matrix, %class.LLNL_FEI_Matrix* %0, i64 0, i32 10
  %18 = load i32*, i32** %17, align 8, !tbaa !17
  %19 = sext i32 %16 to i64
  %20 = getelementptr inbounds i32, i32* %18, i64 %19
  %21 = load i32, i32* %20, align 4, !tbaa !42
  %22 = getelementptr inbounds %class.LLNL_FEI_Matrix, %class.LLNL_FEI_Matrix* %0, i64 0, i32 13
  %23 = load i32*, i32** %22, align 8, !tbaa !20
  %24 = icmp eq i32* %23, null
  br i1 %24, label %29, label %25

25:                                               ; preds = %1
  %26 = getelementptr inbounds i32, i32* %23, i64 %19
  %27 = load i32, i32* %26, align 4, !tbaa !42
  %28 = add nsw i32 %27, %21
  br label %29

29:                                               ; preds = %25, %1
  %30 = phi i32 [ %28, %25 ], [ %21, %1 ]
  %31 = call i32 (%struct._IO_FILE*, i8*, ...) @fprintf(%struct._IO_FILE* %7, i8* getelementptr inbounds ([11 x i8], [11 x i8]* @.str.9, i64 0, i64 0), i32 %16, i32 %30)
  %32 = getelementptr inbounds %class.LLNL_FEI_Matrix, %class.LLNL_FEI_Matrix* %0, i64 0, i32 7
  %33 = load i32*, i32** %32, align 8, !tbaa !14
  %34 = load i32, i32* %4, align 4, !tbaa !45
  %35 = sext i32 %34 to i64
  %36 = getelementptr inbounds i32, i32* %33, i64 %35
  %37 = load i32, i32* %36, align 4, !tbaa !42
  %38 = getelementptr inbounds %class.LLNL_FEI_Matrix, %class.LLNL_FEI_Matrix* %0, i64 0, i32 11
  %39 = add i32 %37, 1
  %40 = add i32 %37, 1
  %41 = getelementptr inbounds %class.LLNL_FEI_Matrix, %class.LLNL_FEI_Matrix* %0, i64 0, i32 12
  %42 = getelementptr inbounds %class.LLNL_FEI_Matrix, %class.LLNL_FEI_Matrix* %0, i64 0, i32 11
  %43 = add i32 %37, 1
  %44 = add i32 %37, 1
  %45 = getelementptr inbounds %class.LLNL_FEI_Matrix, %class.LLNL_FEI_Matrix* %0, i64 0, i32 12
  %46 = getelementptr inbounds %class.LLNL_FEI_Matrix, %class.LLNL_FEI_Matrix* %0, i64 0, i32 9
  %47 = getelementptr inbounds %class.LLNL_FEI_Matrix, %class.LLNL_FEI_Matrix* %0, i64 0, i32 14
  %48 = add i32 %37, 1
  %49 = getelementptr inbounds %class.LLNL_FEI_Matrix, %class.LLNL_FEI_Matrix* %0, i64 0, i32 15
  %50 = load i32, i32* %11, align 4, !tbaa !10
  %51 = icmp sgt i32 %50, 0
  br i1 %51, label %52, label %157

52:                                               ; preds = %29, %153
  %53 = phi i64 [ %57, %153 ], [ 0, %29 ]
  %54 = load i32*, i32** %17, align 8, !tbaa !17
  %55 = getelementptr inbounds i32, i32* %54, i64 %53
  %56 = load i32, i32* %55, align 4, !tbaa !42
  %57 = add nuw nsw i64 %53, 1
  %58 = trunc i64 %53 to i32
  %59 = add i32 %39, %58
  %60 = getelementptr inbounds i32, i32* %54, i64 %57
  %61 = load i32, i32* %60, align 4, !tbaa !42
  %62 = icmp slt i32 %56, %61
  br i1 %62, label %63, label %85

63:                                               ; preds = %52
  %64 = sext i32 %56 to i64
  br label %65

65:                                               ; preds = %63, %78
  %66 = phi i64 [ %64, %63 ], [ %79, %78 ]
  %67 = load i32*, i32** %38, align 8, !tbaa !18
  %68 = getelementptr inbounds i32, i32* %67, i64 %66
  %69 = load i32, i32* %68, align 4, !tbaa !42
  %70 = zext i32 %69 to i64
  %71 = icmp eq i64 %53, %70
  br i1 %71, label %72, label %78

72:                                               ; preds = %65
  %73 = add i32 %40, %69
  %74 = load double*, double** %41, align 8, !tbaa !19
  %75 = getelementptr inbounds double, double* %74, i64 %66
  %76 = load double, double* %75, align 8, !tbaa !54
  %77 = call i32 (%struct._IO_FILE*, i8*, ...) @fprintf(%struct._IO_FILE* %7, i8* getelementptr inbounds ([20 x i8], [20 x i8]* @.str.10, i64 0, i64 0), i32 %59, i32 %73, double %76)
  br label %78

78:                                               ; preds = %65, %72
  %79 = add nsw i64 %66, 1
  %80 = load i32*, i32** %17, align 8, !tbaa !17
  %81 = getelementptr inbounds i32, i32* %80, i64 %57
  %82 = load i32, i32* %81, align 4, !tbaa !42
  %83 = sext i32 %82 to i64
  %84 = icmp slt i64 %79, %83
  br i1 %84, label %65, label %85, !llvm.loop !125

85:                                               ; preds = %78, %52
  %86 = phi i32* [ %54, %52 ], [ %80, %78 ]
  %87 = getelementptr inbounds i32, i32* %86, i64 %53
  %88 = load i32, i32* %87, align 4, !tbaa !42
  %89 = trunc i64 %53 to i32
  %90 = add i32 %43, %89
  %91 = load i32*, i32** %17, align 8, !tbaa !17
  %92 = getelementptr inbounds i32, i32* %91, i64 %57
  %93 = load i32, i32* %92, align 4, !tbaa !42
  %94 = icmp slt i32 %88, %93
  br i1 %94, label %95, label %117

95:                                               ; preds = %85
  %96 = sext i32 %88 to i64
  br label %97

97:                                               ; preds = %95, %110
  %98 = phi i64 [ %96, %95 ], [ %111, %110 ]
  %99 = load i32*, i32** %42, align 8, !tbaa !18
  %100 = getelementptr inbounds i32, i32* %99, i64 %98
  %101 = load i32, i32* %100, align 4, !tbaa !42
  %102 = zext i32 %101 to i64
  %103 = icmp eq i64 %53, %102
  br i1 %103, label %110, label %104

104:                                              ; preds = %97
  %105 = add i32 %44, %101
  %106 = load double*, double** %45, align 8, !tbaa !19
  %107 = getelementptr inbounds double, double* %106, i64 %98
  %108 = load double, double* %107, align 8, !tbaa !54
  %109 = call i32 (%struct._IO_FILE*, i8*, ...) @fprintf(%struct._IO_FILE* %7, i8* getelementptr inbounds ([20 x i8], [20 x i8]* @.str.10, i64 0, i64 0), i32 %90, i32 %105, double %108)
  br label %110

110:                                              ; preds = %97, %104
  %111 = add nsw i64 %98, 1
  %112 = load i32*, i32** %17, align 8, !tbaa !17
  %113 = getelementptr inbounds i32, i32* %112, i64 %57
  %114 = load i32, i32* %113, align 4, !tbaa !42
  %115 = sext i32 %114 to i64
  %116 = icmp slt i64 %111, %115
  br i1 %116, label %97, label %117, !llvm.loop !126

117:                                              ; preds = %110, %85
  %118 = load i32*, i32** %22, align 8, !tbaa !20
  %119 = icmp eq i32* %118, null
  br i1 %119, label %153, label %120

120:                                              ; preds = %117
  %121 = getelementptr inbounds i32, i32* %118, i64 %53
  %122 = load i32, i32* %121, align 4, !tbaa !42
  %123 = trunc i64 %53 to i32
  %124 = add i32 %48, %123
  %125 = load i32*, i32** %22, align 8, !tbaa !20
  %126 = getelementptr inbounds i32, i32* %125, i64 %57
  %127 = load i32, i32* %126, align 4, !tbaa !42
  %128 = icmp slt i32 %122, %127
  br i1 %128, label %129, label %153

129:                                              ; preds = %120
  %130 = sext i32 %122 to i64
  br label %131

131:                                              ; preds = %129, %131
  %132 = phi i64 [ %130, %129 ], [ %147, %131 ]
  %133 = load i32*, i32** %46, align 8, !tbaa !16
  %134 = load i32*, i32** %47, align 8, !tbaa !21
  %135 = getelementptr inbounds i32, i32* %134, i64 %132
  %136 = load i32, i32* %135, align 4, !tbaa !42
  %137 = load i32, i32* %11, align 4, !tbaa !10
  %138 = sub nsw i32 %136, %137
  %139 = sext i32 %138 to i64
  %140 = getelementptr inbounds i32, i32* %133, i64 %139
  %141 = load i32, i32* %140, align 4, !tbaa !42
  %142 = add nsw i32 %141, 1
  %143 = load double*, double** %49, align 8, !tbaa !22
  %144 = getelementptr inbounds double, double* %143, i64 %132
  %145 = load double, double* %144, align 8, !tbaa !54
  %146 = call i32 (%struct._IO_FILE*, i8*, ...) @fprintf(%struct._IO_FILE* %7, i8* getelementptr inbounds ([20 x i8], [20 x i8]* @.str.10, i64 0, i64 0), i32 %124, i32 %142, double %145)
  %147 = add nsw i64 %132, 1
  %148 = load i32*, i32** %22, align 8, !tbaa !20
  %149 = getelementptr inbounds i32, i32* %148, i64 %57
  %150 = load i32, i32* %149, align 4, !tbaa !42
  %151 = sext i32 %150 to i64
  %152 = icmp slt i64 %147, %151
  br i1 %152, label %131, label %153, !llvm.loop !127

153:                                              ; preds = %131, %120, %117
  %154 = load i32, i32* %11, align 4, !tbaa !10
  %155 = sext i32 %154 to i64
  %156 = icmp slt i64 %57, %155
  br i1 %156, label %52, label %157, !llvm.loop !128

157:                                              ; preds = %153, %29
  %158 = phi i32 [ %50, %29 ], [ %154, %153 ]
  %159 = load i32, i32* %8, align 4, !tbaa !9
  %160 = icmp eq i32 %159, 1
  br i1 %160, label %161, label %295

161:                                              ; preds = %157
  %162 = load i32, i32* %13, align 4, !tbaa !12
  %163 = getelementptr inbounds %class.LLNL_FEI_Matrix, %class.LLNL_FEI_Matrix* %0, i64 0, i32 11
  %164 = getelementptr inbounds %class.LLNL_FEI_Matrix, %class.LLNL_FEI_Matrix* %0, i64 0, i32 9
  %165 = add i32 %37, 1
  %166 = getelementptr inbounds %class.LLNL_FEI_Matrix, %class.LLNL_FEI_Matrix* %0, i64 0, i32 12
  %167 = getelementptr inbounds %class.LLNL_FEI_Matrix, %class.LLNL_FEI_Matrix* %0, i64 0, i32 11
  %168 = getelementptr inbounds %class.LLNL_FEI_Matrix, %class.LLNL_FEI_Matrix* %0, i64 0, i32 9
  %169 = add i32 %37, 1
  %170 = getelementptr inbounds %class.LLNL_FEI_Matrix, %class.LLNL_FEI_Matrix* %0, i64 0, i32 12
  %171 = getelementptr inbounds %class.LLNL_FEI_Matrix, %class.LLNL_FEI_Matrix* %0, i64 0, i32 9
  %172 = getelementptr inbounds %class.LLNL_FEI_Matrix, %class.LLNL_FEI_Matrix* %0, i64 0, i32 14
  %173 = getelementptr inbounds %class.LLNL_FEI_Matrix, %class.LLNL_FEI_Matrix* %0, i64 0, i32 15
  %174 = icmp sgt i32 %162, 0
  br i1 %174, label %175, label %295

175:                                              ; preds = %161
  %176 = add nsw i32 %162, %158
  %177 = sext i32 %158 to i64
  %178 = sext i32 %176 to i64
  br label %179

179:                                              ; preds = %175, %293
  %180 = phi i64 [ %177, %175 ], [ %184, %293 ]
  %181 = load i32*, i32** %17, align 8, !tbaa !17
  %182 = getelementptr inbounds i32, i32* %181, i64 %180
  %183 = load i32, i32* %182, align 4, !tbaa !42
  %184 = add nsw i64 %180, 1
  %185 = getelementptr inbounds i32, i32* %181, i64 %184
  %186 = load i32, i32* %185, align 4, !tbaa !42
  %187 = icmp slt i32 %183, %186
  br i1 %187, label %188, label %217

188:                                              ; preds = %179
  %189 = sext i32 %183 to i64
  %190 = trunc i64 %180 to i32
  br label %191

191:                                              ; preds = %188, %210
  %192 = phi i64 [ %189, %188 ], [ %211, %210 ]
  %193 = load i32*, i32** %163, align 8, !tbaa !18
  %194 = getelementptr inbounds i32, i32* %193, i64 %192
  %195 = load i32, i32* %194, align 4, !tbaa !42
  %196 = icmp eq i32 %195, %190
  br i1 %196, label %197, label %210

197:                                              ; preds = %191
  %198 = load i32*, i32** %164, align 8, !tbaa !16
  %199 = load i32, i32* %11, align 4, !tbaa !10
  %200 = sext i32 %199 to i64
  %201 = sub nsw i64 %180, %200
  %202 = getelementptr inbounds i32, i32* %198, i64 %201
  %203 = load i32, i32* %202, align 4, !tbaa !42
  %204 = add nsw i32 %203, 1
  %205 = add i32 %165, %195
  %206 = load double*, double** %166, align 8, !tbaa !19
  %207 = getelementptr inbounds double, double* %206, i64 %192
  %208 = load double, double* %207, align 8, !tbaa !54
  %209 = call i32 (%struct._IO_FILE*, i8*, ...) @fprintf(%struct._IO_FILE* %7, i8* getelementptr inbounds ([20 x i8], [20 x i8]* @.str.10, i64 0, i64 0), i32 %204, i32 %205, double %208)
  br label %210

210:                                              ; preds = %191, %197
  %211 = add nsw i64 %192, 1
  %212 = load i32*, i32** %17, align 8, !tbaa !17
  %213 = getelementptr inbounds i32, i32* %212, i64 %184
  %214 = load i32, i32* %213, align 4, !tbaa !42
  %215 = sext i32 %214 to i64
  %216 = icmp slt i64 %211, %215
  br i1 %216, label %191, label %217, !llvm.loop !129

217:                                              ; preds = %210, %179
  %218 = phi i32* [ %181, %179 ], [ %212, %210 ]
  %219 = getelementptr inbounds i32, i32* %218, i64 %180
  %220 = load i32, i32* %219, align 4, !tbaa !42
  %221 = load i32*, i32** %17, align 8, !tbaa !17
  %222 = getelementptr inbounds i32, i32* %221, i64 %184
  %223 = load i32, i32* %222, align 4, !tbaa !42
  %224 = icmp slt i32 %220, %223
  br i1 %224, label %225, label %254

225:                                              ; preds = %217
  %226 = sext i32 %220 to i64
  %227 = trunc i64 %180 to i32
  br label %228

228:                                              ; preds = %225, %247
  %229 = phi i64 [ %226, %225 ], [ %248, %247 ]
  %230 = load i32*, i32** %167, align 8, !tbaa !18
  %231 = getelementptr inbounds i32, i32* %230, i64 %229
  %232 = load i32, i32* %231, align 4, !tbaa !42
  %233 = icmp eq i32 %232, %227
  br i1 %233, label %247, label %234

234:                                              ; preds = %228
  %235 = load i32*, i32** %168, align 8, !tbaa !16
  %236 = load i32, i32* %11, align 4, !tbaa !10
  %237 = sext i32 %236 to i64
  %238 = sub nsw i64 %180, %237
  %239 = getelementptr inbounds i32, i32* %235, i64 %238
  %240 = load i32, i32* %239, align 4, !tbaa !42
  %241 = add nsw i32 %240, 1
  %242 = add i32 %169, %232
  %243 = load double*, double** %170, align 8, !tbaa !19
  %244 = getelementptr inbounds double, double* %243, i64 %229
  %245 = load double, double* %244, align 8, !tbaa !54
  %246 = call i32 (%struct._IO_FILE*, i8*, ...) @fprintf(%struct._IO_FILE* %7, i8* getelementptr inbounds ([20 x i8], [20 x i8]* @.str.10, i64 0, i64 0), i32 %241, i32 %242, double %245)
  br label %247

247:                                              ; preds = %228, %234
  %248 = add nsw i64 %229, 1
  %249 = load i32*, i32** %17, align 8, !tbaa !17
  %250 = getelementptr inbounds i32, i32* %249, i64 %184
  %251 = load i32, i32* %250, align 4, !tbaa !42
  %252 = sext i32 %251 to i64
  %253 = icmp slt i64 %248, %252
  br i1 %253, label %228, label %254, !llvm.loop !130

254:                                              ; preds = %247, %217
  %255 = load i32*, i32** %22, align 8, !tbaa !20
  %256 = icmp eq i32* %255, null
  br i1 %256, label %293, label %257

257:                                              ; preds = %254
  %258 = getelementptr inbounds i32, i32* %255, i64 %180
  %259 = load i32, i32* %258, align 4, !tbaa !42
  %260 = load i32*, i32** %22, align 8, !tbaa !20
  %261 = getelementptr inbounds i32, i32* %260, i64 %184
  %262 = load i32, i32* %261, align 4, !tbaa !42
  %263 = icmp slt i32 %259, %262
  br i1 %263, label %264, label %293

264:                                              ; preds = %257
  %265 = sext i32 %259 to i64
  br label %266

266:                                              ; preds = %264, %266
  %267 = phi i64 [ %265, %264 ], [ %287, %266 ]
  %268 = load i32*, i32** %171, align 8, !tbaa !16
  %269 = load i32, i32* %11, align 4, !tbaa !10
  %270 = sext i32 %269 to i64
  %271 = sub nsw i64 %180, %270
  %272 = getelementptr inbounds i32, i32* %268, i64 %271
  %273 = load i32, i32* %272, align 4, !tbaa !42
  %274 = add nsw i32 %273, 1
  %275 = load i32*, i32** %172, align 8, !tbaa !21
  %276 = getelementptr inbounds i32, i32* %275, i64 %267
  %277 = load i32, i32* %276, align 4, !tbaa !42
  %278 = sub nsw i32 %277, %269
  %279 = sext i32 %278 to i64
  %280 = getelementptr inbounds i32, i32* %268, i64 %279
  %281 = load i32, i32* %280, align 4, !tbaa !42
  %282 = add nsw i32 %281, 1
  %283 = load double*, double** %173, align 8, !tbaa !22
  %284 = getelementptr inbounds double, double* %283, i64 %267
  %285 = load double, double* %284, align 8, !tbaa !54
  %286 = call i32 (%struct._IO_FILE*, i8*, ...) @fprintf(%struct._IO_FILE* %7, i8* getelementptr inbounds ([20 x i8], [20 x i8]* @.str.10, i64 0, i64 0), i32 %274, i32 %282, double %285)
  %287 = add nsw i64 %267, 1
  %288 = load i32*, i32** %22, align 8, !tbaa !20
  %289 = getelementptr inbounds i32, i32* %288, i64 %184
  %290 = load i32, i32* %289, align 4, !tbaa !42
  %291 = sext i32 %290 to i64
  %292 = icmp slt i64 %287, %291
  br i1 %292, label %266, label %293, !llvm.loop !131

293:                                              ; preds = %266, %257, %254
  %294 = icmp slt i64 %184, %178
  br i1 %294, label %179, label %295, !llvm.loop !132

295:                                              ; preds = %293, %161, %157
  %296 = call i32 @fclose(%struct._IO_FILE* %7)
  call void @llvm.lifetime.end.p0i8(i64 20, i8* nonnull %3) #19
  ret void
}

; Function Attrs: mustprogress nounwind uwtable
define dso_local i32 @_ZN15LLNL_FEI_Matrix14setConstraintsEiPi(%class.LLNL_FEI_Matrix* nocapture nonnull align 8 dereferenceable(216) %0, i32 %1, i32* %2) local_unnamed_addr #4 align 2 {
  %4 = getelementptr inbounds %class.LLNL_FEI_Matrix, %class.LLNL_FEI_Matrix* %0, i64 0, i32 6
  %5 = load i32*, i32** %4, align 8, !tbaa !13
  %6 = icmp eq i32* %5, null
  br i1 %6, label %9, label %7

7:                                                ; preds = %3
  %8 = bitcast i32* %5 to i8*
  call void @_ZdaPv(i8* %8) #18
  br label %9

9:                                                ; preds = %7, %3
  %10 = getelementptr inbounds %class.LLNL_FEI_Matrix, %class.LLNL_FEI_Matrix* %0, i64 0, i32 4
  store i32 %1, i32* %10, align 8, !tbaa !11
  store i32* %2, i32** %4, align 8, !tbaa !13
  ret i32 0
}

; Function Attrs: mustprogress uwtable
define dso_local i32 @_ZN15LLNL_FEI_Matrix12residualNormEiPdS0_S0_(%class.LLNL_FEI_Matrix* nocapture nonnull readonly align 8 dereferenceable(216) %0, i32 %1, double* nocapture readonly %2, double* nocapture readonly %3, double* nocapture %4) local_unnamed_addr #8 align 2 {
  %6 = alloca double, align 8
  %7 = alloca double, align 8
  %8 = bitcast double* %6 to i8*
  call void @llvm.lifetime.start.p0i8(i64 8, i8* nonnull %8) #19
  %9 = bitcast double* %7 to i8*
  call void @llvm.lifetime.start.p0i8(i64 8, i8* nonnull %9) #19
  store double 0.000000e+00, double* %4, align 8, !tbaa !54
  %10 = icmp ugt i32 %1, 2
  br i1 %10, label %102, label %11

11:                                               ; preds = %5
  %12 = getelementptr inbounds %class.LLNL_FEI_Matrix, %class.LLNL_FEI_Matrix* %0, i64 0, i32 3
  %13 = load i32, i32* %12, align 4, !tbaa !10
  %14 = getelementptr inbounds %class.LLNL_FEI_Matrix, %class.LLNL_FEI_Matrix* %0, i64 0, i32 5
  %15 = load i32, i32* %14, align 4, !tbaa !12
  %16 = add nsw i32 %15, %13
  %17 = sext i32 %16 to i64
  %18 = call { i64, i1 } @llvm.umul.with.overflow.i64(i64 %17, i64 8)
  %19 = extractvalue { i64, i1 } %18, 1
  %20 = extractvalue { i64, i1 } %18, 0
  %21 = select i1 %19, i64 -1, i64 %20
  %22 = call noalias nonnull i8* @_Znam(i64 %21) #20
  %23 = bitcast i8* %22 to double*
  call void @_ZN15LLNL_FEI_Matrix6matvecEPdS0_(%class.LLNL_FEI_Matrix* nonnull align 8 dereferenceable(216) %0, double* %2, double* nonnull %23)
  %24 = load i32, i32* %12, align 4, !tbaa !10
  %25 = icmp sgt i32 %24, 0
  br i1 %25, label %26, label %37

26:                                               ; preds = %11
  %27 = zext i32 %24 to i64
  br label %28

28:                                               ; preds = %26, %28
  %29 = phi i64 [ 0, %26 ], [ %35, %28 ]
  %30 = getelementptr inbounds double, double* %3, i64 %29
  %31 = load double, double* %30, align 8, !tbaa !54
  %32 = getelementptr inbounds double, double* %23, i64 %29
  %33 = load double, double* %32, align 8, !tbaa !54
  %34 = fsub double %31, %33
  store double %34, double* %32, align 8, !tbaa !54
  %35 = add nuw nsw i64 %29, 1
  %36 = icmp eq i64 %35, %27
  br i1 %36, label %37, label %28, !llvm.loop !133

37:                                               ; preds = %28, %11
  switch i32 %1, label %101 [
    i32 0, label %38
    i32 1, label %60
    i32 2, label %79
  ]

38:                                               ; preds = %37
  store double 0.000000e+00, double* %6, align 8, !tbaa !54
  %39 = load double, double* %7, align 8, !tbaa !54
  %40 = icmp sgt i32 %24, 0
  br i1 %40, label %41, label %53

41:                                               ; preds = %38
  %42 = zext i32 %24 to i64
  br label %43

43:                                               ; preds = %41, %43
  %44 = phi i64 [ 0, %41 ], [ %51, %43 ]
  %45 = phi double [ 0.000000e+00, %41 ], [ %50, %43 ]
  %46 = getelementptr inbounds double, double* %23, i64 %44
  %47 = load double, double* %46, align 8, !tbaa !54
  %48 = call double @llvm.fabs.f64(double %47)
  %49 = fcmp ogt double %48, %45
  %50 = select i1 %49, double %48, double %45
  %51 = add nuw nsw i64 %44, 1
  %52 = icmp eq i64 %51, %42
  br i1 %52, label %53, label %43, !llvm.loop !134

53:                                               ; preds = %43, %38
  %54 = phi double [ 0.000000e+00, %38 ], [ %50, %43 ]
  %55 = phi double [ %39, %38 ], [ %48, %43 ]
  store double %55, double* %7, align 8, !tbaa !54
  store double %54, double* %6, align 8, !tbaa !54
  %56 = getelementptr inbounds %class.LLNL_FEI_Matrix, %class.LLNL_FEI_Matrix* %0, i64 0, i32 0
  %57 = load i32, i32* %56, align 8, !tbaa !3
  %58 = call i32 @MPI_Allreduce(i8* nonnull %8, i8* nonnull %9, i32 1, i32 1275070475, i32 1476395009, i32 %57)
  %59 = load double, double* %7, align 8, !tbaa !54
  br label %99

60:                                               ; preds = %37
  store double 0.000000e+00, double* %6, align 8, !tbaa !54
  %61 = icmp sgt i32 %24, 0
  br i1 %61, label %62, label %73

62:                                               ; preds = %60
  %63 = zext i32 %24 to i64
  br label %64

64:                                               ; preds = %62, %64
  %65 = phi i64 [ 0, %62 ], [ %71, %64 ]
  %66 = phi double [ 0.000000e+00, %62 ], [ %70, %64 ]
  %67 = getelementptr inbounds double, double* %23, i64 %65
  %68 = load double, double* %67, align 8, !tbaa !54
  %69 = call double @llvm.fabs.f64(double %68)
  %70 = fadd double %66, %69
  %71 = add nuw nsw i64 %65, 1
  %72 = icmp eq i64 %71, %63
  br i1 %72, label %73, label %64, !llvm.loop !135

73:                                               ; preds = %64, %60
  %74 = phi double [ 0.000000e+00, %60 ], [ %70, %64 ]
  store double %74, double* %6, align 8, !tbaa !54
  %75 = getelementptr inbounds %class.LLNL_FEI_Matrix, %class.LLNL_FEI_Matrix* %0, i64 0, i32 0
  %76 = load i32, i32* %75, align 8, !tbaa !3
  %77 = call i32 @MPI_Allreduce(i8* nonnull %8, i8* nonnull %9, i32 1, i32 1275070475, i32 1476395011, i32 %76)
  %78 = load double, double* %7, align 8, !tbaa !54
  br label %99

79:                                               ; preds = %37
  store double 0.000000e+00, double* %6, align 8, !tbaa !54
  %80 = icmp sgt i32 %24, 0
  br i1 %80, label %81, label %92

81:                                               ; preds = %79
  %82 = zext i32 %24 to i64
  br label %83

83:                                               ; preds = %81, %83
  %84 = phi i64 [ 0, %81 ], [ %90, %83 ]
  %85 = phi double [ 0.000000e+00, %81 ], [ %89, %83 ]
  %86 = getelementptr inbounds double, double* %23, i64 %84
  %87 = load double, double* %86, align 8, !tbaa !54
  %88 = fmul double %87, %87
  %89 = fadd double %85, %88
  %90 = add nuw nsw i64 %84, 1
  %91 = icmp eq i64 %90, %82
  br i1 %91, label %92, label %83, !llvm.loop !136

92:                                               ; preds = %83, %79
  %93 = phi double [ 0.000000e+00, %79 ], [ %89, %83 ]
  store double %93, double* %6, align 8, !tbaa !54
  %94 = getelementptr inbounds %class.LLNL_FEI_Matrix, %class.LLNL_FEI_Matrix* %0, i64 0, i32 0
  %95 = load i32, i32* %94, align 8, !tbaa !3
  %96 = call i32 @MPI_Allreduce(i8* nonnull %8, i8* nonnull %9, i32 1, i32 1275070475, i32 1476395011, i32 %95)
  %97 = load double, double* %7, align 8, !tbaa !54
  %98 = call double @sqrt(double %97) #19
  br label %99

99:                                               ; preds = %92, %73, %53
  %100 = phi double [ %59, %53 ], [ %78, %73 ], [ %98, %92 ]
  store double %100, double* %4, align 8, !tbaa !54
  br label %101

101:                                              ; preds = %99, %37
  call void @_ZdaPv(i8* %22) #18
  br label %102

102:                                              ; preds = %5, %101
  %103 = phi i32 [ 0, %101 ], [ -1, %5 ]
  call void @llvm.lifetime.end.p0i8(i64 8, i8* nonnull %9) #19
  call void @llvm.lifetime.end.p0i8(i64 8, i8* nonnull %8) #19
  ret i32 %103
}

; Function Attrs: mustprogress uwtable
define dso_local void @_ZN15LLNL_FEI_Matrix6matvecEPdS0_(%class.LLNL_FEI_Matrix* nocapture nonnull readonly align 8 dereferenceable(216) %0, double* nocapture readonly %1, double* nocapture %2) local_unnamed_addr #8 align 2 {
  %4 = getelementptr inbounds %class.LLNL_FEI_Matrix, %class.LLNL_FEI_Matrix* %0, i64 0, i32 30
  %5 = load i32, i32* %4, align 4, !tbaa !9
  %6 = icmp eq i32 %5, 1
  %7 = getelementptr inbounds %class.LLNL_FEI_Matrix, %class.LLNL_FEI_Matrix* %0, i64 0, i32 3
  %8 = load i32, i32* %7, align 4
  %9 = getelementptr inbounds %class.LLNL_FEI_Matrix, %class.LLNL_FEI_Matrix* %0, i64 0, i32 5
  %10 = load i32, i32* %9, align 4
  %11 = select i1 %6, i32 %10, i32 0
  %12 = add nsw i32 %11, %8
  call void @_ZN15LLNL_FEI_Matrix12scatterDDataEPd(%class.LLNL_FEI_Matrix* nonnull align 8 dereferenceable(216) %0, double* %1)
  %13 = getelementptr inbounds %class.LLNL_FEI_Matrix, %class.LLNL_FEI_Matrix* %0, i64 0, i32 10
  %14 = load i32*, i32** %13, align 8
  %15 = getelementptr inbounds %class.LLNL_FEI_Matrix, %class.LLNL_FEI_Matrix* %0, i64 0, i32 12
  %16 = getelementptr inbounds %class.LLNL_FEI_Matrix, %class.LLNL_FEI_Matrix* %0, i64 0, i32 11
  %17 = icmp sgt i32 %12, 0
  br i1 %17, label %18, label %52

18:                                               ; preds = %3
  %19 = add i32 %11, %8
  %20 = zext i32 %19 to i64
  br label %21

21:                                               ; preds = %18, %48
  %22 = phi i64 [ 0, %18 ], [ %25, %48 ]
  %23 = getelementptr inbounds i32, i32* %14, i64 %22
  %24 = load i32, i32* %23, align 4, !tbaa !42
  %25 = add nuw nsw i64 %22, 1
  %26 = getelementptr inbounds i32, i32* %14, i64 %25
  %27 = load i32, i32* %26, align 4, !tbaa !42
  %28 = load double*, double** %15, align 8
  %29 = load i32*, i32** %16, align 8
  %30 = icmp slt i32 %24, %27
  br i1 %30, label %31, label %48

31:                                               ; preds = %21
  %32 = sext i32 %24 to i64
  %33 = sext i32 %27 to i64
  br label %34

34:                                               ; preds = %31, %34
  %35 = phi i64 [ %32, %31 ], [ %46, %34 ]
  %36 = phi double [ 0.000000e+00, %31 ], [ %45, %34 ]
  %37 = getelementptr inbounds double, double* %28, i64 %35
  %38 = load double, double* %37, align 8, !tbaa !54
  %39 = getelementptr inbounds i32, i32* %29, i64 %35
  %40 = load i32, i32* %39, align 4, !tbaa !42
  %41 = sext i32 %40 to i64
  %42 = getelementptr inbounds double, double* %1, i64 %41
  %43 = load double, double* %42, align 8, !tbaa !54
  %44 = fmul double %38, %43
  %45 = fadd double %36, %44
  %46 = add nsw i64 %35, 1
  %47 = icmp eq i64 %46, %33
  br i1 %47, label %48, label %34, !llvm.loop !137

48:                                               ; preds = %34, %21
  %49 = phi double [ 0.000000e+00, %21 ], [ %45, %34 ]
  %50 = getelementptr inbounds double, double* %2, i64 %22
  store double %49, double* %50, align 8, !tbaa !54
  %51 = icmp eq i64 %25, %20
  br i1 %51, label %52, label %21, !llvm.loop !138

52:                                               ; preds = %48, %3
  %53 = getelementptr inbounds %class.LLNL_FEI_Matrix, %class.LLNL_FEI_Matrix* %0, i64 0, i32 13
  %54 = load i32*, i32** %53, align 8, !tbaa !20
  %55 = icmp eq i32* %54, null
  br i1 %55, label %100, label %56

56:                                               ; preds = %52
  %57 = getelementptr inbounds %class.LLNL_FEI_Matrix, %class.LLNL_FEI_Matrix* %0, i64 0, i32 15
  %58 = getelementptr inbounds %class.LLNL_FEI_Matrix, %class.LLNL_FEI_Matrix* %0, i64 0, i32 22
  %59 = getelementptr inbounds %class.LLNL_FEI_Matrix, %class.LLNL_FEI_Matrix* %0, i64 0, i32 14
  %60 = icmp sgt i32 %12, 0
  br i1 %60, label %61, label %100

61:                                               ; preds = %56
  %62 = add i32 %11, %8
  %63 = zext i32 %62 to i64
  br label %64

64:                                               ; preds = %61, %94
  %65 = phi i64 [ 0, %61 ], [ %68, %94 ]
  %66 = getelementptr inbounds i32, i32* %54, i64 %65
  %67 = load i32, i32* %66, align 4, !tbaa !42
  %68 = add nuw nsw i64 %65, 1
  %69 = getelementptr inbounds i32, i32* %54, i64 %68
  %70 = load i32, i32* %69, align 4, !tbaa !42
  %71 = load double*, double** %57, align 8
  %72 = load double*, double** %58, align 8
  %73 = load i32*, i32** %59, align 8
  %74 = load i32, i32* %7, align 4
  %75 = icmp slt i32 %67, %70
  br i1 %75, label %76, label %94

76:                                               ; preds = %64
  %77 = sext i32 %67 to i64
  %78 = sext i32 %70 to i64
  br label %79

79:                                               ; preds = %76, %79
  %80 = phi i64 [ %77, %76 ], [ %92, %79 ]
  %81 = phi double [ 0.000000e+00, %76 ], [ %91, %79 ]
  %82 = getelementptr inbounds double, double* %71, i64 %80
  %83 = load double, double* %82, align 8, !tbaa !54
  %84 = getelementptr inbounds i32, i32* %73, i64 %80
  %85 = load i32, i32* %84, align 4, !tbaa !42
  %86 = sub nsw i32 %85, %74
  %87 = sext i32 %86 to i64
  %88 = getelementptr inbounds double, double* %72, i64 %87
  %89 = load double, double* %88, align 8, !tbaa !54
  %90 = fmul double %83, %89
  %91 = fadd double %81, %90
  %92 = add nsw i64 %80, 1
  %93 = icmp eq i64 %92, %78
  br i1 %93, label %94, label %79, !llvm.loop !139

94:                                               ; preds = %79, %64
  %95 = phi double [ 0.000000e+00, %64 ], [ %91, %79 ]
  %96 = getelementptr inbounds double, double* %2, i64 %65
  %97 = load double, double* %96, align 8, !tbaa !54
  %98 = fadd double %95, %97
  store double %98, double* %96, align 8, !tbaa !54
  %99 = icmp eq i64 %68, %63
  br i1 %99, label %100, label %64, !llvm.loop !140

100:                                              ; preds = %94, %56, %52
  %101 = load i32, i32* %4, align 4, !tbaa !9
  %102 = icmp eq i32 %101, 1
  br i1 %102, label %103, label %104

103:                                              ; preds = %100
  call void @_ZN15LLNL_FEI_Matrix14gatherAddDDataEPd(%class.LLNL_FEI_Matrix* nonnull align 8 dereferenceable(216) %0, double* %2)
  br label %104

104:                                              ; preds = %103, %100
  ret void
}

; Function Attrs: mustprogress nofree nosync nounwind readnone speculatable willreturn
declare double @llvm.fabs.f64(double) #9

declare dso_local i32 @MPI_Allreduce(i8*, i8*, i32, i32, i32, i32) local_unnamed_addr #1

; Function Attrs: mustprogress nofree nounwind willreturn
declare dso_local double @sqrt(double) local_unnamed_addr #11

; Function Attrs: mustprogress uwtable
define dso_local void @_ZN15LLNL_FEI_Matrix12scatterDDataEPd(%class.LLNL_FEI_Matrix* nocapture nonnull readonly align 8 dereferenceable(216) %0, double* nocapture readonly %1) local_unnamed_addr #8 align 2 {
  %3 = alloca %struct.MPI_Status, align 4
  %4 = bitcast %struct.MPI_Status* %3 to i8*
  call void @llvm.lifetime.start.p0i8(i64 20, i8* nonnull %4) #19
  %5 = getelementptr inbounds %class.LLNL_FEI_Matrix, %class.LLNL_FEI_Matrix* %0, i64 0, i32 17
  %6 = getelementptr inbounds %class.LLNL_FEI_Matrix, %class.LLNL_FEI_Matrix* %0, i64 0, i32 21
  %7 = getelementptr inbounds %class.LLNL_FEI_Matrix, %class.LLNL_FEI_Matrix* %0, i64 0, i32 18
  %8 = getelementptr inbounds %class.LLNL_FEI_Matrix, %class.LLNL_FEI_Matrix* %0, i64 0, i32 19
  %9 = getelementptr inbounds %class.LLNL_FEI_Matrix, %class.LLNL_FEI_Matrix* %0, i64 0, i32 0
  %10 = getelementptr inbounds %class.LLNL_FEI_Matrix, %class.LLNL_FEI_Matrix* %0, i64 0, i32 28
  %11 = load i32, i32* %5, align 8, !tbaa !40
  %12 = icmp sgt i32 %11, 0
  br i1 %12, label %25, label %13

13:                                               ; preds = %25, %2
  %14 = getelementptr inbounds %class.LLNL_FEI_Matrix, %class.LLNL_FEI_Matrix* %0, i64 0, i32 17
  %15 = getelementptr inbounds %class.LLNL_FEI_Matrix, %class.LLNL_FEI_Matrix* %0, i64 0, i32 23
  %16 = getelementptr inbounds %class.LLNL_FEI_Matrix, %class.LLNL_FEI_Matrix* %0, i64 0, i32 24
  %17 = getelementptr inbounds %class.LLNL_FEI_Matrix, %class.LLNL_FEI_Matrix* %0, i64 0, i32 26
  %18 = getelementptr inbounds %class.LLNL_FEI_Matrix, %class.LLNL_FEI_Matrix* %0, i64 0, i32 27
  %19 = getelementptr inbounds %class.LLNL_FEI_Matrix, %class.LLNL_FEI_Matrix* %0, i64 0, i32 24
  %20 = getelementptr inbounds %class.LLNL_FEI_Matrix, %class.LLNL_FEI_Matrix* %0, i64 0, i32 27
  %21 = getelementptr inbounds %class.LLNL_FEI_Matrix, %class.LLNL_FEI_Matrix* %0, i64 0, i32 25
  %22 = getelementptr inbounds %class.LLNL_FEI_Matrix, %class.LLNL_FEI_Matrix* %0, i64 0, i32 0
  %23 = load i32, i32* %15, align 8, !tbaa !41
  %24 = icmp sgt i32 %23, 0
  br i1 %24, label %50, label %62

25:                                               ; preds = %2, %25
  %26 = phi i64 [ %46, %25 ], [ 0, %2 ]
  %27 = phi i32 [ %45, %25 ], [ 0, %2 ]
  %28 = load double*, double** %6, align 8, !tbaa !27
  %29 = sext i32 %27 to i64
  %30 = getelementptr inbounds double, double* %28, i64 %29
  %31 = bitcast double* %30 to i8*
  %32 = load i32*, i32** %7, align 8, !tbaa !24
  %33 = getelementptr inbounds i32, i32* %32, i64 %26
  %34 = load i32, i32* %33, align 4, !tbaa !42
  %35 = load i32*, i32** %8, align 8, !tbaa !25
  %36 = getelementptr inbounds i32, i32* %35, i64 %26
  %37 = load i32, i32* %36, align 4, !tbaa !42
  %38 = load i32, i32* %9, align 8, !tbaa !3
  %39 = load i32*, i32** %10, align 8, !tbaa !33
  %40 = getelementptr inbounds i32, i32* %39, i64 %26
  %41 = call i32 @MPI_Irecv(i8* %31, i32 %34, i32 1275070475, i32 %37, i32 40343, i32 %38, i32* %40)
  %42 = load i32*, i32** %7, align 8, !tbaa !24
  %43 = getelementptr inbounds i32, i32* %42, i64 %26
  %44 = load i32, i32* %43, align 4, !tbaa !42
  %45 = add nsw i32 %44, %27
  %46 = add nuw nsw i64 %26, 1
  %47 = load i32, i32* %5, align 8, !tbaa !40
  %48 = sext i32 %47 to i64
  %49 = icmp slt i64 %46, %48
  br i1 %49, label %25, label %13, !llvm.loop !141

50:                                               ; preds = %13, %77
  %51 = phi i64 [ %91, %77 ], [ 0, %13 ]
  %52 = phi i32 [ %90, %77 ], [ 0, %13 ]
  %53 = load i32*, i32** %16, align 8, !tbaa !29
  %54 = getelementptr inbounds i32, i32* %53, i64 %51
  %55 = load i32, i32* %54, align 4, !tbaa !42
  %56 = load i32*, i32** %17, align 8
  %57 = load double*, double** %18, align 8
  %58 = icmp sgt i32 %55, 0
  br i1 %58, label %59, label %77

59:                                               ; preds = %50
  %60 = sext i32 %52 to i64
  %61 = zext i32 %55 to i64
  br label %66

62:                                               ; preds = %77, %13
  %63 = getelementptr inbounds %class.LLNL_FEI_Matrix, %class.LLNL_FEI_Matrix* %0, i64 0, i32 28
  %64 = load i32, i32* %14, align 8, !tbaa !40
  %65 = icmp sgt i32 %64, 0
  br i1 %65, label %106, label %95

66:                                               ; preds = %59, %66
  %67 = phi i64 [ 0, %59 ], [ %75, %66 ]
  %68 = add nsw i64 %67, %60
  %69 = getelementptr inbounds i32, i32* %56, i64 %68
  %70 = load i32, i32* %69, align 4, !tbaa !42
  %71 = sext i32 %70 to i64
  %72 = getelementptr inbounds double, double* %1, i64 %71
  %73 = load double, double* %72, align 8, !tbaa !54
  %74 = getelementptr inbounds double, double* %57, i64 %68
  store double %73, double* %74, align 8, !tbaa !54
  %75 = add nuw nsw i64 %67, 1
  %76 = icmp eq i64 %75, %61
  br i1 %76, label %77, label %66, !llvm.loop !142

77:                                               ; preds = %66, %50
  %78 = load double*, double** %20, align 8, !tbaa !32
  %79 = sext i32 %52 to i64
  %80 = getelementptr inbounds double, double* %78, i64 %79
  %81 = bitcast double* %80 to i8*
  %82 = load i32*, i32** %21, align 8, !tbaa !30
  %83 = getelementptr inbounds i32, i32* %82, i64 %51
  %84 = load i32, i32* %83, align 4, !tbaa !42
  %85 = load i32, i32* %22, align 8, !tbaa !3
  %86 = call i32 @MPI_Send(i8* %81, i32 %55, i32 1275070475, i32 %84, i32 40343, i32 %85)
  %87 = load i32*, i32** %19, align 8, !tbaa !29
  %88 = getelementptr inbounds i32, i32* %87, i64 %51
  %89 = load i32, i32* %88, align 4, !tbaa !42
  %90 = add nsw i32 %89, %52
  %91 = add nuw nsw i64 %51, 1
  %92 = load i32, i32* %15, align 8, !tbaa !41
  %93 = sext i32 %92 to i64
  %94 = icmp slt i64 %91, %93
  br i1 %94, label %50, label %62, !llvm.loop !143

95:                                               ; preds = %106, %62
  %96 = phi i32 [ %64, %62 ], [ %112, %106 ]
  %97 = getelementptr inbounds %class.LLNL_FEI_Matrix, %class.LLNL_FEI_Matrix* %0, i64 0, i32 18
  %98 = load i32*, i32** %97, align 8
  %99 = getelementptr inbounds %class.LLNL_FEI_Matrix, %class.LLNL_FEI_Matrix* %0, i64 0, i32 20
  %100 = getelementptr inbounds %class.LLNL_FEI_Matrix, %class.LLNL_FEI_Matrix* %0, i64 0, i32 3
  %101 = getelementptr inbounds %class.LLNL_FEI_Matrix, %class.LLNL_FEI_Matrix* %0, i64 0, i32 21
  %102 = getelementptr inbounds %class.LLNL_FEI_Matrix, %class.LLNL_FEI_Matrix* %0, i64 0, i32 22
  %103 = icmp sgt i32 %96, 0
  br i1 %103, label %104, label %144

104:                                              ; preds = %95
  %105 = zext i32 %96 to i64
  br label %115

106:                                              ; preds = %62, %106
  %107 = phi i64 [ %111, %106 ], [ 0, %62 ]
  %108 = load i32*, i32** %63, align 8, !tbaa !33
  %109 = getelementptr inbounds i32, i32* %108, i64 %107
  %110 = call i32 @MPI_Wait(i32* %109, %struct.MPI_Status* nonnull %3)
  %111 = add nuw nsw i64 %107, 1
  %112 = load i32, i32* %14, align 8, !tbaa !40
  %113 = sext i32 %112 to i64
  %114 = icmp slt i64 %111, %113
  br i1 %114, label %106, label %95, !llvm.loop !144

115:                                              ; preds = %104, %140
  %116 = phi i64 [ 0, %104 ], [ %142, %140 ]
  %117 = phi i32 [ 0, %104 ], [ %141, %140 ]
  %118 = getelementptr inbounds i32, i32* %98, i64 %116
  %119 = load i32, i32* %118, align 4, !tbaa !42
  %120 = load i32*, i32** %99, align 8
  %121 = load i32, i32* %100, align 4
  %122 = load double*, double** %101, align 8
  %123 = load double*, double** %102, align 8
  %124 = icmp sgt i32 %119, 0
  br i1 %124, label %125, label %140

125:                                              ; preds = %115
  %126 = sext i32 %117 to i64
  %127 = zext i32 %119 to i64
  br label %128

128:                                              ; preds = %125, %128
  %129 = phi i64 [ 0, %125 ], [ %138, %128 ]
  %130 = add nsw i64 %129, %126
  %131 = getelementptr inbounds i32, i32* %120, i64 %130
  %132 = load i32, i32* %131, align 4, !tbaa !42
  %133 = sub nsw i32 %132, %121
  %134 = getelementptr inbounds double, double* %122, i64 %130
  %135 = load double, double* %134, align 8, !tbaa !54
  %136 = sext i32 %133 to i64
  %137 = getelementptr inbounds double, double* %123, i64 %136
  store double %135, double* %137, align 8, !tbaa !54
  %138 = add nuw nsw i64 %129, 1
  %139 = icmp eq i64 %138, %127
  br i1 %139, label %140, label %128, !llvm.loop !145

140:                                              ; preds = %128, %115
  %141 = add nsw i32 %119, %117
  %142 = add nuw nsw i64 %116, 1
  %143 = icmp eq i64 %142, %105
  br i1 %143, label %144, label %115, !llvm.loop !146

144:                                              ; preds = %140, %95
  call void @llvm.lifetime.end.p0i8(i64 20, i8* nonnull %4) #19
  ret void
}

; Function Attrs: mustprogress uwtable
define dso_local void @_ZN15LLNL_FEI_Matrix14gatherAddDDataEPd(%class.LLNL_FEI_Matrix* nocapture nonnull readonly align 8 dereferenceable(216) %0, double* nocapture %1) local_unnamed_addr #8 align 2 {
  %3 = alloca %struct.MPI_Status, align 4
  %4 = bitcast %struct.MPI_Status* %3 to i8*
  call void @llvm.lifetime.start.p0i8(i64 20, i8* nonnull %4) #19
  %5 = getelementptr inbounds %class.LLNL_FEI_Matrix, %class.LLNL_FEI_Matrix* %0, i64 0, i32 23
  %6 = getelementptr inbounds %class.LLNL_FEI_Matrix, %class.LLNL_FEI_Matrix* %0, i64 0, i32 27
  %7 = getelementptr inbounds %class.LLNL_FEI_Matrix, %class.LLNL_FEI_Matrix* %0, i64 0, i32 24
  %8 = getelementptr inbounds %class.LLNL_FEI_Matrix, %class.LLNL_FEI_Matrix* %0, i64 0, i32 25
  %9 = getelementptr inbounds %class.LLNL_FEI_Matrix, %class.LLNL_FEI_Matrix* %0, i64 0, i32 0
  %10 = getelementptr inbounds %class.LLNL_FEI_Matrix, %class.LLNL_FEI_Matrix* %0, i64 0, i32 28
  %11 = load i32, i32* %5, align 8, !tbaa !41
  %12 = icmp sgt i32 %11, 0
  br i1 %12, label %25, label %13

13:                                               ; preds = %25, %2
  %14 = getelementptr inbounds %class.LLNL_FEI_Matrix, %class.LLNL_FEI_Matrix* %0, i64 0, i32 23
  %15 = getelementptr inbounds %class.LLNL_FEI_Matrix, %class.LLNL_FEI_Matrix* %0, i64 0, i32 17
  %16 = getelementptr inbounds %class.LLNL_FEI_Matrix, %class.LLNL_FEI_Matrix* %0, i64 0, i32 18
  %17 = getelementptr inbounds %class.LLNL_FEI_Matrix, %class.LLNL_FEI_Matrix* %0, i64 0, i32 20
  %18 = getelementptr inbounds %class.LLNL_FEI_Matrix, %class.LLNL_FEI_Matrix* %0, i64 0, i32 21
  %19 = getelementptr inbounds %class.LLNL_FEI_Matrix, %class.LLNL_FEI_Matrix* %0, i64 0, i32 18
  %20 = getelementptr inbounds %class.LLNL_FEI_Matrix, %class.LLNL_FEI_Matrix* %0, i64 0, i32 21
  %21 = getelementptr inbounds %class.LLNL_FEI_Matrix, %class.LLNL_FEI_Matrix* %0, i64 0, i32 19
  %22 = getelementptr inbounds %class.LLNL_FEI_Matrix, %class.LLNL_FEI_Matrix* %0, i64 0, i32 0
  %23 = load i32, i32* %15, align 8, !tbaa !40
  %24 = icmp sgt i32 %23, 0
  br i1 %24, label %50, label %62

25:                                               ; preds = %2, %25
  %26 = phi i64 [ %46, %25 ], [ 0, %2 ]
  %27 = phi i32 [ %45, %25 ], [ 0, %2 ]
  %28 = load double*, double** %6, align 8, !tbaa !32
  %29 = sext i32 %27 to i64
  %30 = getelementptr inbounds double, double* %28, i64 %29
  %31 = bitcast double* %30 to i8*
  %32 = load i32*, i32** %7, align 8, !tbaa !29
  %33 = getelementptr inbounds i32, i32* %32, i64 %26
  %34 = load i32, i32* %33, align 4, !tbaa !42
  %35 = load i32*, i32** %8, align 8, !tbaa !30
  %36 = getelementptr inbounds i32, i32* %35, i64 %26
  %37 = load i32, i32* %36, align 4, !tbaa !42
  %38 = load i32, i32* %9, align 8, !tbaa !3
  %39 = load i32*, i32** %10, align 8, !tbaa !33
  %40 = getelementptr inbounds i32, i32* %39, i64 %26
  %41 = call i32 @MPI_Irecv(i8* %31, i32 %34, i32 1275070475, i32 %37, i32 40342, i32 %38, i32* %40)
  %42 = load i32*, i32** %7, align 8, !tbaa !29
  %43 = getelementptr inbounds i32, i32* %42, i64 %26
  %44 = load i32, i32* %43, align 4, !tbaa !42
  %45 = add nsw i32 %44, %27
  %46 = add nuw nsw i64 %26, 1
  %47 = load i32, i32* %5, align 8, !tbaa !41
  %48 = sext i32 %47 to i64
  %49 = icmp slt i64 %46, %48
  br i1 %49, label %25, label %13, !llvm.loop !147

50:                                               ; preds = %13, %77
  %51 = phi i64 [ %91, %77 ], [ 0, %13 ]
  %52 = phi i32 [ %90, %77 ], [ 0, %13 ]
  %53 = load i32*, i32** %16, align 8, !tbaa !24
  %54 = getelementptr inbounds i32, i32* %53, i64 %51
  %55 = load i32, i32* %54, align 4, !tbaa !42
  %56 = load i32*, i32** %17, align 8
  %57 = load double*, double** %18, align 8
  %58 = icmp sgt i32 %55, 0
  br i1 %58, label %59, label %77

59:                                               ; preds = %50
  %60 = sext i32 %52 to i64
  %61 = zext i32 %55 to i64
  br label %66

62:                                               ; preds = %77, %13
  %63 = getelementptr inbounds %class.LLNL_FEI_Matrix, %class.LLNL_FEI_Matrix* %0, i64 0, i32 28
  %64 = load i32, i32* %14, align 8, !tbaa !41
  %65 = icmp sgt i32 %64, 0
  br i1 %65, label %104, label %95

66:                                               ; preds = %59, %66
  %67 = phi i64 [ 0, %59 ], [ %75, %66 ]
  %68 = add nsw i64 %67, %60
  %69 = getelementptr inbounds i32, i32* %56, i64 %68
  %70 = load i32, i32* %69, align 4, !tbaa !42
  %71 = sext i32 %70 to i64
  %72 = getelementptr inbounds double, double* %1, i64 %71
  %73 = load double, double* %72, align 8, !tbaa !54
  %74 = getelementptr inbounds double, double* %57, i64 %68
  store double %73, double* %74, align 8, !tbaa !54
  %75 = add nuw nsw i64 %67, 1
  %76 = icmp eq i64 %75, %61
  br i1 %76, label %77, label %66, !llvm.loop !148

77:                                               ; preds = %66, %50
  %78 = load double*, double** %20, align 8, !tbaa !27
  %79 = sext i32 %52 to i64
  %80 = getelementptr inbounds double, double* %78, i64 %79
  %81 = bitcast double* %80 to i8*
  %82 = load i32*, i32** %21, align 8, !tbaa !25
  %83 = getelementptr inbounds i32, i32* %82, i64 %51
  %84 = load i32, i32* %83, align 4, !tbaa !42
  %85 = load i32, i32* %22, align 8, !tbaa !3
  %86 = call i32 @MPI_Send(i8* %81, i32 %55, i32 1275070475, i32 %84, i32 40342, i32 %85)
  %87 = load i32*, i32** %19, align 8, !tbaa !24
  %88 = getelementptr inbounds i32, i32* %87, i64 %51
  %89 = load i32, i32* %88, align 4, !tbaa !42
  %90 = add nsw i32 %89, %52
  %91 = add nuw nsw i64 %51, 1
  %92 = load i32, i32* %15, align 8, !tbaa !40
  %93 = sext i32 %92 to i64
  %94 = icmp slt i64 %91, %93
  br i1 %94, label %50, label %62, !llvm.loop !149

95:                                               ; preds = %104, %62
  %96 = phi i32 [ %64, %62 ], [ %110, %104 ]
  %97 = getelementptr inbounds %class.LLNL_FEI_Matrix, %class.LLNL_FEI_Matrix* %0, i64 0, i32 24
  %98 = load i32*, i32** %97, align 8
  %99 = getelementptr inbounds %class.LLNL_FEI_Matrix, %class.LLNL_FEI_Matrix* %0, i64 0, i32 26
  %100 = getelementptr inbounds %class.LLNL_FEI_Matrix, %class.LLNL_FEI_Matrix* %0, i64 0, i32 27
  %101 = icmp sgt i32 %96, 0
  br i1 %101, label %102, label %141

102:                                              ; preds = %95
  %103 = zext i32 %96 to i64
  br label %113

104:                                              ; preds = %62, %104
  %105 = phi i64 [ %109, %104 ], [ 0, %62 ]
  %106 = load i32*, i32** %63, align 8, !tbaa !33
  %107 = getelementptr inbounds i32, i32* %106, i64 %105
  %108 = call i32 @MPI_Wait(i32* %107, %struct.MPI_Status* nonnull %3)
  %109 = add nuw nsw i64 %105, 1
  %110 = load i32, i32* %14, align 8, !tbaa !41
  %111 = sext i32 %110 to i64
  %112 = icmp slt i64 %109, %111
  br i1 %112, label %104, label %95, !llvm.loop !150

113:                                              ; preds = %102, %137
  %114 = phi i64 [ 0, %102 ], [ %139, %137 ]
  %115 = phi i32 [ 0, %102 ], [ %138, %137 ]
  %116 = getelementptr inbounds i32, i32* %98, i64 %114
  %117 = load i32, i32* %116, align 4, !tbaa !42
  %118 = load i32*, i32** %99, align 8
  %119 = load double*, double** %100, align 8
  %120 = icmp sgt i32 %117, 0
  br i1 %120, label %121, label %137

121:                                              ; preds = %113
  %122 = sext i32 %115 to i64
  %123 = zext i32 %117 to i64
  br label %124

124:                                              ; preds = %121, %124
  %125 = phi i64 [ 0, %121 ], [ %135, %124 ]
  %126 = add nsw i64 %125, %122
  %127 = getelementptr inbounds i32, i32* %118, i64 %126
  %128 = load i32, i32* %127, align 4, !tbaa !42
  %129 = getelementptr inbounds double, double* %119, i64 %126
  %130 = load double, double* %129, align 8, !tbaa !54
  %131 = sext i32 %128 to i64
  %132 = getelementptr inbounds double, double* %1, i64 %131
  %133 = load double, double* %132, align 8, !tbaa !54
  %134 = fadd double %130, %133
  store double %134, double* %132, align 8, !tbaa !54
  %135 = add nuw nsw i64 %125, 1
  %136 = icmp eq i64 %135, %123
  br i1 %136, label %137, label %124, !llvm.loop !151

137:                                              ; preds = %124, %113
  %138 = add nsw i32 %117, %115
  %139 = add nuw nsw i64 %114, 1
  %140 = icmp eq i64 %139, %103
  br i1 %140, label %141, label %113, !llvm.loop !152

141:                                              ; preds = %137, %95
  call void @llvm.lifetime.end.p0i8(i64 20, i8* nonnull %4) #19
  ret void
}

declare dso_local i32 @MPI_Irecv(i8*, i32, i32, i32, i32, i32, i32*) local_unnamed_addr #1

declare dso_local i32 @MPI_Send(i8*, i32, i32, i32, i32, i32) local_unnamed_addr #1

declare dso_local i32 @MPI_Wait(i32*, %struct.MPI_Status*) local_unnamed_addr #1

; Function Attrs: nofree nounwind
declare dso_local noundef i32 @sprintf(i8* noalias nocapture noundef writeonly, i8* nocapture noundef readonly, ...) local_unnamed_addr #6

; Function Attrs: nofree nounwind
declare dso_local noalias noundef %struct._IO_FILE* @fopen(i8* nocapture noundef readonly, i8* nocapture noundef readonly) local_unnamed_addr #6

; Function Attrs: nofree nounwind
declare dso_local noundef i32 @fprintf(%struct._IO_FILE* nocapture noundef, i8* nocapture noundef readonly, ...) local_unnamed_addr #6

; Function Attrs: nofree nounwind
declare dso_local noundef i32 @fclose(%struct._IO_FILE* nocapture noundef) local_unnamed_addr #6

; Function Attrs: mustprogress uwtable
define dso_local void @_ZN15LLNL_FEI_Matrix7matMultEiiPiS0_PdiiS0_S0_S1_S0_S0_PS0_S2_PS1_(%class.LLNL_FEI_Matrix* nocapture nonnull readnone align 8 dereferenceable(216) %0, i32 %1, i32 %2, i32* nocapture readonly %3, i32* nocapture readonly %4, double* nocapture readonly %5, i32 %6, i32 %7, i32* nocapture readonly %8, i32* nocapture readonly %9, double* nocapture readonly %10, i32* nocapture %11, i32* nocapture %12, i32** nocapture %13, i32** nocapture %14, double** nocapture %15) local_unnamed_addr #8 align 2 {
  %17 = sext i32 %1 to i64
  %18 = call { i64, i1 } @llvm.umul.with.overflow.i64(i64 %17, i64 4)
  %19 = extractvalue { i64, i1 } %18, 1
  %20 = extractvalue { i64, i1 } %18, 0
  %21 = select i1 %19, i64 -1, i64 %20
  %22 = call noalias nonnull i8* @_Znam(i64 %21) #20
  %23 = bitcast i8* %22 to i32*
  %24 = icmp sgt i32 %1, 0
  br i1 %24, label %25, label %28

25:                                               ; preds = %16
  %26 = zext i32 %1 to i64
  %27 = shl nuw nsw i64 %26, 2
  call void @llvm.memset.p0i8.i64(i8* nonnull align 4 %22, i8 -1, i64 %27, i1 false)
  br label %28

28:                                               ; preds = %25, %16
  %29 = icmp sgt i32 %1, 0
  br i1 %29, label %30, label %84

30:                                               ; preds = %28
  %31 = zext i32 %1 to i64
  br label %35

32:                                               ; preds = %80, %35
  %33 = phi i32 [ %37, %35 ], [ %81, %80 ]
  %34 = icmp eq i64 %40, %31
  br i1 %34, label %84, label %35, !llvm.loop !153

35:                                               ; preds = %30, %32
  %36 = phi i64 [ 0, %30 ], [ %40, %32 ]
  %37 = phi i32 [ 0, %30 ], [ %33, %32 ]
  %38 = getelementptr inbounds i32, i32* %3, i64 %36
  %39 = load i32, i32* %38, align 4, !tbaa !42
  %40 = add nuw nsw i64 %36, 1
  %41 = getelementptr inbounds i32, i32* %3, i64 %40
  %42 = load i32, i32* %41, align 4, !tbaa !42
  %43 = icmp slt i32 %39, %42
  br i1 %43, label %44, label %32

44:                                               ; preds = %35
  %45 = sext i32 %39 to i64
  %46 = sext i32 %42 to i64
  %47 = trunc i64 %36 to i32
  br label %48

48:                                               ; preds = %44, %80
  %49 = phi i64 [ %45, %44 ], [ %82, %80 ]
  %50 = phi i32 [ %37, %44 ], [ %81, %80 ]
  %51 = getelementptr inbounds i32, i32* %4, i64 %49
  %52 = load i32, i32* %51, align 4, !tbaa !42
  %53 = sext i32 %52 to i64
  %54 = getelementptr inbounds i32, i32* %8, i64 %53
  %55 = load i32, i32* %54, align 4, !tbaa !42
  %56 = add nsw i32 %52, 1
  %57 = sext i32 %56 to i64
  %58 = getelementptr inbounds i32, i32* %8, i64 %57
  %59 = load i32, i32* %58, align 4, !tbaa !42
  %60 = icmp slt i32 %55, %59
  br i1 %60, label %61, label %80

61:                                               ; preds = %48
  %62 = sext i32 %55 to i64
  %63 = sext i32 %59 to i64
  br label %64

64:                                               ; preds = %61, %76
  %65 = phi i64 [ %62, %61 ], [ %78, %76 ]
  %66 = phi i32 [ %50, %61 ], [ %77, %76 ]
  %67 = getelementptr inbounds i32, i32* %9, i64 %65
  %68 = load i32, i32* %67, align 4, !tbaa !42
  %69 = sext i32 %68 to i64
  %70 = getelementptr inbounds i32, i32* %23, i64 %69
  %71 = load i32, i32* %70, align 4, !tbaa !42
  %72 = zext i32 %71 to i64
  %73 = icmp eq i64 %36, %72
  br i1 %73, label %76, label %74

74:                                               ; preds = %64
  store i32 %47, i32* %70, align 4, !tbaa !42
  %75 = add nsw i32 %66, 1
  br label %76

76:                                               ; preds = %64, %74
  %77 = phi i32 [ %75, %74 ], [ %66, %64 ]
  %78 = add nsw i64 %65, 1
  %79 = icmp eq i64 %78, %63
  br i1 %79, label %80, label %64, !llvm.loop !154

80:                                               ; preds = %76, %48
  %81 = phi i32 [ %50, %48 ], [ %77, %76 ]
  %82 = add nsw i64 %49, 1
  %83 = icmp eq i64 %82, %46
  br i1 %83, label %32, label %48, !llvm.loop !155

84:                                               ; preds = %32, %28
  %85 = phi i32 [ 0, %28 ], [ %33, %32 ]
  %86 = add nsw i32 %1, 1
  %87 = sext i32 %86 to i64
  %88 = call { i64, i1 } @llvm.umul.with.overflow.i64(i64 %87, i64 4)
  %89 = extractvalue { i64, i1 } %88, 1
  %90 = extractvalue { i64, i1 } %88, 0
  %91 = select i1 %89, i64 -1, i64 %90
  %92 = call noalias nonnull i8* @_Znam(i64 %91) #20
  %93 = bitcast i8* %92 to i32*
  %94 = sext i32 %85 to i64
  %95 = call { i64, i1 } @llvm.umul.with.overflow.i64(i64 %94, i64 4)
  %96 = extractvalue { i64, i1 } %95, 1
  %97 = extractvalue { i64, i1 } %95, 0
  %98 = select i1 %96, i64 -1, i64 %97
  %99 = call noalias nonnull i8* @_Znam(i64 %98) #20
  %100 = bitcast i8* %99 to i32*
  %101 = call { i64, i1 } @llvm.umul.with.overflow.i64(i64 %94, i64 8)
  %102 = extractvalue { i64, i1 } %101, 1
  %103 = extractvalue { i64, i1 } %101, 0
  %104 = select i1 %102, i64 -1, i64 %103
  %105 = call noalias nonnull i8* @_Znam(i64 %104) #20
  %106 = bitcast i8* %105 to double*
  %107 = icmp sgt i32 %1, 0
  br i1 %107, label %108, label %111

108:                                              ; preds = %84
  %109 = zext i32 %1 to i64
  %110 = shl nuw nsw i64 %109, 2
  call void @llvm.memset.p0i8.i64(i8* nonnull align 4 %22, i8 -1, i64 %110, i1 false)
  br label %111

111:                                              ; preds = %108, %84
  store i32 0, i32* %93, align 4, !tbaa !42
  %112 = icmp sgt i32 %1, 0
  br i1 %112, label %113, label %180

113:                                              ; preds = %111
  %114 = zext i32 %1 to i64
  br label %115

115:                                              ; preds = %113, %176
  %116 = phi i64 [ 0, %113 ], [ %120, %176 ]
  %117 = phi i32 [ 0, %113 ], [ %177, %176 ]
  %118 = getelementptr inbounds i32, i32* %3, i64 %116
  %119 = load i32, i32* %118, align 4, !tbaa !42
  %120 = add nuw nsw i64 %116, 1
  %121 = getelementptr inbounds i32, i32* %3, i64 %120
  %122 = load i32, i32* %121, align 4, !tbaa !42
  %123 = icmp slt i32 %119, %122
  br i1 %123, label %124, label %176

124:                                              ; preds = %115
  %125 = sext i32 %119 to i64
  %126 = sext i32 %122 to i64
  br label %127

127:                                              ; preds = %124, %172
  %128 = phi i64 [ %125, %124 ], [ %174, %172 ]
  %129 = phi i32 [ %117, %124 ], [ %173, %172 ]
  %130 = getelementptr inbounds i32, i32* %4, i64 %128
  %131 = load i32, i32* %130, align 4, !tbaa !42
  %132 = getelementptr inbounds double, double* %5, i64 %128
  %133 = load double, double* %132, align 8, !tbaa !54
  %134 = sext i32 %131 to i64
  %135 = getelementptr inbounds i32, i32* %8, i64 %134
  %136 = load i32, i32* %135, align 4, !tbaa !42
  %137 = add nsw i32 %131, 1
  %138 = sext i32 %137 to i64
  %139 = getelementptr inbounds i32, i32* %8, i64 %138
  %140 = load i32, i32* %139, align 4, !tbaa !42
  %141 = icmp slt i32 %136, %140
  br i1 %141, label %142, label %172

142:                                              ; preds = %127
  %143 = sext i32 %136 to i64
  %144 = sext i32 %140 to i64
  br label %145

145:                                              ; preds = %142, %168
  %146 = phi i64 [ %143, %142 ], [ %170, %168 ]
  %147 = phi i32 [ %129, %142 ], [ %169, %168 ]
  %148 = getelementptr inbounds i32, i32* %9, i64 %146
  %149 = load i32, i32* %148, align 4, !tbaa !42
  %150 = getelementptr inbounds double, double* %10, i64 %146
  %151 = load double, double* %150, align 8, !tbaa !54
  %152 = sext i32 %149 to i64
  %153 = getelementptr inbounds i32, i32* %23, i64 %152
  %154 = load i32, i32* %153, align 4, !tbaa !42
  %155 = icmp slt i32 %154, %117
  br i1 %155, label %156, label %162

156:                                              ; preds = %145
  store i32 %147, i32* %153, align 4, !tbaa !42
  %157 = sext i32 %147 to i64
  %158 = getelementptr inbounds i32, i32* %100, i64 %157
  store i32 %149, i32* %158, align 4, !tbaa !42
  %159 = fmul double %133, %151
  %160 = add nsw i32 %147, 1
  %161 = getelementptr inbounds double, double* %106, i64 %157
  store double %159, double* %161, align 8, !tbaa !54
  br label %168

162:                                              ; preds = %145
  %163 = fmul double %133, %151
  %164 = sext i32 %154 to i64
  %165 = getelementptr inbounds double, double* %106, i64 %164
  %166 = load double, double* %165, align 8, !tbaa !54
  %167 = fadd double %163, %166
  store double %167, double* %165, align 8, !tbaa !54
  br label %168

168:                                              ; preds = %156, %162
  %169 = phi i32 [ %160, %156 ], [ %147, %162 ]
  %170 = add nsw i64 %146, 1
  %171 = icmp eq i64 %170, %144
  br i1 %171, label %172, label %145, !llvm.loop !156

172:                                              ; preds = %168, %127
  %173 = phi i32 [ %129, %127 ], [ %169, %168 ]
  %174 = add nsw i64 %128, 1
  %175 = icmp eq i64 %174, %126
  br i1 %175, label %176, label %127, !llvm.loop !157

176:                                              ; preds = %172, %115
  %177 = phi i32 [ %117, %115 ], [ %173, %172 ]
  %178 = getelementptr inbounds i32, i32* %93, i64 %120
  store i32 %177, i32* %178, align 4, !tbaa !42
  %179 = icmp eq i64 %120, %114
  br i1 %179, label %180, label %115, !llvm.loop !158

180:                                              ; preds = %176, %111
  %181 = icmp sgt i32 %1, 0
  br i1 %181, label %182, label %183

182:                                              ; preds = %180
  call void @_ZdaPv(i8* %22) #18
  br label %183

183:                                              ; preds = %182, %180
  store i32 %1, i32* %11, align 4, !tbaa !42
  store i32 %7, i32* %12, align 4, !tbaa !42
  %184 = bitcast i32** %13 to i8**
  store i8* %92, i8** %184, align 8, !tbaa !34
  %185 = bitcast i32** %14 to i8**
  store i8* %99, i8** %185, align 8, !tbaa !34
  %186 = bitcast double** %15 to i8**
  store i8* %105, i8** %186, align 8, !tbaa !34
  ret void
}

declare dso_local i32 @MPI_Comm_size(i32, i32*) local_unnamed_addr #1

; Function Attrs: nofree nounwind
declare dso_local noundef i32 @printf(i8* nocapture noundef readonly, ...) local_unnamed_addr #6

; Function Attrs: mustprogress nofree nosync nounwind uwtable
define dso_local void @_ZN15LLNL_FEI_Matrix9IntSort2aEPiPdii(%class.LLNL_FEI_Matrix* nonnull readnone align 8 dereferenceable(216) %0, i32* %1, double* %2, i32 %3, i32 %4) local_unnamed_addr #12 align 2 {
  %6 = icmp slt i32 %3, %4
  br i1 %6, label %7, label %59

7:                                                ; preds = %5
  %8 = add nsw i32 %4, %3
  %9 = sdiv i32 %8, 2
  %10 = sext i32 %3 to i64
  %11 = getelementptr inbounds i32, i32* %1, i64 %10
  %12 = load i32, i32* %11, align 4, !tbaa !42
  %13 = sext i32 %9 to i64
  %14 = getelementptr inbounds i32, i32* %1, i64 %13
  %15 = load i32, i32* %14, align 4, !tbaa !42
  store i32 %15, i32* %11, align 4, !tbaa !42
  store i32 %12, i32* %14, align 4, !tbaa !42
  %16 = getelementptr inbounds double, double* %2, i64 %10
  %17 = load double, double* %16, align 8, !tbaa !54
  %18 = getelementptr inbounds double, double* %2, i64 %13
  %19 = load double, double* %18, align 8, !tbaa !54
  store double %19, double* %16, align 8, !tbaa !54
  store double %17, double* %18, align 8, !tbaa !54
  %20 = load i32, i32* %11, align 4, !tbaa !42
  %21 = add nsw i32 %3, 1
  %22 = sext i32 %21 to i64
  %23 = getelementptr inbounds double, double* %2, i64 %22
  %24 = getelementptr inbounds i32, i32* %1, i64 %22
  br label %25

25:                                               ; preds = %7, %41
  %26 = phi double* [ %46, %41 ], [ %23, %7 ]
  %27 = phi double* [ %44, %41 ], [ %16, %7 ]
  %28 = phi i32* [ %45, %41 ], [ %24, %7 ]
  %29 = phi i32* [ %43, %41 ], [ %11, %7 ]
  %30 = phi i32 [ %47, %41 ], [ %21, %7 ]
  %31 = phi i32 [ %42, %41 ], [ %3, %7 ]
  %32 = load i32, i32* %28, align 4, !tbaa !42
  %33 = icmp slt i32 %32, %20
  br i1 %33, label %34, label %41

34:                                               ; preds = %25
  %35 = add nsw i32 %31, 1
  %36 = getelementptr inbounds i32, i32* %29, i64 1
  %37 = getelementptr inbounds double, double* %27, i64 1
  %38 = load i32, i32* %36, align 4, !tbaa !42
  store i32 %32, i32* %36, align 4, !tbaa !42
  store i32 %38, i32* %28, align 4, !tbaa !42
  %39 = load double, double* %37, align 8, !tbaa !54
  %40 = load double, double* %26, align 8, !tbaa !54
  store double %40, double* %37, align 8, !tbaa !54
  store double %39, double* %26, align 8, !tbaa !54
  br label %41

41:                                               ; preds = %34, %25
  %42 = phi i32 [ %35, %34 ], [ %31, %25 ]
  %43 = phi i32* [ %36, %34 ], [ %29, %25 ]
  %44 = phi double* [ %37, %34 ], [ %27, %25 ]
  %45 = getelementptr inbounds i32, i32* %28, i64 1
  %46 = getelementptr inbounds double, double* %26, i64 1
  %47 = add i32 %30, 1
  %48 = icmp eq i32 %30, %4
  br i1 %48, label %49, label %25, !llvm.loop !159

49:                                               ; preds = %41
  %50 = load i32, i32* %11, align 4, !tbaa !42
  %51 = sext i32 %42 to i64
  %52 = getelementptr inbounds i32, i32* %1, i64 %51
  %53 = load i32, i32* %52, align 4, !tbaa !42
  store i32 %53, i32* %11, align 4, !tbaa !42
  store i32 %50, i32* %52, align 4, !tbaa !42
  %54 = load double, double* %16, align 8, !tbaa !54
  %55 = getelementptr inbounds double, double* %2, i64 %51
  %56 = load double, double* %55, align 8, !tbaa !54
  store double %56, double* %16, align 8, !tbaa !54
  store double %54, double* %55, align 8, !tbaa !54
  %57 = add nsw i32 %42, -1
  call void @_ZN15LLNL_FEI_Matrix9IntSort2aEPiPdii(%class.LLNL_FEI_Matrix* nonnull align 8 dereferenceable(216) %0, i32* %1, double* %2, i32 %3, i32 %57)
  %58 = add nsw i32 %42, 1
  call void @_ZN15LLNL_FEI_Matrix9IntSort2aEPiPdii(%class.LLNL_FEI_Matrix* nonnull align 8 dereferenceable(216) %0, i32* %1, double* %2, i32 %58, i32 %4)
  br label %59

59:                                               ; preds = %5, %49
  ret void
}

; Function Attrs: mustprogress nofree nosync nounwind uwtable
define dso_local void @_ZN15LLNL_FEI_Matrix8IntSort2EPiS0_ii(%class.LLNL_FEI_Matrix* nonnull readnone align 8 dereferenceable(216) %0, i32* %1, i32* %2, i32 %3, i32 %4) local_unnamed_addr #12 align 2 {
  %6 = icmp slt i32 %3, %4
  br i1 %6, label %7, label %52

7:                                                ; preds = %5
  %8 = add nsw i32 %4, %3
  %9 = sdiv i32 %8, 2
  %10 = sext i32 %3 to i64
  %11 = getelementptr inbounds i32, i32* %1, i64 %10
  %12 = load i32, i32* %11, align 4, !tbaa !42
  %13 = sext i32 %9 to i64
  %14 = getelementptr inbounds i32, i32* %1, i64 %13
  %15 = load i32, i32* %14, align 4, !tbaa !42
  store i32 %15, i32* %11, align 4, !tbaa !42
  store i32 %12, i32* %14, align 4, !tbaa !42
  %16 = getelementptr inbounds i32, i32* %2, i64 %10
  %17 = load i32, i32* %16, align 4, !tbaa !42
  %18 = getelementptr inbounds i32, i32* %2, i64 %13
  %19 = load i32, i32* %18, align 4, !tbaa !42
  store i32 %19, i32* %16, align 4, !tbaa !42
  store i32 %17, i32* %18, align 4, !tbaa !42
  %20 = sext i32 %3 to i64
  %21 = sext i32 %4 to i64
  br label %22

22:                                               ; preds = %7, %39
  %23 = phi i64 [ %20, %7 ], [ %25, %39 ]
  %24 = phi i32 [ %3, %7 ], [ %40, %39 ]
  %25 = add nsw i64 %23, 1
  %26 = getelementptr inbounds i32, i32* %1, i64 %25
  %27 = load i32, i32* %26, align 4, !tbaa !42
  %28 = load i32, i32* %11, align 4, !tbaa !42
  %29 = icmp slt i32 %27, %28
  br i1 %29, label %30, label %39

30:                                               ; preds = %22
  %31 = add nsw i32 %24, 1
  %32 = sext i32 %31 to i64
  %33 = getelementptr inbounds i32, i32* %1, i64 %32
  %34 = load i32, i32* %33, align 4, !tbaa !42
  store i32 %27, i32* %33, align 4, !tbaa !42
  store i32 %34, i32* %26, align 4, !tbaa !42
  %35 = getelementptr inbounds i32, i32* %2, i64 %32
  %36 = load i32, i32* %35, align 4, !tbaa !42
  %37 = getelementptr inbounds i32, i32* %2, i64 %25
  %38 = load i32, i32* %37, align 4, !tbaa !42
  store i32 %38, i32* %35, align 4, !tbaa !42
  store i32 %36, i32* %37, align 4, !tbaa !42
  br label %39

39:                                               ; preds = %22, %30
  %40 = phi i32 [ %31, %30 ], [ %24, %22 ]
  %41 = icmp eq i64 %25, %21
  br i1 %41, label %42, label %22, !llvm.loop !160

42:                                               ; preds = %39
  %43 = load i32, i32* %11, align 4, !tbaa !42
  %44 = sext i32 %40 to i64
  %45 = getelementptr inbounds i32, i32* %1, i64 %44
  %46 = load i32, i32* %45, align 4, !tbaa !42
  store i32 %46, i32* %11, align 4, !tbaa !42
  store i32 %43, i32* %45, align 4, !tbaa !42
  %47 = load i32, i32* %16, align 4, !tbaa !42
  %48 = getelementptr inbounds i32, i32* %2, i64 %44
  %49 = load i32, i32* %48, align 4, !tbaa !42
  store i32 %49, i32* %16, align 4, !tbaa !42
  store i32 %47, i32* %48, align 4, !tbaa !42
  %50 = add nsw i32 %40, -1
  call void @_ZN15LLNL_FEI_Matrix8IntSort2EPiS0_ii(%class.LLNL_FEI_Matrix* nonnull align 8 dereferenceable(216) %0, i32* %1, i32* %2, i32 %3, i32 %50)
  %51 = add nsw i32 %40, 1
  call void @_ZN15LLNL_FEI_Matrix8IntSort2EPiS0_ii(%class.LLNL_FEI_Matrix* nonnull align 8 dereferenceable(216) %0, i32* %1, i32* %2, i32 %51, i32 %4)
  br label %52

52:                                               ; preds = %5, %42
  ret void
}

; Function Attrs: mustprogress nofree norecurse nosync nounwind readonly uwtable willreturn
define dso_local i32 @_ZN15LLNL_FEI_Matrix13BinarySearch2EPiiii(%class.LLNL_FEI_Matrix* nocapture nonnull readnone align 8 %0, i32* readonly %1, i32 %2, i32 %3, i32 %4) local_unnamed_addr #13 align 2 {
  %6 = icmp eq i32* %1, null
  br i1 %6, label %39, label %7

7:                                                ; preds = %5
  %8 = add nsw i32 %3, %2
  %9 = icmp sgt i32 %3, 1
  br i1 %9, label %10, label %25

10:                                               ; preds = %7, %19
  %11 = phi i32 [ %22, %19 ], [ %2, %7 ]
  %12 = phi i32 [ %21, %19 ], [ %8, %7 ]
  %13 = add nsw i32 %11, %12
  %14 = ashr i32 %13, 1
  %15 = sext i32 %14 to i64
  %16 = getelementptr inbounds i32, i32* %1, i64 %15
  %17 = load i32, i32* %16, align 4, !tbaa !42
  %18 = icmp eq i32 %17, %4
  br i1 %18, label %39, label %19

19:                                               ; preds = %10
  %20 = icmp sgt i32 %17, %4
  %21 = select i1 %20, i32 %14, i32 %12
  %22 = select i1 %20, i32 %11, i32 %14
  %23 = sub nsw i32 %21, %22
  %24 = icmp sgt i32 %23, 1
  br i1 %24, label %10, label %25, !llvm.loop !105

25:                                               ; preds = %19, %7
  %26 = phi i32 [ %8, %7 ], [ %21, %19 ]
  %27 = phi i32 [ %2, %7 ], [ %22, %19 ]
  %28 = sext i32 %26 to i64
  %29 = getelementptr inbounds i32, i32* %1, i64 %28
  %30 = load i32, i32* %29, align 4, !tbaa !42
  %31 = icmp eq i32 %30, %4
  br i1 %31, label %39, label %32

32:                                               ; preds = %25
  %33 = sext i32 %27 to i64
  %34 = getelementptr inbounds i32, i32* %1, i64 %33
  %35 = load i32, i32* %34, align 4, !tbaa !42
  %36 = icmp ne i32 %35, %4
  %37 = sext i1 %36 to i32
  %38 = xor i32 %27, %37
  br label %39

39:                                               ; preds = %10, %32, %25, %5
  %40 = phi i32 [ -1, %5 ], [ %26, %25 ], [ %38, %32 ], [ %14, %10 ]
  ret i32 %40
}

; Function Attrs: mustprogress nofree nosync nounwind uwtable
define dso_local void @_ZN15LLNL_FEI_Matrix7IntSortEPiii(%class.LLNL_FEI_Matrix* nonnull readnone align 8 dereferenceable(216) %0, i32* %1, i32 %2, i32 %3) local_unnamed_addr #12 align 2 {
  %5 = icmp slt i32 %2, %3
  br i1 %5, label %6, label %40

6:                                                ; preds = %4
  %7 = add nsw i32 %3, %2
  %8 = sdiv i32 %7, 2
  %9 = sext i32 %2 to i64
  %10 = getelementptr inbounds i32, i32* %1, i64 %9
  %11 = load i32, i32* %10, align 4, !tbaa !42
  %12 = sext i32 %8 to i64
  %13 = getelementptr inbounds i32, i32* %1, i64 %12
  %14 = load i32, i32* %13, align 4, !tbaa !42
  store i32 %14, i32* %10, align 4, !tbaa !42
  store i32 %11, i32* %13, align 4, !tbaa !42
  %15 = sext i32 %2 to i64
  %16 = sext i32 %3 to i64
  br label %17

17:                                               ; preds = %6, %30
  %18 = phi i64 [ %15, %6 ], [ %20, %30 ]
  %19 = phi i32 [ %2, %6 ], [ %31, %30 ]
  %20 = add nsw i64 %18, 1
  %21 = getelementptr inbounds i32, i32* %1, i64 %20
  %22 = load i32, i32* %21, align 4, !tbaa !42
  %23 = load i32, i32* %10, align 4, !tbaa !42
  %24 = icmp slt i32 %22, %23
  br i1 %24, label %25, label %30

25:                                               ; preds = %17
  %26 = add nsw i32 %19, 1
  %27 = sext i32 %26 to i64
  %28 = getelementptr inbounds i32, i32* %1, i64 %27
  %29 = load i32, i32* %28, align 4, !tbaa !42
  store i32 %22, i32* %28, align 4, !tbaa !42
  store i32 %29, i32* %21, align 4, !tbaa !42
  br label %30

30:                                               ; preds = %17, %25
  %31 = phi i32 [ %26, %25 ], [ %19, %17 ]
  %32 = icmp eq i64 %20, %16
  br i1 %32, label %33, label %17, !llvm.loop !161

33:                                               ; preds = %30
  %34 = load i32, i32* %10, align 4, !tbaa !42
  %35 = sext i32 %31 to i64
  %36 = getelementptr inbounds i32, i32* %1, i64 %35
  %37 = load i32, i32* %36, align 4, !tbaa !42
  store i32 %37, i32* %10, align 4, !tbaa !42
  store i32 %34, i32* %36, align 4, !tbaa !42
  %38 = add nsw i32 %31, -1
  call void @_ZN15LLNL_FEI_Matrix7IntSortEPiii(%class.LLNL_FEI_Matrix* nonnull align 8 dereferenceable(216) %0, i32* %1, i32 %2, i32 %38)
  %39 = add nsw i32 %31, 1
  call void @_ZN15LLNL_FEI_Matrix7IntSortEPiii(%class.LLNL_FEI_Matrix* nonnull align 8 dereferenceable(216) %0, i32* %1, i32 %39, i32 %3)
  br label %40

40:                                               ; preds = %4, %33
  ret void
}

; Function Attrs: argmemonly nofree nounwind readonly willreturn
declare i32 @bcmp(i8* nocapture, i8* nocapture, i64) local_unnamed_addr #14

; Function Attrs: argmemonly nofree nounwind willreturn writeonly
declare void @llvm.memset.p0i8.i64(i8* nocapture writeonly, i8, i64, i1 immarg) #15

; Function Attrs: nofree nosync nounwind readnone speculatable willreturn
declare i32 @llvm.abs.i32(i32, i1 immarg) #16

; Function Attrs: argmemonly nofree nounwind willreturn
declare void @llvm.memcpy.p0i8.p0i8.i64(i8* noalias nocapture writeonly, i8* noalias nocapture readonly, i64, i1 immarg) #17

attributes #0 = { uwtable "frame-pointer"="none" "min-legal-vector-width"="0" "no-trapping-math"="true" "stack-protector-buffer-size"="8" "target-cpu"="x86-64" "target-features"="+cx8,+fxsr,+mmx,+sse,+sse2,+x87" "tune-cpu"="generic" }
attributes #1 = { "frame-pointer"="none" "no-trapping-math"="true" "stack-protector-buffer-size"="8" "target-cpu"="x86-64" "target-features"="+cx8,+fxsr,+mmx,+sse,+sse2,+x87" "tune-cpu"="generic" }
attributes #2 = { nounwind uwtable "frame-pointer"="none" "min-legal-vector-width"="0" "no-trapping-math"="true" "stack-protector-buffer-size"="8" "target-cpu"="x86-64" "target-features"="+cx8,+fxsr,+mmx,+sse,+sse2,+x87" "tune-cpu"="generic" }
attributes #3 = { argmemonly mustprogress nofree nosync nounwind willreturn }
attributes #4 = { mustprogress nounwind uwtable "frame-pointer"="none" "min-legal-vector-width"="0" "no-trapping-math"="true" "stack-protector-buffer-size"="8" "target-cpu"="x86-64" "target-features"="+cx8,+fxsr,+mmx,+sse,+sse2,+x87" "tune-cpu"="generic" }
attributes #5 = { mustprogress nofree nounwind uwtable "frame-pointer"="none" "min-legal-vector-width"="0" "no-trapping-math"="true" "stack-protector-buffer-size"="8" "target-cpu"="x86-64" "target-features"="+cx8,+fxsr,+mmx,+sse,+sse2,+x87" "tune-cpu"="generic" }
attributes #6 = { nofree nounwind "frame-pointer"="none" "no-trapping-math"="true" "stack-protector-buffer-size"="8" "target-cpu"="x86-64" "target-features"="+cx8,+fxsr,+mmx,+sse,+sse2,+x87" "tune-cpu"="generic" }
attributes #7 = { nobuiltin nounwind "frame-pointer"="none" "no-trapping-math"="true" "stack-protector-buffer-size"="8" "target-cpu"="x86-64" "target-features"="+cx8,+fxsr,+mmx,+sse,+sse2,+x87" "tune-cpu"="generic" }
attributes #8 = { mustprogress uwtable "frame-pointer"="none" "min-legal-vector-width"="0" "no-trapping-math"="true" "stack-protector-buffer-size"="8" "target-cpu"="x86-64" "target-features"="+cx8,+fxsr,+mmx,+sse,+sse2,+x87" "tune-cpu"="generic" }
attributes #9 = { mustprogress nofree nosync nounwind readnone speculatable willreturn }
attributes #10 = { nobuiltin allocsize(0) "frame-pointer"="none" "no-trapping-math"="true" "stack-protector-buffer-size"="8" "target-cpu"="x86-64" "target-features"="+cx8,+fxsr,+mmx,+sse,+sse2,+x87" "tune-cpu"="generic" }
attributes #11 = { mustprogress nofree nounwind willreturn "frame-pointer"="none" "no-trapping-math"="true" "stack-protector-buffer-size"="8" "target-cpu"="x86-64" "target-features"="+cx8,+fxsr,+mmx,+sse,+sse2,+x87" "tune-cpu"="generic" }
attributes #12 = { mustprogress nofree nosync nounwind uwtable "frame-pointer"="none" "min-legal-vector-width"="0" "no-trapping-math"="true" "stack-protector-buffer-size"="8" "target-cpu"="x86-64" "target-features"="+cx8,+fxsr,+mmx,+sse,+sse2,+x87" "tune-cpu"="generic" }
attributes #13 = { mustprogress nofree norecurse nosync nounwind readonly uwtable willreturn "frame-pointer"="none" "min-legal-vector-width"="0" "no-trapping-math"="true" "stack-protector-buffer-size"="8" "target-cpu"="x86-64" "target-features"="+cx8,+fxsr,+mmx,+sse,+sse2,+x87" "tune-cpu"="generic" }
attributes #14 = { argmemonly nofree nounwind readonly willreturn }
attributes #15 = { argmemonly nofree nounwind willreturn writeonly }
attributes #16 = { nofree nosync nounwind readnone speculatable willreturn }
attributes #17 = { argmemonly nofree nounwind willreturn }
attributes #18 = { builtin nounwind }
attributes #19 = { nounwind }
attributes #20 = { builtin allocsize(0) }

!llvm.module.flags = !{!0, !1}
!llvm.ident = !{!2}

!0 = !{i32 1, !"wchar_size", i32 4}
!1 = !{i32 7, !"uwtable", i32 1}
!2 = !{!"clang version 13.0.0"}
!3 = !{!4, !5, i64 0}
!4 = !{!"_ZTS15LLNL_FEI_Matrix", !5, i64 0, !5, i64 4, !5, i64 8, !5, i64 12, !5, i64 16, !5, i64 20, !8, i64 24, !8, i64 32, !8, i64 40, !8, i64 48, !8, i64 56, !8, i64 64, !8, i64 72, !8, i64 80, !8, i64 88, !8, i64 96, !8, i64 104, !5, i64 112, !8, i64 120, !8, i64 128, !8, i64 136, !8, i64 144, !8, i64 152, !5, i64 160, !8, i64 168, !8, i64 176, !8, i64 184, !8, i64 192, !8, i64 200, !5, i64 208, !5, i64 212}
!5 = !{!"int", !6, i64 0}
!6 = !{!"omnipotent char", !7, i64 0}
!7 = !{!"Simple C++ TBAA"}
!8 = !{!"any pointer", !6, i64 0}
!9 = !{!4, !5, i64 212}
!10 = !{!4, !5, i64 12}
!11 = !{!4, !5, i64 16}
!12 = !{!4, !5, i64 20}
!13 = !{!4, !8, i64 24}
!14 = !{!4, !8, i64 32}
!15 = !{!4, !8, i64 40}
!16 = !{!4, !8, i64 48}
!17 = !{!4, !8, i64 56}
!18 = !{!4, !8, i64 64}
!19 = !{!4, !8, i64 72}
!20 = !{!4, !8, i64 80}
!21 = !{!4, !8, i64 88}
!22 = !{!4, !8, i64 96}
!23 = !{!4, !8, i64 104}
!24 = !{!4, !8, i64 120}
!25 = !{!4, !8, i64 128}
!26 = !{!4, !8, i64 136}
!27 = !{!4, !8, i64 144}
!28 = !{!4, !8, i64 152}
!29 = !{!4, !8, i64 168}
!30 = !{!4, !8, i64 176}
!31 = !{!4, !8, i64 184}
!32 = !{!4, !8, i64 192}
!33 = !{!4, !8, i64 200}
!34 = !{!8, !8, i64 0}
!35 = !{!4, !5, i64 8}
!36 = !{!4, !5, i64 208}
!37 = distinct !{!37, !38, !39}
!38 = !{!"llvm.loop.mustprogress"}
!39 = !{!"llvm.loop.unroll.disable"}
!40 = !{!4, !5, i64 112}
!41 = !{!4, !5, i64 160}
!42 = !{!5, !5, i64 0}
!43 = distinct !{!43, !38, !39}
!44 = distinct !{!44, !38, !39}
!45 = !{!4, !5, i64 4}
!46 = distinct !{!46, !38, !39}
!47 = distinct !{!47, !38, !39}
!48 = distinct !{!48, !38, !39}
!49 = distinct !{!49, !38, !39}
!50 = distinct !{!50, !38, !39}
!51 = distinct !{!51, !38, !39}
!52 = distinct !{!52, !38, !39}
!53 = distinct !{!53, !38, !39}
!54 = !{!55, !55, i64 0}
!55 = !{!"double", !6, i64 0}
!56 = distinct !{!56, !38, !39}
!57 = distinct !{!57, !38, !39}
!58 = distinct !{!58, !38, !39}
!59 = distinct !{!59, !38, !39}
!60 = distinct !{!60, !38, !39}
!61 = distinct !{!61, !38, !39}
!62 = distinct !{!62, !38, !39}
!63 = distinct !{!63, !38, !39}
!64 = distinct !{!64, !38, !39}
!65 = distinct !{!65, !38, !39}
!66 = distinct !{!66, !38, !39}
!67 = distinct !{!67, !38, !39}
!68 = distinct !{!68, !38, !39}
!69 = distinct !{!69, !38, !39}
!70 = distinct !{!70, !38, !39}
!71 = distinct !{!71, !38, !39}
!72 = distinct !{!72, !38, !39}
!73 = distinct !{!73, !38, !39}
!74 = distinct !{!74, !38, !39}
!75 = distinct !{!75, !38, !39}
!76 = distinct !{!76, !38, !39}
!77 = distinct !{!77, !38, !39}
!78 = distinct !{!78, !38, !39}
!79 = distinct !{!79, !38, !39}
!80 = distinct !{!80, !38, !39}
!81 = distinct !{!81, !38, !39}
!82 = distinct !{!82, !38, !39}
!83 = distinct !{!83, !38, !39}
!84 = distinct !{!84, !38, !39}
!85 = distinct !{!85, !38, !39}
!86 = distinct !{!86, !38, !39}
!87 = distinct !{!87, !38, !39}
!88 = distinct !{!88, !38, !39}
!89 = distinct !{!89, !38, !39}
!90 = distinct !{!90, !38, !39}
!91 = distinct !{!91, !38, !39}
!92 = distinct !{!92, !38, !39}
!93 = distinct !{!93, !38, !39}
!94 = distinct !{!94, !38, !39}
!95 = distinct !{!95, !38, !39}
!96 = distinct !{!96, !38, !39}
!97 = distinct !{!97, !38, !39}
!98 = distinct !{!98, !38, !39}
!99 = distinct !{!99, !38, !39}
!100 = distinct !{!100, !38, !39}
!101 = distinct !{!101, !38, !39}
!102 = distinct !{!102, !38, !39}
!103 = distinct !{!103, !38, !39}
!104 = distinct !{!104, !38, !39}
!105 = distinct !{!105, !38, !39}
!106 = distinct !{!106, !38, !39}
!107 = distinct !{!107, !38, !39}
!108 = distinct !{!108, !38, !39}
!109 = distinct !{!109, !38, !39}
!110 = distinct !{!110, !38, !39}
!111 = distinct !{!111, !38, !39}
!112 = distinct !{!112, !38, !39}
!113 = distinct !{!113, !38, !39}
!114 = !{!115, !5, i64 8}
!115 = !{!"_ZTS10MPI_Status", !5, i64 0, !5, i64 4, !5, i64 8, !5, i64 12, !5, i64 16}
!116 = distinct !{!116, !38, !39}
!117 = distinct !{!117, !38, !39}
!118 = distinct !{!118, !38, !39}
!119 = distinct !{!119, !38, !39}
!120 = distinct !{!120, !38, !39}
!121 = distinct !{!121, !38, !39}
!122 = distinct !{!122, !38, !39}
!123 = distinct !{!123, !38, !39}
!124 = distinct !{!124, !38, !39}
!125 = distinct !{!125, !38, !39}
!126 = distinct !{!126, !38, !39}
!127 = distinct !{!127, !38, !39}
!128 = distinct !{!128, !38, !39}
!129 = distinct !{!129, !38, !39}
!130 = distinct !{!130, !38, !39}
!131 = distinct !{!131, !38, !39}
!132 = distinct !{!132, !38, !39}
!133 = distinct !{!133, !38, !39}
!134 = distinct !{!134, !38, !39}
!135 = distinct !{!135, !38, !39}
!136 = distinct !{!136, !38, !39}
!137 = distinct !{!137, !38, !39}
!138 = distinct !{!138, !38, !39}
!139 = distinct !{!139, !38, !39}
!140 = distinct !{!140, !38, !39}
!141 = distinct !{!141, !38, !39}
!142 = distinct !{!142, !38, !39}
!143 = distinct !{!143, !38, !39}
!144 = distinct !{!144, !38, !39}
!145 = distinct !{!145, !38, !39}
!146 = distinct !{!146, !38, !39}
!147 = distinct !{!147, !38, !39}
!148 = distinct !{!148, !38, !39}
!149 = distinct !{!149, !38, !39}
!150 = distinct !{!150, !38, !39}
!151 = distinct !{!151, !38, !39}
!152 = distinct !{!152, !38, !39}
!153 = distinct !{!153, !38, !39}
!154 = distinct !{!154, !38, !39}
!155 = distinct !{!155, !38, !39}
!156 = distinct !{!156, !38, !39}
!157 = distinct !{!157, !38, !39}
!158 = distinct !{!158, !38, !39}
!159 = distinct !{!159, !38, !39}
!160 = distinct !{!160, !38, !39}
!161 = distinct !{!161, !38, !39}
