; ModuleID = '/hypre/src/FEI_mv/fei-hypre/HYPRE_SlideReduction.cxx'
source_filename = "/hypre/src/FEI_mv/fei-hypre/HYPRE_SlideReduction.cxx"
target datalayout = "e-m:e-p270:32:32-p271:32:32-p272:64:64-i64:64-f80:128-n8:16:32:64-S128"
target triple = "x86_64-unknown-linux-gnu"

%struct._IO_FILE = type { i32, i8*, i8*, i8*, i8*, i8*, i8*, i8*, i8*, i8*, i8*, i8*, %struct._IO_marker*, %struct._IO_FILE*, i32, i32, i64, i16, i8, [1 x i8], i8*, i64, %struct._IO_codecvt*, %struct._IO_wide_data*, %struct._IO_FILE*, i8*, i64, i32, [20 x i8] }
%struct._IO_marker = type opaque
%struct._IO_codecvt = type opaque
%struct._IO_wide_data = type opaque
%class.HYPRE_SlideReduction = type { i32 (...)**, i32, %struct.hypre_IJMatrix_struct*, %struct.hypre_IJMatrix_struct*, %struct.hypre_IJMatrix_struct*, %struct.hypre_IJMatrix_struct*, %struct.hypre_IJVector_struct*, %struct.hypre_IJVector_struct*, %struct.hypre_IJVector_struct*, i32, i32*, i32*, i32*, i32*, i32*, i32*, i32*, i32*, double, %struct.hypre_ParCSRMatrix_struct*, double, double*, i32, i32 }
%struct.hypre_IJMatrix_struct = type { i32, i32*, i32*, i32, i8*, i8*, i8*, i32, i32, i32, i32, i32, i32, i32 }
%struct.hypre_IJVector_struct = type { i32, i32*, i32, i8*, i8*, i8*, i32, i32, i32 }
%struct.hypre_ParCSRMatrix_struct = type { i32, i32, i32, i32, i32, i32, i32, %struct.hypre_CSRMatrix*, %struct.hypre_CSRMatrix*, %struct.hypre_CSRMatrix*, %struct.hypre_CSRMatrix*, i32*, i32*, i32*, %struct.hypre_ParCSRCommPkg*, %struct.hypre_ParCSRCommPkg*, i32, i32, i32, i32, double, i32*, double*, i32, %struct.hypre_IJAssumedPart* }
%struct.hypre_CSRMatrix = type { i32*, i32*, i32, i32, i32, i32, double*, i32*, i32 }
%struct.hypre_ParCSRCommPkg = type { i32, i32, i32*, i32*, i32*, i32, i32*, i32*, i32*, i32* }
%struct.hypre_IJAssumedPart = type { i32, i32, i32, i32, i32*, i32*, i32*, i32* }
%struct.hypre_ParVector_struct = type { i32, i32, i32, i32, i32*, i32, %struct.hypre_Vector*, i32, i32, %struct.hypre_IJAssumedPart* }
%struct.hypre_Vector = type { double*, i32, i32, i32, i32, i32, i32 }
%struct.hypre_ParCSRCommHandle = type { %struct.hypre_ParCSRCommPkg*, i8*, i8*, i32, i32* }

$__clang_call_terminate = comdat any

@_ZTV20HYPRE_SlideReduction = dso_local unnamed_addr constant { [4 x i8*] } { [4 x i8*] [i8* null, i8* bitcast ({ i8*, i8* }* @_ZTI20HYPRE_SlideReduction to i8*), i8* bitcast (void (%class.HYPRE_SlideReduction*)* @_ZN20HYPRE_SlideReductionD2Ev to i8*), i8* bitcast (void (%class.HYPRE_SlideReduction*)* @_ZN20HYPRE_SlideReductionD0Ev to i8*)] }, align 8
@.str = private unnamed_addr constant [39 x i8] c"%4d : HYPRE_SlideReduction begins....\0A\00", align 1
@.str.2 = private unnamed_addr constant [43 x i8] c"%4d : HYPRE_SlideReduction ERROR - fail !\0A\00", align 1
@.str.4 = private unnamed_addr constant [34 x i8] c"%4d : HYPRE_SlideReduction ends.\0A\00", align 1
@.str.5 = private unnamed_addr constant [52 x i8] c"%4d : findConstraints - number of constraints = %d\0A\00", align 1
@.str.6 = private unnamed_addr constant [46 x i8] c"%4d : findSlaveEqns1 - candidate %d = %d(%d)\0A\00", align 1
@.str.7 = private unnamed_addr constant [53 x i8] c"%4d : findSlaveEqns1 - nCandidates, nConstr = %d %d\0A\00", align 1
@.str.8 = private unnamed_addr constant [48 x i8] c"%4d : findSlaveEqns1 - constr %7d <=> slave %d\0A\00", align 1
@.str.9 = private unnamed_addr constant [44 x i8] c"%4d : findSlaveEqns1 - constraint %4d fails\00", align 1
@.str.11 = private unnamed_addr constant [57 x i8] c"%4d : findSlaveEqns1 fails - total number of unsatisfied\00", align 1
@.str.12 = private unnamed_addr constant [20 x i8] c" constraints = %d \0A\00", align 1
@.str.13 = private unnamed_addr constant [46 x i8] c"%4d : findSlaveEqns1 - unsatisfied constraint\00", align 1
@.str.14 = private unnamed_addr constant [16 x i8] c" equation = %d\0A\00", align 1
@.str.15 = private unnamed_addr constant [38 x i8] c"%4d : findSlaveEqnsBlock - size = %d\0A\00", align 1
@.str.16 = private unnamed_addr constant [46 x i8] c"%4d : findSlaveEqnsBlock - candidate %d = %d\0A\00", align 1
@.str.17 = private unnamed_addr constant [57 x i8] c"%4d : findSlaveEqnsBlock - nCandidates, nConstr = %d %d\0A\00", align 1
@.str.18 = private unnamed_addr constant [39 x i8] c"Slave candidate %d adds new constr %d\0A\00", align 1
@.str.19 = private unnamed_addr constant [41 x i8] c"%4d : constraint %d - candidate %d (%d) \00", align 1
@.str.20 = private unnamed_addr constant [20 x i8] c"gives blksize = %d\0A\00", align 1
@.str.21 = private unnamed_addr constant [28 x i8] c"%4d : pivot = %e (%e) : %d\0A\00", align 1
@.str.22 = private unnamed_addr constant [31 x i8] c"*Slave candidate %d disabled.\0A\00", align 1
@.str.23 = private unnamed_addr constant [40 x i8] c"*Slave candidate %d adds new constr %d\0A\00", align 1
@.str.24 = private unnamed_addr constant [56 x i8] c"%4d : findSlaveEqnsBlock - constr %d <=> slave %d (%d)\0A\00", align 1
@.str.25 = private unnamed_addr constant [52 x i8] c"%4d : findSlaveEqnsBlock - constraint %4d fails (0)\00", align 1
@.str.26 = private unnamed_addr constant [52 x i8] c"%4d : findSlaveEqnsBlock - constraint %4d fails (1)\00", align 1
@.str.27 = private unnamed_addr constant [52 x i8] c"%4d : findSlaveEqnsBlock - constraint %4d fails (2)\00", align 1
@.str.28 = private unnamed_addr constant [41 x i8] c"%4d : row %d has col %d (%d,%d) (%d,%d)\0A\00", align 1
@.str.29 = private unnamed_addr constant [37 x i8] c"%4d :     col %d has col %d (%d,%d)\0A\00", align 1
@.str.30 = private unnamed_addr constant [61 x i8] c"%4d : findSlaveEqnsBlock fails - total number of unsatisfied\00", align 1
@.str.31 = private unnamed_addr constant [50 x i8] c"%4d : findSlaveEqnsBlock - unsatisfied constraint\00", align 1
@.str.32 = private unnamed_addr constant [50 x i8] c"%4d : HYPRE_SlideReduction ERROR - repeated slave\00", align 1
@.str.33 = private unnamed_addr constant [14 x i8] c" equation %d\0A\00", align 1
@.str.34 = private unnamed_addr constant [43 x i8] c"%4d : HYPRE_SlideReduction slave %d = %d \0A\00", align 1
@.str.35 = private unnamed_addr constant [46 x i8] c"%4d : number of blocks with blksize %6d = %d\0A\00", align 1
@.str.36 = private unnamed_addr constant [55 x i8] c"%4d : HYPRE_SlideReduction - slaveEqnList %d = %d(%d)\0A\00", align 1
@.str.37 = private unnamed_addr constant [42 x i8] c"%4d : buildA21Mat(2) - A21StartRow  = %d\0A\00", align 1
@.str.38 = private unnamed_addr constant [45 x i8] c"%4d : buildA21Mat(2) - A21GlobalDim = %d %d\0A\00", align 1
@.str.39 = private unnamed_addr constant [45 x i8] c"%4d : buildA21Mat(2) - A21LocalDim  = %d %d\0A\00", align 1
@.str.40 = private unnamed_addr constant [43 x i8] c"   0 : buildSubMatrices : NNZ of A21 = %d\0A\00", align 1
@.str.41 = private unnamed_addr constant [53 x i8] c"%4d : buildReducedMatrix - reduceAGlobalDim = %d %d\0A\00", align 1
@.str.42 = private unnamed_addr constant [54 x i8] c"%4d : buildReducedMatrix - reducedALocalDim  = %d %d\0A\00", align 1
@.str.43 = private unnamed_addr constant [55 x i8] c"%4d : buildModifiedRHSVector WARNING - no local data.\0A\00", align 1
@.str.44 = private unnamed_addr constant [57 x i8] c"%4d : buildModifiedSolnVector WARNING - no local entry.\0A\00", align 1
@.str.45 = private unnamed_addr constant [57 x i8] c"%4d : buildReducedMatrix - Triple matrix product starts\0A\00", align 1
@.str.46 = private unnamed_addr constant [55 x i8] c"%4d : buildReducedMatrix - Triple matrix product ends\0A\00", align 1
@.str.47 = private unnamed_addr constant [7 x i8] c"rap.%d\00", align 1
@.str.48 = private unnamed_addr constant [2 x i8] c"w\00", align 1
@.str.50 = private unnamed_addr constant [31 x i8] c"%4d : Printing RAP matrix... \0A\00", align 1
@stdout = external dso_local local_unnamed_addr global %struct._IO_FILE*, align 8
@.str.51 = private unnamed_addr constant [20 x i8] c"%6d  %6d  %25.16e \0A\00", align 1
@.str.52 = private unnamed_addr constant [55 x i8] c"%4d : buildReducedMatrix - NNZ of reducedA = %d %d %e\0A\00", align 1
@.str.53 = private unnamed_addr constant [12 x i8] c"reducedA.%d\00", align 1
@.str.54 = private unnamed_addr constant [36 x i8] c"%4d : Printing reducedA matrix... \0A\00", align 1
@.str.55 = private unnamed_addr constant [57 x i8] c"%4d : buildReducedRHSVector WARNING - no local entries.\0A\00", align 1
@.str.56 = private unnamed_addr constant [56 x i8] c"%4d : buildReducedSolnVector WARNING - no local entry.\0A\00", align 1
@.str.57 = private unnamed_addr constant [39 x i8] c"%4d : buildA21Mat - A21StartRow  = %d\0A\00", align 1
@.str.58 = private unnamed_addr constant [42 x i8] c"%4d : buildA21Mat - A21GlobalDim = %d %d\0A\00", align 1
@.str.59 = private unnamed_addr constant [42 x i8] c"%4d : buildA21Mat - A21LocalDim  = %d %d\0A\00", align 1
@.str.60 = private unnamed_addr constant [38 x i8] c"   0 : buildA21Mat : NNZ of A21 = %d\0A\00", align 1
@.str.61 = private unnamed_addr constant [27 x i8] c"%4d : buildA21Mat ERROR - \00", align 1
@.str.62 = private unnamed_addr constant [28 x i8] c" out of range (%d,%d (%d))\0A\00", align 1
@.str.63 = private unnamed_addr constant [29 x i8] c"%4d : row %7d has col = %7d\0A\00", align 1
@.str.64 = private unnamed_addr constant [29 x i8] c"%4d : buildA21Mat WARNING - \00", align 1
@.str.66 = private unnamed_addr constant [7 x i8] c"A21.%d\00", align 1
@.str.67 = private unnamed_addr constant [31 x i8] c"%4d : Printing A21 matrix... \0A\00", align 1
@.str.68 = private unnamed_addr constant [47 x i8] c"%4d : buildInvA22 ERROR - block Size %d >= %d\0A\00", align 1
@.str.69 = private unnamed_addr constant [41 x i8] c"%4d : buildInvA22 ERROR - group ID = %d\0A\00", align 1
@.str.70 = private unnamed_addr constant [36 x i8] c"Failed Block %d has indices (%d) : \00", align 1
@.str.71 = private unnamed_addr constant [5 x i8] c" %d \00", align 1
@.str.73 = private unnamed_addr constant [5 x i8] c" %e \00", align 1
@.str.74 = private unnamed_addr constant [36 x i8] c"  rowIndex,colIndex,val = %d %d %e\0A\00", align 1
@.str.75 = private unnamed_addr constant [8 x i8] c"invA.%d\00", align 1
@.str.76 = private unnamed_addr constant [34 x i8] c"%4d : Printing invA22 matrix... \0A\00", align 1
@.str.77 = private unnamed_addr constant [45 x i8] c"%d : scaleMatrixVector - diag %d = %e <= 0 \0A\00", align 1
@.str.78 = private unnamed_addr constant [42 x i8] c"%4d : findSlaveEqns2 - candidate %d = %d\0A\00", align 1
@.str.79 = private unnamed_addr constant [53 x i8] c"%4d : findSlaveEqns2 - nCandidates, nConstr = %d %d\0A\00", align 1
@.str.80 = private unnamed_addr constant [47 x i8] c"%4d : findSlaveEqns2 - constr %d <=> slave %d\0A\00", align 1
@.str.81 = private unnamed_addr constant [44 x i8] c"%4d : findSlaveEqns2 - constraint %4d fails\00", align 1
@.str.82 = private unnamed_addr constant [57 x i8] c"%4d : findSlaveEqns2 fails - total number of unsatisfied\00", align 1
@.str.83 = private unnamed_addr constant [46 x i8] c"%4d : findSlaveEqns2 - unsatisfied constraint\00", align 1
@.str.84 = private unnamed_addr constant [46 x i8] c"%4d : buildReducedMatrix - A21StartRow  = %d\0A\00", align 1
@.str.85 = private unnamed_addr constant [49 x i8] c"%4d : buildReducedMatrix - A21GlobalDim = %d %d\0A\00", align 1
@.str.86 = private unnamed_addr constant [49 x i8] c"%4d : buildReducedMatrix - A21LocalDim  = %d %d\0A\00", align 1
@.str.87 = private unnamed_addr constant [45 x i8] c"   0 : buildReducedMatrix : NNZ of A21 = %d\0A\00", align 1
@.str.88 = private unnamed_addr constant [37 x i8] c"%4d : buildReducedMatrix ERROR - A21\00", align 1
@.str.89 = private unnamed_addr constant [36 x i8] c"%4d : buildReducedMatrix WARNING - \00", align 1
@.str.91 = private unnamed_addr constant [7 x i8] c"hypreB\00", align 1
@.str.92 = private unnamed_addr constant [10 x i8] c"invA22.%d\00", align 1
@_ZTVN10__cxxabiv117__class_type_infoE = external dso_local global i8*
@_ZTS20HYPRE_SlideReduction = dso_local constant [23 x i8] c"20HYPRE_SlideReduction\00", align 1
@_ZTI20HYPRE_SlideReduction = dso_local constant { i8*, i8* } { i8* bitcast (i8** getelementptr inbounds (i8*, i8** @_ZTVN10__cxxabiv117__class_type_infoE, i64 2) to i8*), i8* getelementptr inbounds ([23 x i8], [23 x i8]* @_ZTS20HYPRE_SlideReduction, i32 0, i32 0) }, align 8
@str = private unnamed_addr constant [56 x i8] c"HYPRE_SlideReduction ERROR - reuse & scale don't match!\00", align 1
@str.94 = private unnamed_addr constant [55 x i8] c"HYPRE_SlideReduction ERROR - A,b dim mismatch (reuse)!\00", align 1
@str.108 = private unnamed_addr constant [18 x i8] c" to find a slave.\00", align 1
@str.114 = private unnamed_addr constant [53 x i8] c"====================================================\00", align 1
@str.115 = private unnamed_addr constant [27 x i8] c"passing array boundary(1).\00", align 1
@switch.table._ZN20HYPRE_SlideReduction14setOutputLevelEi = private unnamed_addr constant [3 x i32] [i32 1, i32 2, i32 4], align 4

@_ZN20HYPRE_SlideReductionC1Ei = dso_local unnamed_addr alias void (%class.HYPRE_SlideReduction*, i32), void (%class.HYPRE_SlideReduction*, i32)* @_ZN20HYPRE_SlideReductionC2Ei
@_ZN20HYPRE_SlideReductionD1Ev = dso_local unnamed_addr alias void (%class.HYPRE_SlideReduction*), void (%class.HYPRE_SlideReduction*)* @_ZN20HYPRE_SlideReductionD2Ev

; Function Attrs: mustprogress nofree norecurse nosync nounwind uwtable willreturn writeonly
define dso_local void @_ZN20HYPRE_SlideReductionC2Ei(%class.HYPRE_SlideReduction* nonnull align 8 dereferenceable(184) %0, i32 %1) unnamed_addr #0 align 2 {
  %3 = getelementptr inbounds %class.HYPRE_SlideReduction, %class.HYPRE_SlideReduction* %0, i64 0, i32 0
  store i32 (...)** bitcast (i8** getelementptr inbounds ({ [4 x i8*] }, { [4 x i8*] }* @_ZTV20HYPRE_SlideReduction, i64 0, inrange i32 0, i64 2) to i32 (...)**), i32 (...)*** %3, align 8, !tbaa !3
  %4 = getelementptr inbounds %class.HYPRE_SlideReduction, %class.HYPRE_SlideReduction* %0, i64 0, i32 2
  %5 = getelementptr inbounds %class.HYPRE_SlideReduction, %class.HYPRE_SlideReduction* %0, i64 0, i32 1
  %6 = bitcast %struct.hypre_IJMatrix_struct** %4 to i8*
  call void @llvm.memset.p0i8.i64(i8* noundef nonnull align 8 dereferenceable(56) %6, i8 0, i64 56, i1 false)
  store i32 %1, i32* %5, align 8, !tbaa !6
  %7 = getelementptr inbounds %class.HYPRE_SlideReduction, %class.HYPRE_SlideReduction* %0, i64 0, i32 9
  store i32 0, i32* %7, align 8, !tbaa !12
  %8 = getelementptr inbounds %class.HYPRE_SlideReduction, %class.HYPRE_SlideReduction* %0, i64 0, i32 10
  %9 = getelementptr inbounds %class.HYPRE_SlideReduction, %class.HYPRE_SlideReduction* %0, i64 0, i32 18
  %10 = bitcast i32** %8 to i8*
  call void @llvm.memset.p0i8.i64(i8* noundef nonnull align 8 dereferenceable(64) %10, i8 0, i64 64, i1 false)
  store double 1.000000e-04, double* %9, align 8, !tbaa !13
  %11 = getelementptr inbounds %class.HYPRE_SlideReduction, %class.HYPRE_SlideReduction* %0, i64 0, i32 19
  store %struct.hypre_ParCSRMatrix_struct* null, %struct.hypre_ParCSRMatrix_struct** %11, align 8, !tbaa !14
  %12 = getelementptr inbounds %class.HYPRE_SlideReduction, %class.HYPRE_SlideReduction* %0, i64 0, i32 20
  store double 0x3BC79CA10C924223, double* %12, align 8, !tbaa !15
  %13 = getelementptr inbounds %class.HYPRE_SlideReduction, %class.HYPRE_SlideReduction* %0, i64 0, i32 21
  %14 = bitcast double** %13 to i8*
  call void @llvm.memset.p0i8.i64(i8* noundef nonnull align 8 dereferenceable(16) %14, i8 0, i64 16, i1 false)
  ret void
}

; Function Attrs: nounwind uwtable
define dso_local void @_ZN20HYPRE_SlideReductionD2Ev(%class.HYPRE_SlideReduction* nocapture nonnull align 8 dereferenceable(184) %0) unnamed_addr #1 align 2 personality i8* bitcast (i32 (...)* @__gxx_personality_v0 to i8*) {
  %2 = getelementptr inbounds %class.HYPRE_SlideReduction, %class.HYPRE_SlideReduction* %0, i64 0, i32 0
  store i32 (...)** bitcast (i8** getelementptr inbounds ({ [4 x i8*] }, { [4 x i8*] }* @_ZTV20HYPRE_SlideReduction, i64 0, inrange i32 0, i64 2) to i32 (...)**), i32 (...)*** %2, align 8, !tbaa !3
  %3 = getelementptr inbounds %class.HYPRE_SlideReduction, %class.HYPRE_SlideReduction* %0, i64 0, i32 2
  store %struct.hypre_IJMatrix_struct* null, %struct.hypre_IJMatrix_struct** %3, align 8, !tbaa !16
  %4 = getelementptr inbounds %class.HYPRE_SlideReduction, %class.HYPRE_SlideReduction* %0, i64 0, i32 1
  store i32 0, i32* %4, align 8, !tbaa !6
  %5 = getelementptr inbounds %class.HYPRE_SlideReduction, %class.HYPRE_SlideReduction* %0, i64 0, i32 10
  %6 = load i32*, i32** %5, align 8, !tbaa !17
  %7 = icmp eq i32* %6, null
  br i1 %7, label %10, label %8

8:                                                ; preds = %1
  %9 = bitcast i32* %6 to i8*
  call void @_ZdaPv(i8* %9) #20
  br label %10

10:                                               ; preds = %8, %1
  %11 = getelementptr inbounds %class.HYPRE_SlideReduction, %class.HYPRE_SlideReduction* %0, i64 0, i32 11
  %12 = load i32*, i32** %11, align 8, !tbaa !18
  %13 = icmp eq i32* %12, null
  br i1 %13, label %16, label %14

14:                                               ; preds = %10
  %15 = bitcast i32* %12 to i8*
  call void @_ZdaPv(i8* %15) #20
  br label %16

16:                                               ; preds = %14, %10
  %17 = getelementptr inbounds %class.HYPRE_SlideReduction, %class.HYPRE_SlideReduction* %0, i64 0, i32 12
  %18 = load i32*, i32** %17, align 8, !tbaa !19
  %19 = icmp eq i32* %18, null
  br i1 %19, label %22, label %20

20:                                               ; preds = %16
  %21 = bitcast i32* %18 to i8*
  call void @_ZdaPv(i8* %21) #20
  br label %22

22:                                               ; preds = %20, %16
  %23 = getelementptr inbounds %class.HYPRE_SlideReduction, %class.HYPRE_SlideReduction* %0, i64 0, i32 17
  %24 = load i32*, i32** %23, align 8, !tbaa !20
  %25 = icmp eq i32* %24, null
  br i1 %25, label %28, label %26

26:                                               ; preds = %22
  %27 = bitcast i32* %24 to i8*
  call void @_ZdaPv(i8* %27) #20
  br label %28

28:                                               ; preds = %26, %22
  %29 = getelementptr inbounds %class.HYPRE_SlideReduction, %class.HYPRE_SlideReduction* %0, i64 0, i32 13
  %30 = load i32*, i32** %29, align 8, !tbaa !21
  %31 = icmp eq i32* %30, null
  br i1 %31, label %34, label %32

32:                                               ; preds = %28
  %33 = bitcast i32* %30 to i8*
  call void @_ZdaPv(i8* %33) #20
  br label %34

34:                                               ; preds = %32, %28
  %35 = getelementptr inbounds %class.HYPRE_SlideReduction, %class.HYPRE_SlideReduction* %0, i64 0, i32 14
  %36 = load i32*, i32** %35, align 8, !tbaa !22
  %37 = icmp eq i32* %36, null
  br i1 %37, label %40, label %38

38:                                               ; preds = %34
  %39 = bitcast i32* %36 to i8*
  call void @_ZdaPv(i8* %39) #20
  br label %40

40:                                               ; preds = %38, %34
  %41 = getelementptr inbounds %class.HYPRE_SlideReduction, %class.HYPRE_SlideReduction* %0, i64 0, i32 15
  %42 = load i32*, i32** %41, align 8, !tbaa !23
  %43 = icmp eq i32* %42, null
  br i1 %43, label %46, label %44

44:                                               ; preds = %40
  %45 = bitcast i32* %42 to i8*
  call void @_ZdaPv(i8* %45) #20
  br label %46

46:                                               ; preds = %44, %40
  %47 = getelementptr inbounds %class.HYPRE_SlideReduction, %class.HYPRE_SlideReduction* %0, i64 0, i32 16
  %48 = load i32*, i32** %47, align 8, !tbaa !24
  %49 = icmp eq i32* %48, null
  br i1 %49, label %52, label %50

50:                                               ; preds = %46
  %51 = bitcast i32* %48 to i8*
  call void @_ZdaPv(i8* %51) #20
  br label %52

52:                                               ; preds = %50, %46
  %53 = getelementptr inbounds %class.HYPRE_SlideReduction, %class.HYPRE_SlideReduction* %0, i64 0, i32 3
  %54 = load %struct.hypre_IJMatrix_struct*, %struct.hypre_IJMatrix_struct** %53, align 8, !tbaa !25
  %55 = icmp eq %struct.hypre_IJMatrix_struct* %54, null
  br i1 %55, label %58, label %56

56:                                               ; preds = %52
  %57 = invoke i32 @HYPRE_IJMatrixDestroy(%struct.hypre_IJMatrix_struct* nonnull %54)
          to label %58 unwind label %101

58:                                               ; preds = %56, %52
  %59 = getelementptr inbounds %class.HYPRE_SlideReduction, %class.HYPRE_SlideReduction* %0, i64 0, i32 4
  %60 = load %struct.hypre_IJMatrix_struct*, %struct.hypre_IJMatrix_struct** %59, align 8, !tbaa !26
  %61 = icmp eq %struct.hypre_IJMatrix_struct* %60, null
  br i1 %61, label %64, label %62

62:                                               ; preds = %58
  %63 = invoke i32 @HYPRE_IJMatrixDestroy(%struct.hypre_IJMatrix_struct* nonnull %60)
          to label %64 unwind label %101

64:                                               ; preds = %62, %58
  %65 = getelementptr inbounds %class.HYPRE_SlideReduction, %class.HYPRE_SlideReduction* %0, i64 0, i32 5
  %66 = load %struct.hypre_IJMatrix_struct*, %struct.hypre_IJMatrix_struct** %65, align 8, !tbaa !27
  %67 = icmp eq %struct.hypre_IJMatrix_struct* %66, null
  br i1 %67, label %70, label %68

68:                                               ; preds = %64
  %69 = invoke i32 @HYPRE_IJMatrixDestroy(%struct.hypre_IJMatrix_struct* nonnull %66)
          to label %70 unwind label %101

70:                                               ; preds = %68, %64
  %71 = getelementptr inbounds %class.HYPRE_SlideReduction, %class.HYPRE_SlideReduction* %0, i64 0, i32 6
  %72 = load %struct.hypre_IJVector_struct*, %struct.hypre_IJVector_struct** %71, align 8, !tbaa !28
  %73 = icmp eq %struct.hypre_IJVector_struct* %72, null
  br i1 %73, label %76, label %74

74:                                               ; preds = %70
  %75 = invoke i32 @HYPRE_IJVectorDestroy(%struct.hypre_IJVector_struct* nonnull %72)
          to label %76 unwind label %101

76:                                               ; preds = %74, %70
  %77 = getelementptr inbounds %class.HYPRE_SlideReduction, %class.HYPRE_SlideReduction* %0, i64 0, i32 7
  %78 = load %struct.hypre_IJVector_struct*, %struct.hypre_IJVector_struct** %77, align 8, !tbaa !29
  %79 = icmp eq %struct.hypre_IJVector_struct* %78, null
  br i1 %79, label %82, label %80

80:                                               ; preds = %76
  %81 = invoke i32 @HYPRE_IJVectorDestroy(%struct.hypre_IJVector_struct* nonnull %78)
          to label %82 unwind label %101

82:                                               ; preds = %80, %76
  %83 = getelementptr inbounds %class.HYPRE_SlideReduction, %class.HYPRE_SlideReduction* %0, i64 0, i32 8
  %84 = load %struct.hypre_IJVector_struct*, %struct.hypre_IJVector_struct** %83, align 8, !tbaa !30
  %85 = icmp eq %struct.hypre_IJVector_struct* %84, null
  br i1 %85, label %88, label %86

86:                                               ; preds = %82
  %87 = invoke i32 @HYPRE_IJVectorDestroy(%struct.hypre_IJVector_struct* nonnull %84)
          to label %88 unwind label %101

88:                                               ; preds = %86, %82
  %89 = getelementptr inbounds %class.HYPRE_SlideReduction, %class.HYPRE_SlideReduction* %0, i64 0, i32 19
  %90 = load %struct.hypre_ParCSRMatrix_struct*, %struct.hypre_ParCSRMatrix_struct** %89, align 8, !tbaa !14
  %91 = icmp eq %struct.hypre_ParCSRMatrix_struct* %90, null
  br i1 %91, label %94, label %92

92:                                               ; preds = %88
  %93 = invoke i32 @HYPRE_ParCSRMatrixDestroy(%struct.hypre_ParCSRMatrix_struct* nonnull %90)
          to label %94 unwind label %101

94:                                               ; preds = %92, %88
  %95 = getelementptr inbounds %class.HYPRE_SlideReduction, %class.HYPRE_SlideReduction* %0, i64 0, i32 21
  %96 = load double*, double** %95, align 8, !tbaa !31
  %97 = icmp eq double* %96, null
  br i1 %97, label %100, label %98

98:                                               ; preds = %94
  %99 = bitcast double* %96 to i8*
  call void @_ZdaPv(i8* %99) #20
  br label %100

100:                                              ; preds = %98, %94
  ret void

101:                                              ; preds = %92, %86, %80, %74, %68, %62, %56
  %102 = landingpad { i8*, i32 }
          catch i8* null
  %103 = extractvalue { i8*, i32 } %102, 0
  call void @__clang_call_terminate(i8* %103) #21
  unreachable
}

; Function Attrs: nobuiltin nounwind
declare dso_local void @_ZdaPv(i8*) local_unnamed_addr #2

declare dso_local i32 @HYPRE_IJMatrixDestroy(%struct.hypre_IJMatrix_struct*) local_unnamed_addr #3

declare dso_local i32 @__gxx_personality_v0(...)

; Function Attrs: noinline noreturn nounwind
define linkonce_odr hidden void @__clang_call_terminate(i8* %0) local_unnamed_addr #4 comdat {
  %2 = call i8* @__cxa_begin_catch(i8* %0) #22
  call void @_ZSt9terminatev() #21
  unreachable
}

declare dso_local i8* @__cxa_begin_catch(i8*) local_unnamed_addr

declare dso_local void @_ZSt9terminatev() local_unnamed_addr

declare dso_local i32 @HYPRE_IJVectorDestroy(%struct.hypre_IJVector_struct*) local_unnamed_addr #3

declare dso_local i32 @HYPRE_ParCSRMatrixDestroy(%struct.hypre_ParCSRMatrix_struct*) local_unnamed_addr #3

; Function Attrs: nounwind uwtable
define dso_local void @_ZN20HYPRE_SlideReductionD0Ev(%class.HYPRE_SlideReduction* nonnull align 8 dereferenceable(184) %0) unnamed_addr #1 align 2 {
  call void @_ZN20HYPRE_SlideReductionD2Ev(%class.HYPRE_SlideReduction* nonnull align 8 dereferenceable(184) %0) #22
  %2 = bitcast %class.HYPRE_SlideReduction* %0 to i8*
  call void @_ZdlPv(i8* %2) #20
  ret void
}

; Function Attrs: nobuiltin nounwind
declare dso_local void @_ZdlPv(i8*) local_unnamed_addr #2

; Function Attrs: mustprogress nofree norecurse nosync nounwind uwtable willreturn
define dso_local i32 @_ZN20HYPRE_SlideReduction14setOutputLevelEi(%class.HYPRE_SlideReduction* nocapture nonnull align 8 dereferenceable(184) %0, i32 %1) local_unnamed_addr #5 align 2 {
  %3 = add i32 %1, -1
  %4 = icmp ult i32 %3, 3
  br i1 %4, label %5, label %12

5:                                                ; preds = %2
  %6 = sext i32 %3 to i64
  %7 = getelementptr inbounds [3 x i32], [3 x i32]* @switch.table._ZN20HYPRE_SlideReduction14setOutputLevelEi, i64 0, i64 %6
  %8 = load i32, i32* %7, align 4
  %9 = getelementptr inbounds %class.HYPRE_SlideReduction, %class.HYPRE_SlideReduction* %0, i64 0, i32 9
  %10 = load i32, i32* %9, align 8, !tbaa !12
  %11 = or i32 %10, %8
  store i32 %11, i32* %9, align 8, !tbaa !12
  br label %12

12:                                               ; preds = %2, %5
  ret i32 0
}

; Function Attrs: mustprogress nofree norecurse nosync nounwind uwtable willreturn writeonly
define dso_local i32 @_ZN20HYPRE_SlideReduction18setUseSimpleSchemeEv(%class.HYPRE_SlideReduction* nocapture nonnull align 8 dereferenceable(184) %0) local_unnamed_addr #0 align 2 {
  %2 = getelementptr inbounds %class.HYPRE_SlideReduction, %class.HYPRE_SlideReduction* %0, i64 0, i32 23
  store i32 1, i32* %2, align 4, !tbaa !32
  ret i32 0
}

; Function Attrs: mustprogress nofree norecurse nosync nounwind uwtable willreturn writeonly
define dso_local i32 @_ZN20HYPRE_SlideReduction22setTruncationThresholdEd(%class.HYPRE_SlideReduction* nocapture nonnull align 8 dereferenceable(184) %0, double %1) local_unnamed_addr #0 align 2 {
  %3 = getelementptr inbounds %class.HYPRE_SlideReduction, %class.HYPRE_SlideReduction* %0, i64 0, i32 20
  store double %1, double* %3, align 8, !tbaa !15
  ret i32 0
}

; Function Attrs: mustprogress nofree norecurse nosync nounwind uwtable willreturn writeonly
define dso_local i32 @_ZN20HYPRE_SlideReduction14setScaleMatrixEv(%class.HYPRE_SlideReduction* nocapture nonnull align 8 dereferenceable(184) %0) local_unnamed_addr #0 align 2 {
  %2 = getelementptr inbounds %class.HYPRE_SlideReduction, %class.HYPRE_SlideReduction* %0, i64 0, i32 22
  store i32 1, i32* %2, align 8, !tbaa !33
  ret i32 0
}

; Function Attrs: mustprogress nofree norecurse nosync nounwind uwtable willreturn writeonly
define dso_local i32 @_ZN20HYPRE_SlideReduction15setBlockMinNormEd(%class.HYPRE_SlideReduction* nocapture nonnull align 8 dereferenceable(184) %0, double %1) local_unnamed_addr #0 align 2 {
  %3 = getelementptr inbounds %class.HYPRE_SlideReduction, %class.HYPRE_SlideReduction* %0, i64 0, i32 18
  store double %1, double* %3, align 8, !tbaa !13
  ret i32 0
}

; Function Attrs: mustprogress uwtable
define dso_local i32 @_ZN20HYPRE_SlideReduction16getMatrixNumRowsEv(%class.HYPRE_SlideReduction* nocapture nonnull readonly align 8 dereferenceable(184) %0) local_unnamed_addr #6 align 2 {
  %2 = alloca i32, align 4
  %3 = alloca i32, align 4
  %4 = alloca i32*, align 8
  %5 = alloca %struct.hypre_ParCSRMatrix_struct*, align 8
  %6 = bitcast i32* %2 to i8*
  call void @llvm.lifetime.start.p0i8(i64 4, i8* nonnull %6) #22
  %7 = bitcast i32* %3 to i8*
  call void @llvm.lifetime.start.p0i8(i64 4, i8* nonnull %7) #22
  %8 = bitcast i32** %4 to i8*
  call void @llvm.lifetime.start.p0i8(i64 8, i8* nonnull %8) #22
  %9 = bitcast %struct.hypre_ParCSRMatrix_struct** %5 to i8*
  call void @llvm.lifetime.start.p0i8(i64 8, i8* nonnull %9) #22
  %10 = getelementptr inbounds %class.HYPRE_SlideReduction, %class.HYPRE_SlideReduction* %0, i64 0, i32 1
  %11 = load i32, i32* %10, align 8, !tbaa !6
  %12 = call i32 @MPI_Comm_rank(i32 %11, i32* nonnull %2)
  %13 = load i32, i32* %10, align 8, !tbaa !6
  %14 = call i32 @MPI_Comm_size(i32 %13, i32* nonnull %3)
  %15 = getelementptr inbounds %class.HYPRE_SlideReduction, %class.HYPRE_SlideReduction* %0, i64 0, i32 2
  %16 = load %struct.hypre_IJMatrix_struct*, %struct.hypre_IJMatrix_struct** %15, align 8, !tbaa !16
  %17 = bitcast %struct.hypre_ParCSRMatrix_struct** %5 to i8**
  %18 = call i32 @HYPRE_IJMatrixGetObject(%struct.hypre_IJMatrix_struct* %16, i8** nonnull %17)
  %19 = load %struct.hypre_ParCSRMatrix_struct*, %struct.hypre_ParCSRMatrix_struct** %5, align 8, !tbaa !34
  %20 = call i32 @HYPRE_ParCSRMatrixGetRowPartitioning(%struct.hypre_ParCSRMatrix_struct* %19, i32** nonnull %4)
  %21 = load i32*, i32** %4, align 8, !tbaa !34
  %22 = load i32, i32* %2, align 4, !tbaa !35
  %23 = add nsw i32 %22, 1
  %24 = sext i32 %23 to i64
  %25 = getelementptr inbounds i32, i32* %21, i64 %24
  %26 = load i32, i32* %25, align 4, !tbaa !35
  %27 = sext i32 %22 to i64
  %28 = getelementptr inbounds i32, i32* %21, i64 %27
  %29 = load i32, i32* %28, align 4, !tbaa !35
  %30 = getelementptr inbounds %class.HYPRE_SlideReduction, %class.HYPRE_SlideReduction* %0, i64 0, i32 10
  %31 = load i32*, i32** %30, align 8, !tbaa !17
  %32 = getelementptr inbounds i32, i32* %31, i64 %24
  %33 = load i32, i32* %32, align 4, !tbaa !35
  %34 = getelementptr inbounds i32, i32* %31, i64 %27
  %35 = load i32, i32* %34, align 4, !tbaa !35
  %36 = bitcast i32* %21 to i8*
  call void @hypre_Free(i8* %36)
  store i32* null, i32** %4, align 8, !tbaa !34
  %37 = add i32 %29, %33
  %38 = sub i32 %26, %37
  %39 = add i32 %38, %35
  call void @llvm.lifetime.end.p0i8(i64 8, i8* nonnull %9) #22
  call void @llvm.lifetime.end.p0i8(i64 8, i8* nonnull %8) #22
  call void @llvm.lifetime.end.p0i8(i64 4, i8* nonnull %7) #22
  call void @llvm.lifetime.end.p0i8(i64 4, i8* nonnull %6) #22
  ret i32 %39
}

; Function Attrs: argmemonly mustprogress nofree nosync nounwind willreturn
declare void @llvm.lifetime.start.p0i8(i64 immarg, i8* nocapture) #7

declare dso_local i32 @MPI_Comm_rank(i32, i32*) local_unnamed_addr #3

declare dso_local i32 @MPI_Comm_size(i32, i32*) local_unnamed_addr #3

declare dso_local i32 @HYPRE_IJMatrixGetObject(%struct.hypre_IJMatrix_struct*, i8**) local_unnamed_addr #3

declare dso_local i32 @HYPRE_ParCSRMatrixGetRowPartitioning(%struct.hypre_ParCSRMatrix_struct*, i32**) local_unnamed_addr #3

declare dso_local void @hypre_Free(i8*) local_unnamed_addr #3

; Function Attrs: argmemonly mustprogress nofree nosync nounwind willreturn
declare void @llvm.lifetime.end.p0i8(i64 immarg, i8* nocapture) #7

; Function Attrs: mustprogress nofree norecurse nosync nounwind readonly uwtable willreturn
define dso_local double* @_ZN20HYPRE_SlideReduction17getMatrixDiagonalEv(%class.HYPRE_SlideReduction* nocapture nonnull readonly align 8 dereferenceable(184) %0) local_unnamed_addr #8 align 2 {
  %2 = getelementptr inbounds %class.HYPRE_SlideReduction, %class.HYPRE_SlideReduction* %0, i64 0, i32 21
  %3 = load double*, double** %2, align 8, !tbaa !31
  ret double* %3
}

; Function Attrs: mustprogress nofree norecurse nosync nounwind uwtable willreturn
define dso_local i32 @_ZN20HYPRE_SlideReduction16getReducedMatrixEPP21hypre_IJMatrix_struct(%class.HYPRE_SlideReduction* nocapture nonnull readonly align 8 dereferenceable(184) %0, %struct.hypre_IJMatrix_struct** nocapture %1) local_unnamed_addr #5 align 2 {
  %3 = getelementptr inbounds %class.HYPRE_SlideReduction, %class.HYPRE_SlideReduction* %0, i64 0, i32 5
  %4 = load %struct.hypre_IJMatrix_struct*, %struct.hypre_IJMatrix_struct** %3, align 8, !tbaa !27
  store %struct.hypre_IJMatrix_struct* %4, %struct.hypre_IJMatrix_struct** %1, align 8, !tbaa !34
  ret i32 0
}

; Function Attrs: mustprogress nofree norecurse nosync nounwind uwtable willreturn
define dso_local i32 @_ZN20HYPRE_SlideReduction19getReducedRHSVectorEPP21hypre_IJVector_struct(%class.HYPRE_SlideReduction* nocapture nonnull readonly align 8 dereferenceable(184) %0, %struct.hypre_IJVector_struct** nocapture %1) local_unnamed_addr #5 align 2 {
  %3 = getelementptr inbounds %class.HYPRE_SlideReduction, %class.HYPRE_SlideReduction* %0, i64 0, i32 6
  %4 = load %struct.hypre_IJVector_struct*, %struct.hypre_IJVector_struct** %3, align 8, !tbaa !28
  store %struct.hypre_IJVector_struct* %4, %struct.hypre_IJVector_struct** %1, align 8, !tbaa !34
  ret i32 0
}

; Function Attrs: mustprogress nofree norecurse nosync nounwind uwtable willreturn
define dso_local i32 @_ZN20HYPRE_SlideReduction20getReducedSolnVectorEPP21hypre_IJVector_struct(%class.HYPRE_SlideReduction* nocapture nonnull readonly align 8 dereferenceable(184) %0, %struct.hypre_IJVector_struct** nocapture %1) local_unnamed_addr #5 align 2 {
  %3 = getelementptr inbounds %class.HYPRE_SlideReduction, %class.HYPRE_SlideReduction* %0, i64 0, i32 7
  %4 = load %struct.hypre_IJVector_struct*, %struct.hypre_IJVector_struct** %3, align 8, !tbaa !29
  store %struct.hypre_IJVector_struct* %4, %struct.hypre_IJVector_struct** %1, align 8, !tbaa !34
  ret i32 0
}

; Function Attrs: mustprogress nofree norecurse nosync nounwind uwtable willreturn
define dso_local i32 @_ZN20HYPRE_SlideReduction19getReducedAuxVectorEPP21hypre_IJVector_struct(%class.HYPRE_SlideReduction* nocapture nonnull readonly align 8 dereferenceable(184) %0, %struct.hypre_IJVector_struct** nocapture %1) local_unnamed_addr #5 align 2 {
  %3 = getelementptr inbounds %class.HYPRE_SlideReduction, %class.HYPRE_SlideReduction* %0, i64 0, i32 8
  %4 = load %struct.hypre_IJVector_struct*, %struct.hypre_IJVector_struct** %3, align 8, !tbaa !30
  store %struct.hypre_IJVector_struct* %4, %struct.hypre_IJVector_struct** %1, align 8, !tbaa !34
  ret i32 0
}

; Function Attrs: mustprogress nofree norecurse nosync nounwind uwtable willreturn
define dso_local i32 @_ZN20HYPRE_SlideReduction20getProcConstraintMapEPPi(%class.HYPRE_SlideReduction* nocapture nonnull readonly align 8 dereferenceable(184) %0, i32** nocapture %1) local_unnamed_addr #5 align 2 {
  %3 = getelementptr inbounds %class.HYPRE_SlideReduction, %class.HYPRE_SlideReduction* %0, i64 0, i32 10
  %4 = load i32*, i32** %3, align 8, !tbaa !17
  store i32* %4, i32** %1, align 8, !tbaa !34
  ret i32 0
}

; Function Attrs: mustprogress nofree norecurse nosync nounwind uwtable willreturn
define dso_local i32 @_ZN20HYPRE_SlideReduction15getSlaveEqnListEPPi(%class.HYPRE_SlideReduction* nocapture nonnull readonly align 8 dereferenceable(184) %0, i32** nocapture %1) local_unnamed_addr #5 align 2 {
  %3 = getelementptr inbounds %class.HYPRE_SlideReduction, %class.HYPRE_SlideReduction* %0, i64 0, i32 11
  %4 = load i32*, i32** %3, align 8, !tbaa !18
  store i32* %4, i32** %1, align 8, !tbaa !34
  ret i32 0
}

; Function Attrs: mustprogress nofree norecurse nosync nounwind uwtable willreturn
define dso_local i32 @_ZN20HYPRE_SlideReduction21getPerturbationMatrixEPP25hypre_ParCSRMatrix_struct(%class.HYPRE_SlideReduction* nocapture nonnull align 8 dereferenceable(184) %0, %struct.hypre_ParCSRMatrix_struct** nocapture %1) local_unnamed_addr #5 align 2 {
  %3 = getelementptr inbounds %class.HYPRE_SlideReduction, %class.HYPRE_SlideReduction* %0, i64 0, i32 19
  %4 = load %struct.hypre_ParCSRMatrix_struct*, %struct.hypre_ParCSRMatrix_struct** %3, align 8, !tbaa !14
  store %struct.hypre_ParCSRMatrix_struct* %4, %struct.hypre_ParCSRMatrix_struct** %1, align 8, !tbaa !34
  store %struct.hypre_ParCSRMatrix_struct* null, %struct.hypre_ParCSRMatrix_struct** %3, align 8, !tbaa !14
  ret i32 0
}

; Function Attrs: mustprogress uwtable
define dso_local i32 @_ZN20HYPRE_SlideReduction5setupEP21hypre_IJMatrix_structP21hypre_IJVector_structS3_(%class.HYPRE_SlideReduction* nonnull align 8 dereferenceable(184) %0, %struct.hypre_IJMatrix_struct* %1, %struct.hypre_IJVector_struct* %2, %struct.hypre_IJVector_struct* %3) local_unnamed_addr #6 align 2 {
  %5 = alloca i32, align 4
  %6 = alloca i32, align 4
  %7 = alloca i32*, align 8
  %8 = alloca %struct.hypre_ParCSRMatrix_struct*, align 8
  %9 = alloca %struct.hypre_ParVector_struct*, align 8
  %10 = bitcast i32* %5 to i8*
  call void @llvm.lifetime.start.p0i8(i64 4, i8* nonnull %10) #22
  %11 = bitcast i32* %6 to i8*
  call void @llvm.lifetime.start.p0i8(i64 4, i8* nonnull %11) #22
  %12 = bitcast i32** %7 to i8*
  call void @llvm.lifetime.start.p0i8(i64 8, i8* nonnull %12) #22
  %13 = bitcast %struct.hypre_ParCSRMatrix_struct** %8 to i8*
  call void @llvm.lifetime.start.p0i8(i64 8, i8* nonnull %13) #22
  %14 = bitcast %struct.hypre_ParVector_struct** %9 to i8*
  call void @llvm.lifetime.start.p0i8(i64 8, i8* nonnull %14) #22
  %15 = getelementptr inbounds %class.HYPRE_SlideReduction, %class.HYPRE_SlideReduction* %0, i64 0, i32 1
  %16 = load i32, i32* %15, align 8, !tbaa !6
  %17 = call i32 @MPI_Comm_rank(i32 %16, i32* nonnull %5)
  %18 = load i32, i32* %15, align 8, !tbaa !6
  %19 = call i32 @MPI_Comm_size(i32 %18, i32* nonnull %6)
  %20 = load i32, i32* %5, align 4, !tbaa !35
  %21 = icmp eq i32 %20, 0
  br i1 %21, label %22, label %29

22:                                               ; preds = %4
  %23 = getelementptr inbounds %class.HYPRE_SlideReduction, %class.HYPRE_SlideReduction* %0, i64 0, i32 9
  %24 = load i32, i32* %23, align 8, !tbaa !12
  %25 = and i32 %24, 3
  %26 = icmp eq i32 %25, 0
  br i1 %26, label %29, label %27

27:                                               ; preds = %22
  %28 = call i32 (i8*, ...) @printf(i8* nonnull dereferenceable(1) getelementptr inbounds ([39 x i8], [39 x i8]* @.str, i64 0, i64 0), i32 0)
  br label %29

29:                                               ; preds = %27, %22, %4
  %30 = getelementptr inbounds %class.HYPRE_SlideReduction, %class.HYPRE_SlideReduction* %0, i64 0, i32 2
  %31 = load %struct.hypre_IJMatrix_struct*, %struct.hypre_IJMatrix_struct** %30, align 8, !tbaa !16
  %32 = bitcast %struct.hypre_ParCSRMatrix_struct** %8 to i8**
  %33 = call i32 @HYPRE_IJMatrixGetObject(%struct.hypre_IJMatrix_struct* %31, i8** nonnull %32)
  %34 = load %struct.hypre_ParCSRMatrix_struct*, %struct.hypre_ParCSRMatrix_struct** %8, align 8, !tbaa !34
  %35 = call i32 @HYPRE_ParCSRMatrixGetRowPartitioning(%struct.hypre_ParCSRMatrix_struct* %34, i32** nonnull %7)
  %36 = load i32*, i32** %7, align 8, !tbaa !34
  %37 = load i32, i32* %6, align 4, !tbaa !35
  %38 = sext i32 %37 to i64
  %39 = getelementptr inbounds i32, i32* %36, i64 %38
  %40 = load i32, i32* %39, align 4, !tbaa !35
  %41 = load i32, i32* %36, align 4, !tbaa !35
  %42 = sub nsw i32 %40, %41
  %43 = bitcast i32* %36 to i8*
  call void @free(i8* %43) #22
  %44 = call i32 @HYPRE_IJMatrixGetObject(%struct.hypre_IJMatrix_struct* %1, i8** nonnull %32)
  %45 = load %struct.hypre_ParCSRMatrix_struct*, %struct.hypre_ParCSRMatrix_struct** %8, align 8, !tbaa !34
  %46 = call i32 @HYPRE_ParCSRMatrixGetRowPartitioning(%struct.hypre_ParCSRMatrix_struct* %45, i32** nonnull %7)
  %47 = load i32*, i32** %7, align 8, !tbaa !34
  %48 = load i32, i32* %6, align 4, !tbaa !35
  %49 = sext i32 %48 to i64
  %50 = getelementptr inbounds i32, i32* %47, i64 %49
  %51 = load i32, i32* %50, align 4, !tbaa !35
  %52 = load i32, i32* %47, align 4, !tbaa !35
  %53 = sub nsw i32 %51, %52
  %54 = bitcast i32* %47 to i8*
  call void @free(i8* %54) #22
  %55 = icmp eq i32 %42, %53
  br i1 %55, label %75, label %56

56:                                               ; preds = %29
  %57 = bitcast %struct.hypre_ParVector_struct** %9 to i8**
  %58 = call i32 @HYPRE_IJVectorGetObject(%struct.hypre_IJVector_struct* %3, i8** nonnull %57)
  %59 = load %struct.hypre_ParVector_struct*, %struct.hypre_ParVector_struct** %9, align 8, !tbaa !34
  %60 = getelementptr inbounds %struct.hypre_ParVector_struct, %struct.hypre_ParVector_struct* %59, i64 0, i32 4
  %61 = load i32*, i32** %60, align 8, !tbaa !36
  store i32* %61, i32** %7, align 8, !tbaa !34
  %62 = load i32, i32* %6, align 4, !tbaa !35
  %63 = sext i32 %62 to i64
  %64 = getelementptr inbounds i32, i32* %61, i64 %63
  %65 = load i32, i32* %64, align 4, !tbaa !35
  %66 = load i32, i32* %61, align 4, !tbaa !35
  %67 = sub nsw i32 %65, %66
  %68 = icmp eq i32 %42, %67
  br i1 %68, label %162, label %69

69:                                               ; preds = %56
  %70 = load i32, i32* %5, align 4, !tbaa !35
  %71 = icmp eq i32 %70, 0
  br i1 %71, label %72, label %74

72:                                               ; preds = %69
  %73 = call i32 @puts(i8* nonnull dereferenceable(1) getelementptr inbounds ([55 x i8], [55 x i8]* @str.94, i64 0, i64 0))
  br label %74

74:                                               ; preds = %72, %69
  call void @exit(i32 1) #21
  unreachable

75:                                               ; preds = %29
  store %struct.hypre_IJMatrix_struct* %1, %struct.hypre_IJMatrix_struct** %30, align 8, !tbaa !16
  %76 = getelementptr inbounds %class.HYPRE_SlideReduction, %class.HYPRE_SlideReduction* %0, i64 0, i32 10
  %77 = load i32*, i32** %76, align 8, !tbaa !17
  %78 = icmp eq i32* %77, null
  br i1 %78, label %81, label %79

79:                                               ; preds = %75
  %80 = bitcast i32* %77 to i8*
  call void @_ZdaPv(i8* %80) #20
  br label %81

81:                                               ; preds = %79, %75
  %82 = getelementptr inbounds %class.HYPRE_SlideReduction, %class.HYPRE_SlideReduction* %0, i64 0, i32 11
  %83 = load i32*, i32** %82, align 8, !tbaa !18
  %84 = icmp eq i32* %83, null
  br i1 %84, label %87, label %85

85:                                               ; preds = %81
  %86 = bitcast i32* %83 to i8*
  call void @_ZdaPv(i8* %86) #20
  br label %87

87:                                               ; preds = %85, %81
  %88 = getelementptr inbounds %class.HYPRE_SlideReduction, %class.HYPRE_SlideReduction* %0, i64 0, i32 12
  %89 = load i32*, i32** %88, align 8, !tbaa !19
  %90 = icmp eq i32* %89, null
  br i1 %90, label %93, label %91

91:                                               ; preds = %87
  %92 = bitcast i32* %89 to i8*
  call void @_ZdaPv(i8* %92) #20
  br label %93

93:                                               ; preds = %91, %87
  %94 = getelementptr inbounds %class.HYPRE_SlideReduction, %class.HYPRE_SlideReduction* %0, i64 0, i32 13
  %95 = load i32*, i32** %94, align 8, !tbaa !21
  %96 = icmp eq i32* %95, null
  br i1 %96, label %99, label %97

97:                                               ; preds = %93
  %98 = bitcast i32* %95 to i8*
  call void @_ZdaPv(i8* %98) #20
  br label %99

99:                                               ; preds = %97, %93
  %100 = getelementptr inbounds %class.HYPRE_SlideReduction, %class.HYPRE_SlideReduction* %0, i64 0, i32 14
  %101 = load i32*, i32** %100, align 8, !tbaa !22
  %102 = icmp eq i32* %101, null
  br i1 %102, label %105, label %103

103:                                              ; preds = %99
  %104 = bitcast i32* %101 to i8*
  call void @_ZdaPv(i8* %104) #20
  br label %105

105:                                              ; preds = %103, %99
  %106 = getelementptr inbounds %class.HYPRE_SlideReduction, %class.HYPRE_SlideReduction* %0, i64 0, i32 15
  %107 = load i32*, i32** %106, align 8, !tbaa !23
  %108 = icmp eq i32* %107, null
  br i1 %108, label %111, label %109

109:                                              ; preds = %105
  %110 = bitcast i32* %107 to i8*
  call void @_ZdaPv(i8* %110) #20
  br label %111

111:                                              ; preds = %109, %105
  %112 = getelementptr inbounds %class.HYPRE_SlideReduction, %class.HYPRE_SlideReduction* %0, i64 0, i32 16
  %113 = load i32*, i32** %112, align 8, !tbaa !24
  %114 = icmp eq i32* %113, null
  br i1 %114, label %117, label %115

115:                                              ; preds = %111
  %116 = bitcast i32* %113 to i8*
  call void @_ZdaPv(i8* %116) #20
  br label %117

117:                                              ; preds = %115, %111
  %118 = getelementptr inbounds %class.HYPRE_SlideReduction, %class.HYPRE_SlideReduction* %0, i64 0, i32 17
  %119 = load i32*, i32** %118, align 8, !tbaa !20
  %120 = icmp eq i32* %119, null
  br i1 %120, label %123, label %121

121:                                              ; preds = %117
  %122 = bitcast i32* %119 to i8*
  call void @_ZdaPv(i8* %122) #20
  br label %123

123:                                              ; preds = %121, %117
  %124 = getelementptr inbounds %class.HYPRE_SlideReduction, %class.HYPRE_SlideReduction* %0, i64 0, i32 4
  %125 = load %struct.hypre_IJMatrix_struct*, %struct.hypre_IJMatrix_struct** %124, align 8, !tbaa !26
  %126 = icmp eq %struct.hypre_IJMatrix_struct* %125, null
  br i1 %126, label %129, label %127

127:                                              ; preds = %123
  %128 = call i32 @HYPRE_IJMatrixDestroy(%struct.hypre_IJMatrix_struct* nonnull %125)
  br label %129

129:                                              ; preds = %127, %123
  %130 = getelementptr inbounds %class.HYPRE_SlideReduction, %class.HYPRE_SlideReduction* %0, i64 0, i32 3
  %131 = load %struct.hypre_IJMatrix_struct*, %struct.hypre_IJMatrix_struct** %130, align 8, !tbaa !25
  %132 = icmp eq %struct.hypre_IJMatrix_struct* %131, null
  br i1 %132, label %135, label %133

133:                                              ; preds = %129
  %134 = call i32 @HYPRE_IJMatrixDestroy(%struct.hypre_IJMatrix_struct* nonnull %131)
  br label %135

135:                                              ; preds = %133, %129
  %136 = getelementptr inbounds %class.HYPRE_SlideReduction, %class.HYPRE_SlideReduction* %0, i64 0, i32 5
  %137 = load %struct.hypre_IJMatrix_struct*, %struct.hypre_IJMatrix_struct** %136, align 8, !tbaa !27
  %138 = icmp eq %struct.hypre_IJMatrix_struct* %137, null
  br i1 %138, label %141, label %139

139:                                              ; preds = %135
  %140 = call i32 @HYPRE_IJMatrixDestroy(%struct.hypre_IJMatrix_struct* nonnull %137)
  br label %141

141:                                              ; preds = %139, %135
  %142 = getelementptr inbounds %class.HYPRE_SlideReduction, %class.HYPRE_SlideReduction* %0, i64 0, i32 6
  %143 = load %struct.hypre_IJVector_struct*, %struct.hypre_IJVector_struct** %142, align 8, !tbaa !28
  %144 = icmp eq %struct.hypre_IJVector_struct* %143, null
  br i1 %144, label %147, label %145

145:                                              ; preds = %141
  %146 = call i32 @HYPRE_IJVectorDestroy(%struct.hypre_IJVector_struct* nonnull %143)
  br label %147

147:                                              ; preds = %145, %141
  %148 = getelementptr inbounds %class.HYPRE_SlideReduction, %class.HYPRE_SlideReduction* %0, i64 0, i32 7
  %149 = load %struct.hypre_IJVector_struct*, %struct.hypre_IJVector_struct** %148, align 8, !tbaa !29
  %150 = icmp eq %struct.hypre_IJVector_struct* %149, null
  br i1 %150, label %153, label %151

151:                                              ; preds = %147
  %152 = call i32 @HYPRE_IJVectorDestroy(%struct.hypre_IJVector_struct* nonnull %149)
  br label %153

153:                                              ; preds = %151, %147
  %154 = getelementptr inbounds %class.HYPRE_SlideReduction, %class.HYPRE_SlideReduction* %0, i64 0, i32 8
  %155 = load %struct.hypre_IJVector_struct*, %struct.hypre_IJVector_struct** %154, align 8, !tbaa !30
  %156 = icmp eq %struct.hypre_IJVector_struct* %155, null
  br i1 %156, label %159, label %157

157:                                              ; preds = %153
  %158 = call i32 @HYPRE_IJVectorDestroy(%struct.hypre_IJVector_struct* nonnull %155)
  br label %159

159:                                              ; preds = %157, %153
  %160 = bitcast %struct.hypre_IJMatrix_struct** %130 to i8*
  call void @llvm.memset.p0i8.i64(i8* noundef nonnull align 8 dereferenceable(48) %160, i8 0, i64 48, i1 false)
  %161 = bitcast i32** %76 to i8*
  call void @llvm.memset.p0i8.i64(i8* noundef nonnull align 8 dereferenceable(64) %161, i8 0, i64 64, i1 false)
  br label %182

162:                                              ; preds = %56
  %163 = getelementptr inbounds %class.HYPRE_SlideReduction, %class.HYPRE_SlideReduction* %0, i64 0, i32 6
  %164 = load %struct.hypre_IJVector_struct*, %struct.hypre_IJVector_struct** %163, align 8, !tbaa !28
  %165 = icmp eq %struct.hypre_IJVector_struct* %164, null
  br i1 %165, label %168, label %166

166:                                              ; preds = %162
  %167 = call i32 @HYPRE_IJVectorDestroy(%struct.hypre_IJVector_struct* nonnull %164)
  br label %168

168:                                              ; preds = %166, %162
  %169 = getelementptr inbounds %class.HYPRE_SlideReduction, %class.HYPRE_SlideReduction* %0, i64 0, i32 7
  %170 = load %struct.hypre_IJVector_struct*, %struct.hypre_IJVector_struct** %169, align 8, !tbaa !29
  %171 = icmp eq %struct.hypre_IJVector_struct* %170, null
  br i1 %171, label %174, label %172

172:                                              ; preds = %168
  %173 = call i32 @HYPRE_IJVectorDestroy(%struct.hypre_IJVector_struct* nonnull %170)
  br label %174

174:                                              ; preds = %172, %168
  %175 = getelementptr inbounds %class.HYPRE_SlideReduction, %class.HYPRE_SlideReduction* %0, i64 0, i32 8
  %176 = load %struct.hypre_IJVector_struct*, %struct.hypre_IJVector_struct** %175, align 8, !tbaa !30
  %177 = icmp eq %struct.hypre_IJVector_struct* %176, null
  br i1 %177, label %180, label %178

178:                                              ; preds = %174
  %179 = call i32 @HYPRE_IJVectorDestroy(%struct.hypre_IJVector_struct* nonnull %176)
  br label %180

180:                                              ; preds = %178, %174
  %181 = bitcast %struct.hypre_IJVector_struct** %163 to i8*
  call void @llvm.memset.p0i8.i64(i8* noundef nonnull align 8 dereferenceable(24) %181, i8 0, i64 24, i1 false)
  br label %182

182:                                              ; preds = %180, %159
  br i1 %55, label %183, label %214

183:                                              ; preds = %182
  %184 = call i32 @_ZN20HYPRE_SlideReduction15findConstraintsEv(%class.HYPRE_SlideReduction* nonnull align 8 dereferenceable(184) %0)
  %185 = icmp eq i32 %184, 0
  br i1 %185, label %245, label %186

186:                                              ; preds = %183
  %187 = getelementptr inbounds %class.HYPRE_SlideReduction, %class.HYPRE_SlideReduction* %0, i64 0, i32 23
  %188 = load i32, i32* %187, align 4, !tbaa !32
  %189 = icmp eq i32 %188, 0
  br i1 %189, label %190, label %207

190:                                              ; preds = %186
  %191 = call i32 @_ZN20HYPRE_SlideReduction14findSlaveEqns1Ev(%class.HYPRE_SlideReduction* nonnull align 8 dereferenceable(184) %0)
  %192 = icmp slt i32 %191, 0
  br i1 %192, label %193, label %200

193:                                              ; preds = %190, %193
  %194 = phi i32 [ %195, %193 ], [ 2, %190 ]
  %195 = add nuw nsw i32 %194, 1
  %196 = call i32 @_ZN20HYPRE_SlideReduction18findSlaveEqnsBlockEi(%class.HYPRE_SlideReduction* nonnull align 8 dereferenceable(184) %0, i32 %194)
  %197 = icmp slt i32 %196, 0
  %198 = icmp ult i32 %194, 100
  %199 = select i1 %197, i1 %198, i1 false
  br i1 %199, label %193, label %200, !llvm.loop !38

200:                                              ; preds = %193, %190
  %201 = phi i1 [ %192, %190 ], [ %197, %193 ]
  br i1 %201, label %202, label %205

202:                                              ; preds = %200
  %203 = load i32, i32* %5, align 4, !tbaa !35
  %204 = call i32 (i8*, ...) @printf(i8* nonnull dereferenceable(1) getelementptr inbounds ([43 x i8], [43 x i8]* @.str.2, i64 0, i64 0), i32 %203)
  call void @exit(i32 1) #21
  unreachable

205:                                              ; preds = %200
  %206 = call i32 @_ZN20HYPRE_SlideReduction17composeGlobalListEv(%class.HYPRE_SlideReduction* nonnull align 8 dereferenceable(184) %0)
  br label %207

207:                                              ; preds = %205, %186
  %208 = load i32, i32* %187, align 4, !tbaa !32
  %209 = icmp eq i32 %208, 0
  br i1 %209, label %210, label %212

210:                                              ; preds = %207
  %211 = call i32 @_ZN20HYPRE_SlideReduction18buildReducedMatrixEv(%class.HYPRE_SlideReduction* nonnull align 8 dereferenceable(184) %0)
  br label %214

212:                                              ; preds = %207
  %213 = call i32 @_ZN20HYPRE_SlideReduction16buildSubMatricesEv(%class.HYPRE_SlideReduction* nonnull align 8 dereferenceable(184) %0)
  br label %214

214:                                              ; preds = %182, %210, %212
  %215 = getelementptr inbounds %class.HYPRE_SlideReduction, %class.HYPRE_SlideReduction* %0, i64 0, i32 23
  %216 = load i32, i32* %215, align 4, !tbaa !32
  %217 = icmp eq i32 %216, 0
  br i1 %217, label %218, label %220

218:                                              ; preds = %214
  %219 = call i32 @_ZN20HYPRE_SlideReduction21buildReducedRHSVectorEP21hypre_IJVector_struct(%class.HYPRE_SlideReduction* nonnull align 8 dereferenceable(184) %0, %struct.hypre_IJVector_struct* %3)
  br label %222

220:                                              ; preds = %214
  %221 = call i32 @_ZN20HYPRE_SlideReduction22buildModifiedRHSVectorEP21hypre_IJVector_structS1_(%class.HYPRE_SlideReduction* nonnull align 8 dereferenceable(184) %0, %struct.hypre_IJVector_struct* %2, %struct.hypre_IJVector_struct* %3)
  br label %222

222:                                              ; preds = %220, %218
  %223 = getelementptr inbounds %class.HYPRE_SlideReduction, %class.HYPRE_SlideReduction* %0, i64 0, i32 22
  %224 = load i32, i32* %223, align 8, !tbaa !33
  %225 = icmp eq i32 %224, 1
  br i1 %225, label %226, label %235

226:                                              ; preds = %222
  br i1 %55, label %227, label %229

227:                                              ; preds = %226
  %228 = call i32 @_ZN20HYPRE_SlideReduction17scaleMatrixVectorEv(%class.HYPRE_SlideReduction* nonnull align 8 dereferenceable(184) %0)
  br label %235

229:                                              ; preds = %226
  %230 = load i32, i32* %5, align 4, !tbaa !35
  %231 = icmp eq i32 %230, 0
  br i1 %231, label %232, label %234

232:                                              ; preds = %229
  %233 = call i32 @puts(i8* nonnull dereferenceable(1) getelementptr inbounds ([56 x i8], [56 x i8]* @str, i64 0, i64 0))
  br label %234

234:                                              ; preds = %232, %229
  call void @exit(i32 1) #21
  unreachable

235:                                              ; preds = %227, %222
  %236 = load i32, i32* %5, align 4, !tbaa !35
  %237 = icmp eq i32 %236, 0
  br i1 %237, label %238, label %245

238:                                              ; preds = %235
  %239 = getelementptr inbounds %class.HYPRE_SlideReduction, %class.HYPRE_SlideReduction* %0, i64 0, i32 9
  %240 = load i32, i32* %239, align 8, !tbaa !12
  %241 = and i32 %240, 3
  %242 = icmp eq i32 %241, 0
  br i1 %242, label %245, label %243

243:                                              ; preds = %238
  %244 = call i32 (i8*, ...) @printf(i8* nonnull dereferenceable(1) getelementptr inbounds ([34 x i8], [34 x i8]* @.str.4, i64 0, i64 0), i32 0)
  br label %245

245:                                              ; preds = %235, %238, %243, %183
  call void @llvm.lifetime.end.p0i8(i64 8, i8* nonnull %14) #22
  call void @llvm.lifetime.end.p0i8(i64 8, i8* nonnull %13) #22
  call void @llvm.lifetime.end.p0i8(i64 8, i8* nonnull %12) #22
  call void @llvm.lifetime.end.p0i8(i64 4, i8* nonnull %11) #22
  call void @llvm.lifetime.end.p0i8(i64 4, i8* nonnull %10) #22
  ret i32 0
}

; Function Attrs: nofree nounwind
declare dso_local noundef i32 @printf(i8* nocapture noundef readonly, ...) local_unnamed_addr #9

; Function Attrs: inaccessiblemem_or_argmemonly mustprogress nounwind willreturn
declare dso_local void @free(i8* nocapture noundef) local_unnamed_addr #10

declare dso_local i32 @HYPRE_IJVectorGetObject(%struct.hypre_IJVector_struct*, i8**) local_unnamed_addr #3

; Function Attrs: noreturn nounwind
declare dso_local void @exit(i32) local_unnamed_addr #11

; Function Attrs: mustprogress uwtable
define dso_local i32 @_ZN20HYPRE_SlideReduction15findConstraintsEv(%class.HYPRE_SlideReduction* nocapture nonnull align 8 dereferenceable(184) %0) local_unnamed_addr #6 align 2 {
  %2 = alloca i32, align 4
  %3 = alloca i32, align 4
  %4 = alloca i32*, align 8
  %5 = alloca i32, align 4
  %6 = alloca i32*, align 8
  %7 = alloca double*, align 8
  %8 = alloca %struct.hypre_ParCSRMatrix_struct*, align 8
  %9 = bitcast i32* %2 to i8*
  call void @llvm.lifetime.start.p0i8(i64 4, i8* nonnull %9) #22
  %10 = bitcast i32* %3 to i8*
  call void @llvm.lifetime.start.p0i8(i64 4, i8* nonnull %10) #22
  %11 = bitcast i32** %4 to i8*
  call void @llvm.lifetime.start.p0i8(i64 8, i8* nonnull %11) #22
  %12 = bitcast i32* %5 to i8*
  call void @llvm.lifetime.start.p0i8(i64 4, i8* nonnull %12) #22
  %13 = bitcast i32** %6 to i8*
  call void @llvm.lifetime.start.p0i8(i64 8, i8* nonnull %13) #22
  %14 = bitcast double** %7 to i8*
  call void @llvm.lifetime.start.p0i8(i64 8, i8* nonnull %14) #22
  %15 = bitcast %struct.hypre_ParCSRMatrix_struct** %8 to i8*
  call void @llvm.lifetime.start.p0i8(i64 8, i8* nonnull %15) #22
  %16 = getelementptr inbounds %class.HYPRE_SlideReduction, %class.HYPRE_SlideReduction* %0, i64 0, i32 1
  %17 = load i32, i32* %16, align 8, !tbaa !6
  %18 = call i32 @MPI_Comm_rank(i32 %17, i32* nonnull %2)
  %19 = load i32, i32* %16, align 8, !tbaa !6
  %20 = call i32 @MPI_Comm_size(i32 %19, i32* nonnull %3)
  %21 = getelementptr inbounds %class.HYPRE_SlideReduction, %class.HYPRE_SlideReduction* %0, i64 0, i32 2
  %22 = load %struct.hypre_IJMatrix_struct*, %struct.hypre_IJMatrix_struct** %21, align 8, !tbaa !16
  %23 = bitcast %struct.hypre_ParCSRMatrix_struct** %8 to i8**
  %24 = call i32 @HYPRE_IJMatrixGetObject(%struct.hypre_IJMatrix_struct* %22, i8** nonnull %23)
  %25 = load %struct.hypre_ParCSRMatrix_struct*, %struct.hypre_ParCSRMatrix_struct** %8, align 8, !tbaa !34
  %26 = call i32 @HYPRE_ParCSRMatrixGetRowPartitioning(%struct.hypre_ParCSRMatrix_struct* %25, i32** nonnull %4)
  %27 = load i32*, i32** %4, align 8, !tbaa !34
  %28 = load i32, i32* %2, align 4, !tbaa !35
  %29 = sext i32 %28 to i64
  %30 = getelementptr inbounds i32, i32* %27, i64 %29
  %31 = load i32, i32* %30, align 4, !tbaa !35
  %32 = add nsw i32 %28, 1
  %33 = sext i32 %32 to i64
  %34 = getelementptr inbounds i32, i32* %27, i64 %33
  %35 = load i32, i32* %34, align 4, !tbaa !35
  %36 = add nsw i32 %35, -1
  %37 = bitcast i32* %27 to i8*
  call void @free(i8* %37) #22
  %38 = icmp sgt i32 %35, %31
  br i1 %38, label %39, label %73

39:                                               ; preds = %1
  %40 = sub i32 %35, %31
  br label %41

41:                                               ; preds = %39, %67
  %42 = phi i32 [ %70, %67 ], [ 0, %39 ]
  %43 = phi i32 [ %71, %67 ], [ %36, %39 ]
  %44 = load %struct.hypre_ParCSRMatrix_struct*, %struct.hypre_ParCSRMatrix_struct** %8, align 8, !tbaa !34
  %45 = call i32 @HYPRE_ParCSRMatrixGetRow(%struct.hypre_ParCSRMatrix_struct* %44, i32 %43, i32* nonnull %5, i32** nonnull %6, double** nonnull %7)
  %46 = load i32, i32* %5, align 4, !tbaa !35
  %47 = load i32*, i32** %6, align 8
  %48 = load double*, double** %7, align 8
  %49 = icmp sgt i32 %46, 0
  br i1 %49, label %50, label %67

50:                                               ; preds = %41
  %51 = zext i32 %46 to i64
  br label %52

52:                                               ; preds = %50, %61
  %53 = phi i64 [ 0, %50 ], [ %62, %61 ]
  %54 = getelementptr inbounds i32, i32* %47, i64 %53
  %55 = load i32, i32* %54, align 4, !tbaa !35
  %56 = icmp eq i32 %55, %43
  br i1 %56, label %57, label %61

57:                                               ; preds = %52
  %58 = getelementptr inbounds double, double* %48, i64 %53
  %59 = load double, double* %58, align 8, !tbaa !41
  %60 = fcmp une double %59, 0.000000e+00
  br i1 %60, label %64, label %61

61:                                               ; preds = %52, %57
  %62 = add nuw nsw i64 %53, 1
  %63 = icmp eq i64 %62, %51
  br i1 %63, label %67, label %52, !llvm.loop !42

64:                                               ; preds = %57
  %65 = load %struct.hypre_ParCSRMatrix_struct*, %struct.hypre_ParCSRMatrix_struct** %8, align 8, !tbaa !34
  %66 = call i32 @HYPRE_ParCSRMatrixRestoreRow(%struct.hypre_ParCSRMatrix_struct* %65, i32 %43, i32* nonnull %5, i32** nonnull %6, double** nonnull %7)
  br label %73

67:                                               ; preds = %61, %41
  %68 = load %struct.hypre_ParCSRMatrix_struct*, %struct.hypre_ParCSRMatrix_struct** %8, align 8, !tbaa !34
  %69 = call i32 @HYPRE_ParCSRMatrixRestoreRow(%struct.hypre_ParCSRMatrix_struct* %68, i32 %43, i32* nonnull %5, i32** nonnull %6, double** nonnull %7)
  %70 = add nuw i32 %42, 1
  %71 = add nsw i32 %43, -1
  %72 = icmp eq i32 %70, %40
  br i1 %72, label %73, label %41, !llvm.loop !43

73:                                               ; preds = %67, %1, %64
  %74 = phi i32 [ %42, %64 ], [ 0, %1 ], [ %40, %67 ]
  %75 = getelementptr inbounds %class.HYPRE_SlideReduction, %class.HYPRE_SlideReduction* %0, i64 0, i32 9
  %76 = load i32, i32* %75, align 8, !tbaa !12
  %77 = and i32 %76, 3
  %78 = icmp eq i32 %77, 0
  br i1 %78, label %82, label %79

79:                                               ; preds = %73
  %80 = load i32, i32* %2, align 4, !tbaa !35
  %81 = call i32 (i8*, ...) @printf(i8* nonnull dereferenceable(1) getelementptr inbounds ([52 x i8], [52 x i8]* @.str.5, i64 0, i64 0), i32 %80, i32 %74)
  br label %82

82:                                               ; preds = %79, %73
  %83 = load i32, i32* %3, align 4, !tbaa !35
  %84 = sext i32 %83 to i64
  %85 = call { i64, i1 } @llvm.umul.with.overflow.i64(i64 %84, i64 4)
  %86 = extractvalue { i64, i1 } %85, 1
  %87 = extractvalue { i64, i1 } %85, 0
  %88 = select i1 %86, i64 -1, i64 %87
  %89 = call noalias nonnull i8* @_Znam(i64 %88) #23
  %90 = bitcast i8* %89 to i32*
  %91 = getelementptr inbounds %class.HYPRE_SlideReduction, %class.HYPRE_SlideReduction* %0, i64 0, i32 10
  %92 = load i32*, i32** %91, align 8, !tbaa !17
  %93 = icmp eq i32* %92, null
  br i1 %93, label %96, label %94

94:                                               ; preds = %82
  %95 = bitcast i32* %92 to i8*
  call void @_ZdaPv(i8* %95) #20
  br label %96

96:                                               ; preds = %94, %82
  %97 = load i32, i32* %3, align 4, !tbaa !35
  %98 = add nsw i32 %97, 1
  %99 = sext i32 %98 to i64
  %100 = call { i64, i1 } @llvm.umul.with.overflow.i64(i64 %99, i64 4)
  %101 = extractvalue { i64, i1 } %100, 1
  %102 = extractvalue { i64, i1 } %100, 0
  %103 = select i1 %101, i64 -1, i64 %102
  %104 = call noalias nonnull i8* @_Znam(i64 %103) #23
  %105 = bitcast i32** %91 to i8**
  store i8* %104, i8** %105, align 8, !tbaa !17
  %106 = icmp sgt i32 %97, 0
  br i1 %106, label %107, label %110

107:                                              ; preds = %96
  %108 = zext i32 %97 to i64
  %109 = shl nuw nsw i64 %108, 2
  call void @llvm.memset.p0i8.i64(i8* nonnull align 4 %89, i8 0, i64 %109, i1 false)
  br label %110

110:                                              ; preds = %107, %96
  %111 = load i32, i32* %2, align 4, !tbaa !35
  %112 = sext i32 %111 to i64
  %113 = getelementptr inbounds i32, i32* %90, i64 %112
  store i32 %74, i32* %113, align 4, !tbaa !35
  %114 = load i32, i32* %16, align 8, !tbaa !6
  %115 = call i32 @MPI_Allreduce(i8* nonnull %89, i8* nonnull %104, i32 %97, i32 1275069445, i32 1476395011, i32 %114)
  call void @_ZdaPv(i8* %89) #20
  %116 = load i32*, i32** %91, align 8
  %117 = load i32, i32* %3, align 4, !tbaa !35
  %118 = icmp sgt i32 %117, 0
  br i1 %118, label %119, label %129

119:                                              ; preds = %110, %119
  %120 = phi i64 [ %125, %119 ], [ 0, %110 ]
  %121 = phi i32 [ %124, %119 ], [ 0, %110 ]
  %122 = getelementptr inbounds i32, i32* %116, i64 %120
  %123 = load i32, i32* %122, align 4, !tbaa !35
  store i32 %121, i32* %122, align 4, !tbaa !35
  %124 = add nsw i32 %123, %121
  %125 = add nuw nsw i64 %120, 1
  %126 = load i32, i32* %3, align 4, !tbaa !35
  %127 = sext i32 %126 to i64
  %128 = icmp slt i64 %125, %127
  br i1 %128, label %119, label %129, !llvm.loop !44

129:                                              ; preds = %119, %110
  %130 = phi i32 [ 0, %110 ], [ %124, %119 ]
  %131 = phi i32 [ %117, %110 ], [ %126, %119 ]
  %132 = load i32*, i32** %91, align 8, !tbaa !17
  %133 = sext i32 %131 to i64
  %134 = getelementptr inbounds i32, i32* %132, i64 %133
  store i32 %130, i32* %134, align 4, !tbaa !35
  %135 = getelementptr inbounds %class.HYPRE_SlideReduction, %class.HYPRE_SlideReduction* %0, i64 0, i32 11
  %136 = load i32*, i32** %135, align 8, !tbaa !18
  %137 = icmp eq i32* %136, null
  br i1 %137, label %140, label %138

138:                                              ; preds = %129
  %139 = bitcast i32* %136 to i8*
  call void @_ZdaPv(i8* %139) #20
  br label %140

140:                                              ; preds = %138, %129
  %141 = icmp eq i32 %74, 0
  br i1 %141, label %147, label %142

142:                                              ; preds = %140
  %143 = zext i32 %74 to i64
  %144 = shl nuw nsw i64 %143, 2
  %145 = call noalias nonnull i8* @_Znam(i64 %144) #23
  %146 = bitcast i8* %145 to i32*
  br label %147

147:                                              ; preds = %140, %142
  %148 = phi i32* [ %146, %142 ], [ null, %140 ]
  store i32* %148, i32** %135, align 8, !tbaa !18
  %149 = getelementptr inbounds %class.HYPRE_SlideReduction, %class.HYPRE_SlideReduction* %0, i64 0, i32 15
  %150 = load i32*, i32** %149, align 8, !tbaa !23
  %151 = icmp eq i32* %150, null
  br i1 %151, label %154, label %152

152:                                              ; preds = %147
  %153 = bitcast i32* %150 to i8*
  call void @_ZdaPv(i8* %153) #20
  br label %154

154:                                              ; preds = %152, %147
  br i1 %141, label %159, label %155

155:                                              ; preds = %154
  %156 = zext i32 %74 to i64
  %157 = shl nuw nsw i64 %156, 2
  %158 = call noalias nonnull i8* @_Znam(i64 %157) #23
  br label %159

159:                                              ; preds = %154, %155
  %160 = phi i8* [ %158, %155 ], [ null, %154 ]
  %161 = bitcast i32** %149 to i8**
  store i8* %160, i8** %161, align 8, !tbaa !23
  %162 = icmp eq i32 %74, 0
  br i1 %162, label %166, label %163

163:                                              ; preds = %159
  %164 = zext i32 %74 to i64
  %165 = shl nuw nsw i64 %164, 2
  call void @llvm.memset.p0i8.i64(i8* align 4 %160, i8 -1, i64 %165, i1 false)
  br label %166

166:                                              ; preds = %163, %159
  %167 = getelementptr inbounds %class.HYPRE_SlideReduction, %class.HYPRE_SlideReduction* %0, i64 0, i32 16
  %168 = load i32*, i32** %167, align 8, !tbaa !24
  %169 = icmp eq i32* %168, null
  br i1 %169, label %172, label %170

170:                                              ; preds = %166
  %171 = bitcast i32* %168 to i8*
  call void @_ZdaPv(i8* %171) #20
  br label %172

172:                                              ; preds = %170, %166
  br i1 %141, label %177, label %173

173:                                              ; preds = %172
  %174 = zext i32 %74 to i64
  %175 = shl nuw nsw i64 %174, 2
  %176 = call noalias nonnull i8* @_Znam(i64 %175) #23
  br label %177

177:                                              ; preds = %172, %173
  %178 = phi i8* [ %176, %173 ], [ null, %172 ]
  %179 = bitcast i32** %167 to i8**
  store i8* %178, i8** %179, align 8, !tbaa !24
  %180 = icmp eq i32 %74, 0
  br i1 %180, label %184, label %181

181:                                              ; preds = %177
  %182 = zext i32 %74 to i64
  %183 = shl nuw nsw i64 %182, 2
  call void @llvm.memset.p0i8.i64(i8* align 4 %178, i8 0, i64 %183, i1 false)
  br label %184

184:                                              ; preds = %181, %177
  br i1 %141, label %202, label %185

185:                                              ; preds = %184
  %186 = add i32 %31, %74
  %187 = sub i32 %36, %186
  %188 = add nsw i32 %187, 1
  %189 = sext i32 %188 to i64
  %190 = call { i64, i1 } @llvm.umul.with.overflow.i64(i64 %189, i64 4)
  %191 = extractvalue { i64, i1 } %190, 1
  %192 = extractvalue { i64, i1 } %190, 0
  %193 = select i1 %191, i64 -1, i64 %192
  %194 = call noalias nonnull i8* @_Znam(i64 %193) #23
  %195 = getelementptr inbounds %class.HYPRE_SlideReduction, %class.HYPRE_SlideReduction* %0, i64 0, i32 17
  %196 = bitcast i32** %195 to i8**
  store i8* %194, i8** %196, align 8, !tbaa !20
  %197 = icmp slt i32 %187, 0
  br i1 %197, label %204, label %198

198:                                              ; preds = %185
  %199 = sub i32 %35, %186
  %200 = zext i32 %199 to i64
  %201 = shl nuw nsw i64 %200, 2
  call void @llvm.memset.p0i8.i64(i8* nonnull align 4 %194, i8 0, i64 %201, i1 false)
  br label %204

202:                                              ; preds = %184
  %203 = getelementptr inbounds %class.HYPRE_SlideReduction, %class.HYPRE_SlideReduction* %0, i64 0, i32 17
  store i32* null, i32** %203, align 8, !tbaa !20
  br label %204

204:                                              ; preds = %198, %185, %202
  call void @llvm.lifetime.end.p0i8(i64 8, i8* nonnull %15) #22
  call void @llvm.lifetime.end.p0i8(i64 8, i8* nonnull %14) #22
  call void @llvm.lifetime.end.p0i8(i64 8, i8* nonnull %13) #22
  call void @llvm.lifetime.end.p0i8(i64 4, i8* nonnull %12) #22
  call void @llvm.lifetime.end.p0i8(i64 8, i8* nonnull %11) #22
  call void @llvm.lifetime.end.p0i8(i64 4, i8* nonnull %10) #22
  call void @llvm.lifetime.end.p0i8(i64 4, i8* nonnull %9) #22
  ret i32 %130
}

; Function Attrs: mustprogress uwtable
define dso_local i32 @_ZN20HYPRE_SlideReduction14findSlaveEqns1Ev(%class.HYPRE_SlideReduction* nocapture nonnull readonly align 8 dereferenceable(184) %0) local_unnamed_addr #6 align 2 {
  %2 = alloca i32, align 4
  %3 = alloca i32, align 4
  %4 = alloca i32*, align 8
  %5 = alloca i32, align 4
  %6 = alloca i32, align 4
  %7 = alloca i32*, align 8
  %8 = alloca i32, align 4
  %9 = alloca double*, align 8
  %10 = alloca %struct.hypre_ParCSRMatrix_struct*, align 8
  %11 = bitcast i32* %2 to i8*
  call void @llvm.lifetime.start.p0i8(i64 4, i8* nonnull %11) #22
  %12 = bitcast i32* %3 to i8*
  call void @llvm.lifetime.start.p0i8(i64 4, i8* nonnull %12) #22
  %13 = bitcast i32** %4 to i8*
  call void @llvm.lifetime.start.p0i8(i64 8, i8* nonnull %13) #22
  %14 = bitcast i32* %5 to i8*
  call void @llvm.lifetime.start.p0i8(i64 4, i8* nonnull %14) #22
  %15 = bitcast i32* %6 to i8*
  call void @llvm.lifetime.start.p0i8(i64 4, i8* nonnull %15) #22
  %16 = bitcast i32** %7 to i8*
  call void @llvm.lifetime.start.p0i8(i64 8, i8* nonnull %16) #22
  %17 = bitcast i32* %8 to i8*
  call void @llvm.lifetime.start.p0i8(i64 4, i8* nonnull %17) #22
  %18 = bitcast double** %9 to i8*
  call void @llvm.lifetime.start.p0i8(i64 8, i8* nonnull %18) #22
  %19 = bitcast %struct.hypre_ParCSRMatrix_struct** %10 to i8*
  call void @llvm.lifetime.start.p0i8(i64 8, i8* nonnull %19) #22
  %20 = getelementptr inbounds %class.HYPRE_SlideReduction, %class.HYPRE_SlideReduction* %0, i64 0, i32 1
  %21 = load i32, i32* %20, align 8, !tbaa !6
  %22 = call i32 @MPI_Comm_rank(i32 %21, i32* nonnull %2)
  %23 = load i32, i32* %20, align 8, !tbaa !6
  %24 = call i32 @MPI_Comm_size(i32 %23, i32* nonnull %3)
  %25 = getelementptr inbounds %class.HYPRE_SlideReduction, %class.HYPRE_SlideReduction* %0, i64 0, i32 2
  %26 = load %struct.hypre_IJMatrix_struct*, %struct.hypre_IJMatrix_struct** %25, align 8, !tbaa !16
  %27 = bitcast %struct.hypre_ParCSRMatrix_struct** %10 to i8**
  %28 = call i32 @HYPRE_IJMatrixGetObject(%struct.hypre_IJMatrix_struct* %26, i8** nonnull %27)
  %29 = load %struct.hypre_ParCSRMatrix_struct*, %struct.hypre_ParCSRMatrix_struct** %10, align 8, !tbaa !34
  %30 = call i32 @HYPRE_ParCSRMatrixGetRowPartitioning(%struct.hypre_ParCSRMatrix_struct* %29, i32** nonnull %4)
  %31 = load i32*, i32** %4, align 8, !tbaa !34
  %32 = load i32, i32* %2, align 4, !tbaa !35
  %33 = sext i32 %32 to i64
  %34 = getelementptr inbounds i32, i32* %31, i64 %33
  %35 = load i32, i32* %34, align 4, !tbaa !35
  %36 = add nsw i32 %32, 1
  %37 = sext i32 %36 to i64
  %38 = getelementptr inbounds i32, i32* %31, i64 %37
  %39 = load i32, i32* %38, align 4, !tbaa !35
  %40 = add nsw i32 %39, -1
  %41 = sub i32 1, %39
  %42 = getelementptr inbounds %class.HYPRE_SlideReduction, %class.HYPRE_SlideReduction* %0, i64 0, i32 10
  %43 = load i32*, i32** %42, align 8, !tbaa !17
  %44 = getelementptr inbounds i32, i32* %43, i64 %37
  %45 = load i32, i32* %44, align 4, !tbaa !35
  %46 = getelementptr inbounds i32, i32* %43, i64 %33
  %47 = load i32, i32* %46, align 4, !tbaa !35
  %48 = sub nsw i32 %45, %47
  %49 = sub nsw i32 %40, %48
  %50 = icmp sgt i32 %48, 0
  br i1 %50, label %51, label %170

51:                                               ; preds = %1
  %52 = sub i32 1, %35
  %53 = add i32 %52, %49
  %54 = sext i32 %53 to i64
  %55 = call { i64, i1 } @llvm.umul.with.overflow.i64(i64 %54, i64 4)
  %56 = extractvalue { i64, i1 } %55, 1
  %57 = extractvalue { i64, i1 } %55, 0
  %58 = select i1 %56, i64 -1, i64 %57
  %59 = call noalias nonnull i8* @_Znam(i64 %58) #23
  %60 = bitcast i8* %59 to i32*
  %61 = call noalias nonnull i8* @_Znam(i64 %58) #23
  %62 = bitcast i8* %61 to i32*
  %63 = getelementptr inbounds %class.HYPRE_SlideReduction, %class.HYPRE_SlideReduction* %0, i64 0, i32 9
  %64 = icmp sgt i32 %35, %49
  br i1 %64, label %161, label %65

65:                                               ; preds = %51
  %66 = sext i32 %35 to i64
  %67 = sext i32 %35 to i64
  %68 = sext i32 %49 to i64
  br label %69

69:                                               ; preds = %65, %157
  %70 = phi i64 [ %66, %65 ], [ %159, %157 ]
  %71 = phi i32 [ undef, %65 ], [ %134, %157 ]
  %72 = phi i32 [ 0, %65 ], [ %158, %157 ]
  %73 = load %struct.hypre_ParCSRMatrix_struct*, %struct.hypre_ParCSRMatrix_struct** %10, align 8, !tbaa !34
  %74 = trunc i64 %70 to i32
  %75 = call i32 @HYPRE_ParCSRMatrixGetRow(%struct.hypre_ParCSRMatrix_struct* %73, i32 %74, i32* nonnull %5, i32** nonnull %7, double** nonnull %9)
  store i32 0, i32* %6, align 4, !tbaa !35
  %76 = sub nsw i64 %70, %67
  %77 = getelementptr inbounds i32, i32* %62, i64 %76
  store i32 -1, i32* %77, align 4, !tbaa !35
  %78 = load i32, i32* %5, align 4, !tbaa !35
  %79 = load i32*, i32** %7, align 8
  %80 = load i32, i32* %3, align 4
  %81 = load i32*, i32** %4, align 8
  %82 = icmp slt i32 %80, 1
  %83 = load i32*, i32** %42, align 8
  %84 = load i32, i32* %2, align 4
  %85 = add nsw i32 %84, 1
  %86 = icmp sgt i32 %78, 0
  br i1 %86, label %87, label %133

87:                                               ; preds = %69
  %88 = add i32 %80, 1
  %89 = sext i32 %78 to i64
  %90 = zext i32 %88 to i64
  br label %91

91:                                               ; preds = %87, %126
  %92 = phi i64 [ 0, %87 ], [ %130, %126 ]
  %93 = phi i32 [ %71, %87 ], [ %127, %126 ]
  %94 = getelementptr inbounds i32, i32* %79, i64 %92
  %95 = load i32, i32* %94, align 4, !tbaa !35
  br i1 %82, label %106, label %96

96:                                               ; preds = %91, %101
  %97 = phi i64 [ %102, %101 ], [ 1, %91 ]
  %98 = getelementptr inbounds i32, i32* %81, i64 %97
  %99 = load i32, i32* %98, align 4, !tbaa !35
  %100 = icmp slt i32 %95, %99
  br i1 %100, label %104, label %101

101:                                              ; preds = %96
  %102 = add nuw nsw i64 %97, 1
  %103 = icmp eq i64 %102, %90
  br i1 %103, label %106, label %96, !llvm.loop !45

104:                                              ; preds = %96
  %105 = trunc i64 %97 to i32
  br label %106

106:                                              ; preds = %104, %101, %91
  %107 = phi i32 [ 1, %91 ], [ %105, %104 ], [ %88, %101 ]
  %108 = zext i32 %107 to i64
  %109 = getelementptr inbounds i32, i32* %81, i64 %108
  %110 = load i32, i32* %109, align 4, !tbaa !35
  %111 = getelementptr inbounds i32, i32* %83, i64 %108
  %112 = load i32, i32* %111, align 4, !tbaa !35
  %113 = add nsw i32 %107, -1
  %114 = sext i32 %113 to i64
  %115 = getelementptr inbounds i32, i32* %83, i64 %114
  %116 = load i32, i32* %115, align 4, !tbaa !35
  %117 = sub i32 %110, %112
  %118 = add i32 %117, %116
  %119 = icmp slt i32 %95, %118
  br i1 %119, label %126, label %120

120:                                              ; preds = %106
  %121 = icmp eq i32 %107, %85
  br i1 %121, label %122, label %125

122:                                              ; preds = %120
  %123 = load i32, i32* %6, align 4, !tbaa !35
  %124 = add nsw i32 %123, 1
  store i32 %124, i32* %6, align 4, !tbaa !35
  br label %126

125:                                              ; preds = %120
  store i32 2, i32* %6, align 4, !tbaa !35
  br label %126

126:                                              ; preds = %106, %125, %122
  %127 = phi i32 [ %95, %122 ], [ %93, %125 ], [ %93, %106 ]
  %128 = load i32, i32* %6, align 4, !tbaa !35
  %129 = icmp slt i32 %128, 2
  %130 = add nuw nsw i64 %92, 1
  %131 = icmp slt i64 %130, %89
  %132 = select i1 %129, i1 %131, i1 false
  br i1 %132, label %91, label %133, !llvm.loop !46

133:                                              ; preds = %126, %69
  %134 = phi i32 [ %71, %69 ], [ %127, %126 ]
  %135 = load %struct.hypre_ParCSRMatrix_struct*, %struct.hypre_ParCSRMatrix_struct** %10, align 8, !tbaa !34
  %136 = trunc i64 %70 to i32
  %137 = call i32 @HYPRE_ParCSRMatrixRestoreRow(%struct.hypre_ParCSRMatrix_struct* %135, i32 %136, i32* nonnull %5, i32** nonnull %7, double** nonnull %9)
  %138 = load i32, i32* %6, align 4, !tbaa !35
  %139 = icmp eq i32 %138, 1
  %140 = icmp sgt i32 %134, %49
  %141 = select i1 %139, i1 %140, i1 false
  %142 = icmp slt i32 %134, %39
  %143 = select i1 %141, i1 %142, i1 false
  br i1 %143, label %144, label %157

144:                                              ; preds = %133
  %145 = sext i32 %72 to i64
  %146 = getelementptr inbounds i32, i32* %62, i64 %145
  store i32 %134, i32* %146, align 4, !tbaa !35
  %147 = add nsw i32 %72, 1
  %148 = getelementptr inbounds i32, i32* %60, i64 %145
  %149 = trunc i64 %70 to i32
  store i32 %149, i32* %148, align 4, !tbaa !35
  %150 = load i32, i32* %63, align 8, !tbaa !12
  %151 = and i32 %150, 3
  %152 = icmp eq i32 %151, 3
  br i1 %152, label %153, label %157

153:                                              ; preds = %144
  %154 = load i32, i32* %2, align 4, !tbaa !35
  %155 = trunc i64 %70 to i32
  %156 = call i32 (i8*, ...) @printf(i8* nonnull dereferenceable(1) getelementptr inbounds ([46 x i8], [46 x i8]* @.str.6, i64 0, i64 0), i32 %154, i32 %72, i32 %155, i32 %134)
  br label %157

157:                                              ; preds = %133, %153, %144
  %158 = phi i32 [ %147, %153 ], [ %147, %144 ], [ %72, %133 ]
  %159 = add nsw i64 %70, 1
  %160 = icmp slt i64 %70, %68
  br i1 %160, label %69, label %161, !llvm.loop !47

161:                                              ; preds = %157, %51
  %162 = phi i32 [ 0, %51 ], [ %158, %157 ]
  %163 = getelementptr inbounds %class.HYPRE_SlideReduction, %class.HYPRE_SlideReduction* %0, i64 0, i32 9
  %164 = load i32, i32* %163, align 8, !tbaa !12
  %165 = and i32 %164, 3
  %166 = icmp eq i32 %165, 0
  br i1 %166, label %170, label %167

167:                                              ; preds = %161
  %168 = load i32, i32* %2, align 4, !tbaa !35
  %169 = call i32 (i8*, ...) @printf(i8* nonnull dereferenceable(1) getelementptr inbounds ([53 x i8], [53 x i8]* @.str.7, i64 0, i64 0), i32 %168, i32 %162, i32 %48)
  br label %170

170:                                              ; preds = %161, %167, %1
  %171 = phi i32 [ %162, %167 ], [ %162, %161 ], [ 0, %1 ]
  %172 = phi i32* [ %60, %167 ], [ %60, %161 ], [ null, %1 ]
  %173 = phi i32* [ %62, %167 ], [ %62, %161 ], [ null, %1 ]
  %174 = getelementptr inbounds %class.HYPRE_SlideReduction, %class.HYPRE_SlideReduction* %0, i64 0, i32 17
  %175 = getelementptr inbounds %class.HYPRE_SlideReduction, %class.HYPRE_SlideReduction* %0, i64 0, i32 11
  %176 = add i32 %48, -1
  %177 = add i32 %176, %41
  %178 = getelementptr inbounds %class.HYPRE_SlideReduction, %class.HYPRE_SlideReduction* %0, i64 0, i32 9
  %179 = add i32 %48, -1
  %180 = add i32 %179, %41
  %181 = getelementptr inbounds %class.HYPRE_SlideReduction, %class.HYPRE_SlideReduction* %0, i64 0, i32 11
  %182 = getelementptr inbounds %class.HYPRE_SlideReduction, %class.HYPRE_SlideReduction* %0, i64 0, i32 15
  %183 = getelementptr inbounds %class.HYPRE_SlideReduction, %class.HYPRE_SlideReduction* %0, i64 0, i32 16
  %184 = getelementptr inbounds %class.HYPRE_SlideReduction, %class.HYPRE_SlideReduction* %0, i64 0, i32 17
  %185 = getelementptr inbounds %class.HYPRE_SlideReduction, %class.HYPRE_SlideReduction* %0, i64 0, i32 9
  %186 = icmp sgt i32 %48, 0
  br i1 %186, label %187, label %295

187:                                              ; preds = %170
  %188 = add i32 %47, %39
  %189 = xor i32 %45, -1
  %190 = add i32 %188, %189
  %191 = sext i32 %190 to i64
  %192 = sext i32 %40 to i64
  br label %193

193:                                              ; preds = %187, %293
  %194 = phi i64 [ %191, %187 ], [ %195, %293 ]
  %195 = add nsw i64 %194, 1
  %196 = load %struct.hypre_ParCSRMatrix_struct*, %struct.hypre_ParCSRMatrix_struct** %10, align 8, !tbaa !34
  %197 = trunc i64 %195 to i32
  %198 = call i32 @HYPRE_ParCSRMatrixGetRow(%struct.hypre_ParCSRMatrix_struct* %196, i32 %197, i32* nonnull %5, i32** nonnull %7, double** nonnull %9)
  %199 = load i32, i32* %5, align 4, !tbaa !35
  %200 = icmp sgt i32 %199, 0
  br i1 %200, label %201, label %252

201:                                              ; preds = %193
  %202 = trunc i64 %195 to i32
  br label %203

203:                                              ; preds = %201, %245
  %204 = phi i64 [ %248, %245 ], [ 0, %201 ]
  %205 = phi double [ %247, %245 ], [ 0x3EB0C6F7A0B5ED8D, %201 ]
  %206 = phi i32 [ %246, %245 ], [ -1, %201 ]
  %207 = load double*, double** %9, align 8, !tbaa !34
  %208 = getelementptr inbounds double, double* %207, i64 %204
  %209 = load double, double* %208, align 8, !tbaa !41
  %210 = fcmp une double %209, 0.000000e+00
  br i1 %210, label %211, label %245

211:                                              ; preds = %203
  %212 = load i32*, i32** %7, align 8, !tbaa !34
  %213 = getelementptr inbounds i32, i32* %212, i64 %204
  %214 = load i32, i32* %213, align 4, !tbaa !35
  %215 = icmp slt i32 %214, %35
  %216 = icmp sgt i32 %214, %49
  %217 = select i1 %215, i1 true, i1 %216
  br i1 %217, label %245, label %218

218:                                              ; preds = %211
  %219 = load i32*, i32** %174, align 8, !tbaa !20
  %220 = sub nsw i32 %214, %35
  %221 = sext i32 %220 to i64
  %222 = getelementptr inbounds i32, i32* %219, i64 %221
  %223 = load i32, i32* %222, align 4, !tbaa !35
  %224 = icmp eq i32 %223, 0
  br i1 %224, label %225, label %245

225:                                              ; preds = %218
  %226 = call i32 @hypre_BinarySearch(i32* %172, i32 %214, i32 %171)
  %227 = icmp sgt i32 %226, -1
  br i1 %227, label %228, label %245

228:                                              ; preds = %225
  %229 = load double*, double** %9, align 8, !tbaa !34
  %230 = getelementptr inbounds double, double* %229, i64 %204
  %231 = load double, double* %230, align 8, !tbaa !41
  %232 = fcmp ogt double %231, 0.000000e+00
  %233 = fneg double %231
  %234 = select i1 %232, double %231, double %233
  %235 = fcmp ogt double %234, %205
  br i1 %235, label %236, label %245

236:                                              ; preds = %228
  %237 = sext i32 %226 to i64
  %238 = getelementptr inbounds i32, i32* %173, i64 %237
  %239 = load i32, i32* %238, align 4, !tbaa !35
  %240 = icmp eq i32 %239, %202
  br i1 %240, label %241, label %252

241:                                              ; preds = %236
  %242 = load i32*, i32** %7, align 8, !tbaa !34
  %243 = getelementptr inbounds i32, i32* %242, i64 %204
  %244 = load i32, i32* %243, align 4, !tbaa !35
  br label %245

245:                                              ; preds = %203, %211, %218, %241, %228, %225
  %246 = phi i32 [ %244, %241 ], [ %206, %228 ], [ %206, %225 ], [ %206, %218 ], [ %206, %211 ], [ %206, %203 ]
  %247 = phi double [ %234, %241 ], [ %205, %228 ], [ %205, %225 ], [ %205, %218 ], [ %205, %211 ], [ %205, %203 ]
  %248 = add nuw nsw i64 %204, 1
  %249 = load i32, i32* %5, align 4, !tbaa !35
  %250 = sext i32 %249 to i64
  %251 = icmp slt i64 %248, %250
  br i1 %251, label %203, label %252, !llvm.loop !48

252:                                              ; preds = %245, %236, %193
  %253 = phi i32 [ -1, %193 ], [ %246, %245 ], [ %206, %236 ]
  %254 = load %struct.hypre_ParCSRMatrix_struct*, %struct.hypre_ParCSRMatrix_struct** %10, align 8, !tbaa !34
  %255 = trunc i64 %195 to i32
  %256 = call i32 @HYPRE_ParCSRMatrixRestoreRow(%struct.hypre_ParCSRMatrix_struct* %254, i32 %255, i32* nonnull %5, i32** nonnull %7, double** nonnull %9)
  %257 = icmp sgt i32 %253, -1
  br i1 %257, label %258, label %279

258:                                              ; preds = %252
  %259 = trunc i64 %195 to i32
  %260 = add i32 %180, %259
  %261 = load i32*, i32** %181, align 8, !tbaa !18
  %262 = sext i32 %260 to i64
  %263 = getelementptr inbounds i32, i32* %261, i64 %262
  store i32 %253, i32* %263, align 4, !tbaa !35
  %264 = load i32*, i32** %182, align 8, !tbaa !23
  %265 = getelementptr inbounds i32, i32* %264, i64 %262
  store i32 %260, i32* %265, align 4, !tbaa !35
  %266 = load i32*, i32** %183, align 8, !tbaa !24
  %267 = getelementptr inbounds i32, i32* %266, i64 %262
  store i32 1, i32* %267, align 4, !tbaa !35
  %268 = load i32*, i32** %184, align 8, !tbaa !20
  %269 = sub nsw i32 %253, %35
  %270 = sext i32 %269 to i64
  %271 = getelementptr inbounds i32, i32* %268, i64 %270
  store i32 1, i32* %271, align 4, !tbaa !35
  %272 = load i32, i32* %185, align 8, !tbaa !12
  %273 = and i32 %272, 2
  %274 = icmp eq i32 %273, 0
  br i1 %274, label %293, label %275

275:                                              ; preds = %258
  %276 = load i32, i32* %2, align 4, !tbaa !35
  %277 = trunc i64 %195 to i32
  %278 = call i32 (i8*, ...) @printf(i8* nonnull dereferenceable(1) getelementptr inbounds ([48 x i8], [48 x i8]* @.str.8, i64 0, i64 0), i32 %276, i32 %277, i32 %253)
  br label %293

279:                                              ; preds = %252
  %280 = load i32*, i32** %175, align 8, !tbaa !18
  %281 = trunc i64 %195 to i32
  %282 = add i32 %177, %281
  %283 = sext i32 %282 to i64
  %284 = getelementptr inbounds i32, i32* %280, i64 %283
  store i32 -1, i32* %284, align 4, !tbaa !35
  %285 = load i32, i32* %178, align 8, !tbaa !12
  %286 = and i32 %285, 2
  %287 = icmp eq i32 %286, 0
  br i1 %287, label %293, label %288

288:                                              ; preds = %279
  %289 = load i32, i32* %2, align 4, !tbaa !35
  %290 = trunc i64 %195 to i32
  %291 = call i32 (i8*, ...) @printf(i8* nonnull dereferenceable(1) getelementptr inbounds ([44 x i8], [44 x i8]* @.str.9, i64 0, i64 0), i32 %289, i32 %290)
  %292 = call i32 @puts(i8* nonnull dereferenceable(1) getelementptr inbounds ([18 x i8], [18 x i8]* @str.108, i64 0, i64 0))
  br label %293

293:                                              ; preds = %275, %258, %288, %279
  %294 = icmp slt i64 %195, %192
  br i1 %294, label %193, label %295, !llvm.loop !49

295:                                              ; preds = %293, %170
  br i1 %50, label %296, label %304

296:                                              ; preds = %295
  %297 = icmp eq i32* %173, null
  br i1 %297, label %300, label %298

298:                                              ; preds = %296
  %299 = bitcast i32* %173 to i8*
  call void @_ZdaPv(i8* %299) #20
  br label %300

300:                                              ; preds = %298, %296
  %301 = icmp eq i32* %172, null
  br i1 %301, label %304, label %302

302:                                              ; preds = %300
  %303 = bitcast i32* %172 to i8*
  call void @_ZdaPv(i8* %303) #20
  br label %304

304:                                              ; preds = %300, %302, %295
  %305 = bitcast i32** %4 to i8**
  %306 = load i8*, i8** %305, align 8, !tbaa !34
  call void @free(i8* %306) #22
  store i32 0, i32* %6, align 4, !tbaa !35
  %307 = getelementptr inbounds %class.HYPRE_SlideReduction, %class.HYPRE_SlideReduction* %0, i64 0, i32 11
  %308 = load i32*, i32** %307, align 8
  %309 = icmp sgt i32 %48, 0
  br i1 %309, label %310, label %324

310:                                              ; preds = %304
  %311 = sub i32 %45, %47
  %312 = zext i32 %311 to i64
  br label %313

313:                                              ; preds = %310, %321
  %314 = phi i64 [ 0, %310 ], [ %322, %321 ]
  %315 = getelementptr inbounds i32, i32* %308, i64 %314
  %316 = load i32, i32* %315, align 4, !tbaa !35
  %317 = icmp eq i32 %316, -1
  br i1 %317, label %318, label %321

318:                                              ; preds = %313
  %319 = load i32, i32* %6, align 4, !tbaa !35
  %320 = add nsw i32 %319, 1
  store i32 %320, i32* %6, align 4, !tbaa !35
  br label %321

321:                                              ; preds = %313, %318
  %322 = add nuw nsw i64 %314, 1
  %323 = icmp eq i64 %322, %312
  br i1 %323, label %324, label %313, !llvm.loop !50

324:                                              ; preds = %321, %304
  %325 = load i32, i32* %20, align 8, !tbaa !6
  %326 = call i32 @MPI_Allreduce(i8* nonnull %15, i8* nonnull %17, i32 1, i32 1275069445, i32 1476395011, i32 %325)
  %327 = load i32, i32* %8, align 4, !tbaa !35
  %328 = icmp sgt i32 %327, 0
  br i1 %328, label %329, label %368

329:                                              ; preds = %324
  %330 = load i32, i32* %2, align 4, !tbaa !35
  %331 = icmp eq i32 %330, 0
  br i1 %331, label %332, label %341

332:                                              ; preds = %329
  %333 = getelementptr inbounds %class.HYPRE_SlideReduction, %class.HYPRE_SlideReduction* %0, i64 0, i32 9
  %334 = load i32, i32* %333, align 8, !tbaa !12
  %335 = and i32 %334, 3
  %336 = icmp eq i32 %335, 0
  br i1 %336, label %341, label %337

337:                                              ; preds = %332
  %338 = call i32 (i8*, ...) @printf(i8* nonnull dereferenceable(1) getelementptr inbounds ([57 x i8], [57 x i8]* @.str.11, i64 0, i64 0), i32 0)
  %339 = load i32, i32* %8, align 4, !tbaa !35
  %340 = call i32 (i8*, ...) @printf(i8* nonnull dereferenceable(1) getelementptr inbounds ([20 x i8], [20 x i8]* @.str.12, i64 0, i64 0), i32 %339)
  br label %341

341:                                              ; preds = %337, %332, %329
  %342 = getelementptr inbounds %class.HYPRE_SlideReduction, %class.HYPRE_SlideReduction* %0, i64 0, i32 9
  %343 = load i32, i32* %342, align 8, !tbaa !12
  %344 = and i32 %343, 3
  %345 = icmp eq i32 %344, 0
  br i1 %345, label %368, label %346

346:                                              ; preds = %341
  %347 = getelementptr inbounds %class.HYPRE_SlideReduction, %class.HYPRE_SlideReduction* %0, i64 0, i32 11
  %348 = sub i32 %39, %48
  %349 = icmp sgt i32 %48, 0
  br i1 %349, label %350, label %368

350:                                              ; preds = %346
  %351 = sub i32 %45, %47
  %352 = zext i32 %351 to i64
  br label %353

353:                                              ; preds = %350, %365
  %354 = phi i64 [ 0, %350 ], [ %366, %365 ]
  %355 = load i32*, i32** %347, align 8, !tbaa !18
  %356 = getelementptr inbounds i32, i32* %355, i64 %354
  %357 = load i32, i32* %356, align 4, !tbaa !35
  %358 = icmp eq i32 %357, -1
  br i1 %358, label %359, label %365

359:                                              ; preds = %353
  %360 = load i32, i32* %2, align 4, !tbaa !35
  %361 = call i32 (i8*, ...) @printf(i8* nonnull dereferenceable(1) getelementptr inbounds ([46 x i8], [46 x i8]* @.str.13, i64 0, i64 0), i32 %360)
  %362 = trunc i64 %354 to i32
  %363 = add i32 %348, %362
  %364 = call i32 (i8*, ...) @printf(i8* nonnull dereferenceable(1) getelementptr inbounds ([16 x i8], [16 x i8]* @.str.14, i64 0, i64 0), i32 %363)
  br label %365

365:                                              ; preds = %353, %359
  %366 = add nuw nsw i64 %354, 1
  %367 = icmp eq i64 %366, %352
  br i1 %367, label %368, label %353, !llvm.loop !51

368:                                              ; preds = %365, %346, %324, %341
  %369 = phi i32 [ -1, %341 ], [ 0, %324 ], [ -1, %346 ], [ -1, %365 ]
  call void @llvm.lifetime.end.p0i8(i64 8, i8* nonnull %19) #22
  call void @llvm.lifetime.end.p0i8(i64 8, i8* nonnull %18) #22
  call void @llvm.lifetime.end.p0i8(i64 4, i8* nonnull %17) #22
  call void @llvm.lifetime.end.p0i8(i64 8, i8* nonnull %16) #22
  call void @llvm.lifetime.end.p0i8(i64 4, i8* nonnull %15) #22
  call void @llvm.lifetime.end.p0i8(i64 4, i8* nonnull %14) #22
  call void @llvm.lifetime.end.p0i8(i64 8, i8* nonnull %13) #22
  call void @llvm.lifetime.end.p0i8(i64 4, i8* nonnull %12) #22
  call void @llvm.lifetime.end.p0i8(i64 4, i8* nonnull %11) #22
  ret i32 %369
}

; Function Attrs: mustprogress uwtable
define dso_local i32 @_ZN20HYPRE_SlideReduction18findSlaveEqnsBlockEi(%class.HYPRE_SlideReduction* nonnull readonly align 8 dereferenceable(184) %0, i32 %1) local_unnamed_addr #6 align 2 {
  %3 = alloca i32, align 4
  %4 = alloca i32, align 4
  %5 = alloca i32*, align 8
  %6 = alloca i32, align 4
  %7 = alloca i32, align 4
  %8 = alloca i32*, align 8
  %9 = alloca i32, align 4
  %10 = alloca i32*, align 8
  %11 = alloca i32, align 4
  %12 = alloca double*, align 8
  %13 = alloca double*, align 8
  %14 = alloca %struct.hypre_ParCSRMatrix_struct*, align 8
  %15 = bitcast i32* %3 to i8*
  call void @llvm.lifetime.start.p0i8(i64 4, i8* nonnull %15) #22
  %16 = bitcast i32* %4 to i8*
  call void @llvm.lifetime.start.p0i8(i64 4, i8* nonnull %16) #22
  %17 = bitcast i32** %5 to i8*
  call void @llvm.lifetime.start.p0i8(i64 8, i8* nonnull %17) #22
  %18 = bitcast i32* %6 to i8*
  call void @llvm.lifetime.start.p0i8(i64 4, i8* nonnull %18) #22
  %19 = bitcast i32* %7 to i8*
  call void @llvm.lifetime.start.p0i8(i64 4, i8* nonnull %19) #22
  %20 = bitcast i32** %8 to i8*
  call void @llvm.lifetime.start.p0i8(i64 8, i8* nonnull %20) #22
  %21 = bitcast i32* %9 to i8*
  call void @llvm.lifetime.start.p0i8(i64 4, i8* nonnull %21) #22
  %22 = bitcast i32** %10 to i8*
  call void @llvm.lifetime.start.p0i8(i64 8, i8* nonnull %22) #22
  %23 = bitcast i32* %11 to i8*
  call void @llvm.lifetime.start.p0i8(i64 4, i8* nonnull %23) #22
  %24 = bitcast double** %12 to i8*
  call void @llvm.lifetime.start.p0i8(i64 8, i8* nonnull %24) #22
  %25 = bitcast double** %13 to i8*
  call void @llvm.lifetime.start.p0i8(i64 8, i8* nonnull %25) #22
  %26 = bitcast %struct.hypre_ParCSRMatrix_struct** %14 to i8*
  call void @llvm.lifetime.start.p0i8(i64 8, i8* nonnull %26) #22
  %27 = icmp sgt i32 %1, 100
  br i1 %27, label %1009, label %28

28:                                               ; preds = %2
  %29 = getelementptr inbounds %class.HYPRE_SlideReduction, %class.HYPRE_SlideReduction* %0, i64 0, i32 1
  %30 = load i32, i32* %29, align 8, !tbaa !6
  %31 = call i32 @MPI_Comm_rank(i32 %30, i32* nonnull %3)
  %32 = load i32, i32* %29, align 8, !tbaa !6
  %33 = call i32 @MPI_Comm_size(i32 %32, i32* nonnull %4)
  %34 = getelementptr inbounds %class.HYPRE_SlideReduction, %class.HYPRE_SlideReduction* %0, i64 0, i32 2
  %35 = load %struct.hypre_IJMatrix_struct*, %struct.hypre_IJMatrix_struct** %34, align 8, !tbaa !16
  %36 = bitcast %struct.hypre_ParCSRMatrix_struct** %14 to i8**
  %37 = call i32 @HYPRE_IJMatrixGetObject(%struct.hypre_IJMatrix_struct* %35, i8** nonnull %36)
  %38 = load %struct.hypre_ParCSRMatrix_struct*, %struct.hypre_ParCSRMatrix_struct** %14, align 8, !tbaa !34
  %39 = call i32 @HYPRE_ParCSRMatrixGetRowPartitioning(%struct.hypre_ParCSRMatrix_struct* %38, i32** nonnull %5)
  %40 = load i32*, i32** %5, align 8, !tbaa !34
  %41 = load i32, i32* %3, align 4, !tbaa !35
  %42 = sext i32 %41 to i64
  %43 = getelementptr inbounds i32, i32* %40, i64 %42
  %44 = load i32, i32* %43, align 4, !tbaa !35
  %45 = add nsw i32 %41, 1
  %46 = sext i32 %45 to i64
  %47 = getelementptr inbounds i32, i32* %40, i64 %46
  %48 = load i32, i32* %47, align 4, !tbaa !35
  %49 = add nsw i32 %48, -1
  %50 = sub i32 1, %48
  %51 = sub nsw i32 %49, %44
  %52 = add nsw i32 %51, 1
  %53 = getelementptr inbounds %class.HYPRE_SlideReduction, %class.HYPRE_SlideReduction* %0, i64 0, i32 10
  %54 = load i32*, i32** %53, align 8, !tbaa !17
  %55 = getelementptr inbounds i32, i32* %54, i64 %46
  %56 = load i32, i32* %55, align 4, !tbaa !35
  %57 = getelementptr inbounds i32, i32* %54, i64 %42
  %58 = load i32, i32* %57, align 4, !tbaa !35
  %59 = sub nsw i32 %56, %58
  %60 = sub nsw i32 %49, %59
  %61 = icmp eq i32 %41, 0
  br i1 %61, label %62, label %69

62:                                               ; preds = %28
  %63 = getelementptr inbounds %class.HYPRE_SlideReduction, %class.HYPRE_SlideReduction* %0, i64 0, i32 9
  %64 = load i32, i32* %63, align 8, !tbaa !12
  %65 = and i32 %64, 3
  %66 = icmp eq i32 %65, 0
  br i1 %66, label %69, label %67

67:                                               ; preds = %62
  %68 = call i32 (i8*, ...) @printf(i8* nonnull dereferenceable(1) getelementptr inbounds ([38 x i8], [38 x i8]* @.str.15, i64 0, i64 0), i32 0, i32 %1)
  br label %69

69:                                               ; preds = %67, %62, %28
  %70 = icmp sgt i32 %59, 0
  br i1 %70, label %71, label %233

71:                                               ; preds = %69
  %72 = sub nsw i32 %52, %59
  %73 = sext i32 %72 to i64
  %74 = call { i64, i1 } @llvm.umul.with.overflow.i64(i64 %73, i64 4)
  %75 = extractvalue { i64, i1 } %74, 1
  %76 = extractvalue { i64, i1 } %74, 0
  %77 = select i1 %75, i64 -1, i64 %76
  %78 = call noalias nonnull i8* @_Znam(i64 %77) #23
  %79 = bitcast i8* %78 to i32*
  %80 = call { i64, i1 } @llvm.umul.with.overflow.i64(i64 %73, i64 8)
  %81 = extractvalue { i64, i1 } %80, 1
  %82 = extractvalue { i64, i1 } %80, 0
  %83 = select i1 %81, i64 -1, i64 %82
  %84 = call noalias nonnull i8* @_Znam(i64 %83) #23
  %85 = bitcast i8* %84 to i32**
  %86 = sext i32 %1 to i64
  %87 = call { i64, i1 } @llvm.umul.with.overflow.i64(i64 %86, i64 4)
  %88 = extractvalue { i64, i1 } %87, 1
  %89 = extractvalue { i64, i1 } %87, 0
  %90 = select i1 %88, i64 -1, i64 %89
  %91 = icmp sgt i32 %1, 0
  %92 = icmp sgt i32 %72, 0
  br i1 %92, label %93, label %97

93:                                               ; preds = %71
  %94 = zext i32 %1 to i64
  %95 = shl nuw nsw i64 %94, 2
  %96 = sext i32 %72 to i64
  br label %106

97:                                               ; preds = %114, %71
  %98 = getelementptr inbounds %class.HYPRE_SlideReduction, %class.HYPRE_SlideReduction* %0, i64 0, i32 17
  %99 = add nsw i32 %1, 1
  %100 = getelementptr inbounds %class.HYPRE_SlideReduction, %class.HYPRE_SlideReduction* %0, i64 0, i32 9
  %101 = icmp sgt i32 %44, %60
  br i1 %101, label %224, label %102

102:                                              ; preds = %97
  %103 = sext i32 %44 to i64
  %104 = sext i32 %44 to i64
  %105 = sext i32 %60 to i64
  br label %117

106:                                              ; preds = %93, %114
  %107 = phi i64 [ 0, %93 ], [ %115, %114 ]
  %108 = call noalias nonnull i8* @_Znam(i64 %90) #23
  %109 = getelementptr inbounds i32*, i32** %85, i64 %107
  %110 = bitcast i32** %109 to i8**
  store i8* %108, i8** %110, align 8, !tbaa !34
  br i1 %91, label %111, label %114

111:                                              ; preds = %106
  %112 = bitcast i32** %109 to i8**
  %113 = load i8*, i8** %112, align 8, !tbaa !34
  call void @llvm.memset.p0i8.i64(i8* align 4 %113, i8 -1, i64 %95, i1 false)
  br label %114

114:                                              ; preds = %111, %106
  %115 = add nuw nsw i64 %107, 1
  %116 = icmp slt i64 %115, %96
  br i1 %116, label %106, label %97, !llvm.loop !52

117:                                              ; preds = %102, %220
  %118 = phi i64 [ %103, %102 ], [ %222, %220 ]
  %119 = phi i32 [ 0, %102 ], [ %221, %220 ]
  %120 = load i32*, i32** %98, align 8, !tbaa !20
  %121 = sub nsw i64 %118, %104
  %122 = getelementptr inbounds i32, i32* %120, i64 %121
  %123 = load i32, i32* %122, align 4, !tbaa !35
  %124 = icmp eq i32 %123, 1
  br i1 %124, label %220, label %125

125:                                              ; preds = %117
  %126 = load %struct.hypre_ParCSRMatrix_struct*, %struct.hypre_ParCSRMatrix_struct** %14, align 8, !tbaa !34
  %127 = trunc i64 %118 to i32
  %128 = call i32 @HYPRE_ParCSRMatrixGetRow(%struct.hypre_ParCSRMatrix_struct* %126, i32 %127, i32* nonnull %6, i32** nonnull %8, double** nonnull %12)
  store i32 0, i32* %7, align 4, !tbaa !35
  %129 = load i32*, i32** %8, align 8
  %130 = sext i32 %119 to i64
  %131 = getelementptr inbounds i32*, i32** %85, i64 %130
  %132 = load i32, i32* %6, align 4, !tbaa !35
  %133 = icmp sgt i32 %132, 0
  br i1 %133, label %134, label %185

134:                                              ; preds = %125, %177
  %135 = phi i64 [ %180, %177 ], [ 0, %125 ]
  %136 = getelementptr inbounds i32, i32* %129, i64 %135
  %137 = load i32, i32* %136, align 4, !tbaa !35
  %138 = load i32*, i32** %5, align 8
  %139 = load i32*, i32** %53, align 8
  %140 = load i32, i32* %4, align 4, !tbaa !35
  %141 = icmp sgt i32 %140, 0
  br i1 %141, label %142, label %177

142:                                              ; preds = %134, %173
  %143 = phi i64 [ %144, %173 ], [ 0, %134 ]
  %144 = add nuw nsw i64 %143, 1
  %145 = getelementptr inbounds i32, i32* %138, i64 %144
  %146 = load i32, i32* %145, align 4, !tbaa !35
  %147 = getelementptr inbounds i32, i32* %139, i64 %144
  %148 = load i32, i32* %147, align 4, !tbaa !35
  %149 = getelementptr inbounds i32, i32* %139, i64 %143
  %150 = load i32, i32* %149, align 4, !tbaa !35
  %151 = sub i32 %146, %148
  %152 = add i32 %151, %150
  %153 = icmp sge i32 %137, %152
  %154 = icmp slt i32 %137, %146
  %155 = and i1 %154, %153
  %156 = load i32, i32* %3, align 4
  %157 = zext i32 %156 to i64
  %158 = icmp eq i64 %143, %157
  %159 = select i1 %155, i1 %158, i1 false
  br i1 %159, label %160, label %168

160:                                              ; preds = %142
  %161 = load i32, i32* %7, align 4, !tbaa !35
  %162 = add nsw i32 %161, 1
  store i32 %162, i32* %7, align 4, !tbaa !35
  %163 = icmp slt i32 %161, %1
  br i1 %163, label %164, label %173

164:                                              ; preds = %160
  %165 = load i32*, i32** %131, align 8, !tbaa !34
  %166 = sext i32 %161 to i64
  %167 = getelementptr inbounds i32, i32* %165, i64 %166
  store i32 %137, i32* %167, align 4, !tbaa !35
  br label %173

168:                                              ; preds = %142
  %169 = and i1 %154, %153
  %170 = xor i1 %169, true
  %171 = select i1 %170, i1 true, i1 %158
  br i1 %171, label %173, label %172

172:                                              ; preds = %168
  store i32 %99, i32* %7, align 4, !tbaa !35
  br label %177

173:                                              ; preds = %164, %160, %168
  %174 = load i32, i32* %4, align 4, !tbaa !35
  %175 = sext i32 %174 to i64
  %176 = icmp slt i64 %144, %175
  br i1 %176, label %142, label %177, !llvm.loop !53

177:                                              ; preds = %173, %134, %172
  %178 = load i32, i32* %7, align 4, !tbaa !35
  %179 = icmp sle i32 %178, %1
  %180 = add nuw nsw i64 %135, 1
  %181 = load i32, i32* %6, align 4
  %182 = sext i32 %181 to i64
  %183 = icmp slt i64 %180, %182
  %184 = select i1 %179, i1 %183, i1 false
  br i1 %184, label %134, label %185, !llvm.loop !54

185:                                              ; preds = %177, %125
  %186 = load %struct.hypre_ParCSRMatrix_struct*, %struct.hypre_ParCSRMatrix_struct** %14, align 8, !tbaa !34
  %187 = trunc i64 %118 to i32
  %188 = call i32 @HYPRE_ParCSRMatrixRestoreRow(%struct.hypre_ParCSRMatrix_struct* %186, i32 %187, i32* nonnull %6, i32** nonnull %8, double** nonnull %12)
  %189 = load i32, i32* %7, align 4, !tbaa !35
  %190 = icmp slt i32 %189, 1
  %191 = icmp sgt i32 %189, %1
  %192 = select i1 %190, i1 true, i1 %191
  br i1 %192, label %220, label %193

193:                                              ; preds = %185
  %194 = sext i32 %119 to i64
  %195 = getelementptr inbounds i32*, i32** %85, i64 %194
  %196 = load i32*, i32** %195, align 8, !tbaa !34
  %197 = zext i32 %189 to i64
  br label %200

198:                                              ; preds = %200
  %199 = icmp eq i64 %207, %197
  br i1 %199, label %208, label %200, !llvm.loop !55

200:                                              ; preds = %193, %198
  %201 = phi i64 [ 0, %193 ], [ %207, %198 ]
  %202 = getelementptr inbounds i32, i32* %196, i64 %201
  %203 = load i32, i32* %202, align 4, !tbaa !35
  %204 = icmp sgt i32 %203, %60
  %205 = icmp slt i32 %203, %48
  %206 = select i1 %204, i1 %205, i1 false
  %207 = add nuw nsw i64 %201, 1
  br i1 %206, label %198, label %220

208:                                              ; preds = %198
  %209 = add nsw i32 %119, 1
  %210 = sext i32 %119 to i64
  %211 = getelementptr inbounds i32, i32* %79, i64 %210
  %212 = trunc i64 %118 to i32
  store i32 %212, i32* %211, align 4, !tbaa !35
  %213 = load i32, i32* %100, align 8, !tbaa !12
  %214 = and i32 %213, 3
  %215 = icmp eq i32 %214, 3
  br i1 %215, label %216, label %220

216:                                              ; preds = %208
  %217 = load i32, i32* %3, align 4, !tbaa !35
  %218 = trunc i64 %118 to i32
  %219 = call i32 (i8*, ...) @printf(i8* nonnull dereferenceable(1) getelementptr inbounds ([46 x i8], [46 x i8]* @.str.16, i64 0, i64 0), i32 %217, i32 %119, i32 %218)
  br label %220

220:                                              ; preds = %200, %185, %208, %216, %117
  %221 = phi i32 [ %119, %117 ], [ %209, %216 ], [ %209, %208 ], [ %119, %185 ], [ %119, %200 ]
  %222 = add nsw i64 %118, 1
  %223 = icmp slt i64 %118, %105
  br i1 %223, label %117, label %224, !llvm.loop !56

224:                                              ; preds = %220, %97
  %225 = phi i32 [ 0, %97 ], [ %221, %220 ]
  %226 = getelementptr inbounds %class.HYPRE_SlideReduction, %class.HYPRE_SlideReduction* %0, i64 0, i32 9
  %227 = load i32, i32* %226, align 8, !tbaa !12
  %228 = and i32 %227, 3
  %229 = icmp eq i32 %228, 0
  br i1 %229, label %233, label %230

230:                                              ; preds = %224
  %231 = load i32, i32* %3, align 4, !tbaa !35
  %232 = call i32 (i8*, ...) @printf(i8* nonnull dereferenceable(1) getelementptr inbounds ([57 x i8], [57 x i8]* @.str.17, i64 0, i64 0), i32 %231, i32 %225, i32 %59)
  br label %233

233:                                              ; preds = %224, %230, %69
  %234 = phi i32** [ %85, %230 ], [ %85, %224 ], [ undef, %69 ]
  %235 = phi i32* [ %79, %230 ], [ %79, %224 ], [ undef, %69 ]
  %236 = phi i32 [ %225, %230 ], [ %225, %224 ], [ 0, %69 ]
  br i1 %70, label %237, label %245

237:                                              ; preds = %233
  %238 = sext i32 %59 to i64
  %239 = call { i64, i1 } @llvm.umul.with.overflow.i64(i64 %238, i64 4)
  %240 = extractvalue { i64, i1 } %239, 1
  %241 = extractvalue { i64, i1 } %239, 0
  %242 = select i1 %240, i64 -1, i64 %241
  %243 = call noalias nonnull i8* @_Znam(i64 %242) #23
  %244 = bitcast i8* %243 to i32*
  br label %245

245:                                              ; preds = %237, %233
  %246 = phi i32* [ %244, %237 ], [ undef, %233 ]
  br i1 %70, label %247, label %255

247:                                              ; preds = %245
  %248 = sext i32 %59 to i64
  %249 = call { i64, i1 } @llvm.umul.with.overflow.i64(i64 %248, i64 4)
  %250 = extractvalue { i64, i1 } %249, 1
  %251 = extractvalue { i64, i1 } %249, 0
  %252 = select i1 %250, i64 -1, i64 %251
  %253 = call noalias nonnull i8* @_Znam(i64 %252) #23
  %254 = bitcast i8* %253 to i32*
  br label %255

255:                                              ; preds = %247, %245
  %256 = phi i32* [ %254, %247 ], [ undef, %245 ]
  %257 = getelementptr inbounds %class.HYPRE_SlideReduction, %class.HYPRE_SlideReduction* %0, i64 0, i32 11
  %258 = load i32*, i32** %257, align 8
  %259 = icmp sgt i32 %59, 0
  br i1 %259, label %260, label %272

260:                                              ; preds = %255
  %261 = sub i32 %56, %58
  %262 = zext i32 %261 to i64
  br label %263

263:                                              ; preds = %260, %263
  %264 = phi i64 [ 0, %260 ], [ %270, %263 ]
  %265 = getelementptr inbounds i32, i32* %258, i64 %264
  %266 = load i32, i32* %265, align 4, !tbaa !35
  %267 = getelementptr inbounds i32, i32* %246, i64 %264
  store i32 %266, i32* %267, align 4, !tbaa !35
  %268 = getelementptr inbounds i32, i32* %256, i64 %264
  %269 = trunc i64 %264 to i32
  store i32 %269, i32* %268, align 4, !tbaa !35
  %270 = add nuw nsw i64 %264, 1
  %271 = icmp eq i64 %270, %262
  br i1 %271, label %272, label %263, !llvm.loop !57

272:                                              ; preds = %263, %255
  %273 = add nsw i32 %59, -1
  %274 = call i32 @HYPRE_LSI_qsort1a(i32* %246, i32* %256, i32 0, i32 %273)
  %275 = add i32 %60, 1
  %276 = icmp sgt i32 %1, 0
  %277 = getelementptr inbounds %class.HYPRE_SlideReduction, %class.HYPRE_SlideReduction* %0, i64 0, i32 9
  %278 = icmp sgt i32 %1, 0
  %279 = icmp sgt i32 %236, 0
  br i1 %279, label %280, label %356

280:                                              ; preds = %272
  %281 = zext i32 %236 to i64
  %282 = zext i32 %1 to i64
  %283 = zext i32 %1 to i64
  br label %284

284:                                              ; preds = %280, %353
  %285 = phi i64 [ 0, %280 ], [ %354, %353 ]
  %286 = getelementptr inbounds i32*, i32** %234, i64 %285
  %287 = getelementptr inbounds i32, i32* %235, i64 %285
  br i1 %278, label %288, label %353

288:                                              ; preds = %284, %350
  %289 = phi i64 [ %351, %350 ], [ 0, %284 ]
  %290 = load i32*, i32** %286, align 8, !tbaa !34
  %291 = getelementptr inbounds i32, i32* %290, i64 %289
  %292 = load i32, i32* %291, align 4, !tbaa !35
  %293 = icmp sgt i32 %292, -1
  br i1 %293, label %294, label %350

294:                                              ; preds = %288
  %295 = load %struct.hypre_ParCSRMatrix_struct*, %struct.hypre_ParCSRMatrix_struct** %14, align 8, !tbaa !34
  %296 = call i32 @HYPRE_ParCSRMatrixGetRow(%struct.hypre_ParCSRMatrix_struct* %295, i32 %292, i32* nonnull %6, i32** nonnull %8, double** null)
  %297 = load i32, i32* %6, align 4, !tbaa !35
  %298 = icmp sgt i32 %297, 0
  br i1 %298, label %299, label %347

299:                                              ; preds = %294, %342
  %300 = phi i64 [ %343, %342 ], [ 0, %294 ]
  %301 = load i32*, i32** %8, align 8, !tbaa !34
  %302 = getelementptr inbounds i32, i32* %301, i64 %300
  %303 = load i32, i32* %302, align 4, !tbaa !35
  %304 = call i32 @hypre_BinarySearch(i32* %246, i32 %303, i32 %59)
  %305 = icmp sgt i32 %304, -1
  br i1 %305, label %306, label %342

306:                                              ; preds = %299
  %307 = sext i32 %304 to i64
  %308 = getelementptr inbounds i32, i32* %256, i64 %307
  %309 = load i32, i32* %308, align 4, !tbaa !35
  %310 = add i32 %275, %309
  br i1 %276, label %311, label %325

311:                                              ; preds = %306
  %312 = load i32*, i32** %286, align 8, !tbaa !34
  br label %313

313:                                              ; preds = %311, %320
  %314 = phi i64 [ 0, %311 ], [ %321, %320 ]
  %315 = getelementptr inbounds i32, i32* %312, i64 %314
  %316 = load i32, i32* %315, align 4, !tbaa !35
  %317 = icmp eq i32 %316, %310
  %318 = icmp eq i32 %316, -1
  %319 = or i1 %317, %318
  br i1 %319, label %323, label %320

320:                                              ; preds = %313
  %321 = add nuw nsw i64 %314, 1
  %322 = icmp eq i64 %321, %283
  br i1 %322, label %325, label %313, !llvm.loop !58

323:                                              ; preds = %313
  %324 = trunc i64 %314 to i32
  br label %325

325:                                              ; preds = %323, %320, %306
  %326 = phi i32 [ 0, %306 ], [ %324, %323 ], [ %1, %320 ]
  %327 = icmp eq i32 %326, %1
  %328 = load i32*, i32** %286, align 8, !tbaa !34
  br i1 %327, label %329, label %330

329:                                              ; preds = %325
  store i32 -5, i32* %328, align 4, !tbaa !35
  br label %342

330:                                              ; preds = %325
  %331 = zext i32 %326 to i64
  %332 = getelementptr inbounds i32, i32* %328, i64 %331
  %333 = load i32, i32* %332, align 4, !tbaa !35
  %334 = icmp eq i32 %333, -1
  br i1 %334, label %335, label %342

335:                                              ; preds = %330
  store i32 %310, i32* %332, align 4, !tbaa !35
  %336 = load i32, i32* %277, align 8, !tbaa !12
  %337 = and i32 %336, 2
  %338 = icmp eq i32 %337, 0
  br i1 %338, label %342, label %339

339:                                              ; preds = %335
  %340 = load i32, i32* %287, align 4, !tbaa !35
  %341 = call i32 (i8*, ...) @printf(i8* nonnull dereferenceable(1) getelementptr inbounds ([39 x i8], [39 x i8]* @.str.18, i64 0, i64 0), i32 %340, i32 %310)
  br label %342

342:                                              ; preds = %299, %330, %339, %335, %329
  %343 = add nuw nsw i64 %300, 1
  %344 = load i32, i32* %6, align 4, !tbaa !35
  %345 = sext i32 %344 to i64
  %346 = icmp slt i64 %343, %345
  br i1 %346, label %299, label %347, !llvm.loop !59

347:                                              ; preds = %342, %294
  %348 = load %struct.hypre_ParCSRMatrix_struct*, %struct.hypre_ParCSRMatrix_struct** %14, align 8, !tbaa !34
  %349 = call i32 @HYPRE_ParCSRMatrixRestoreRow(%struct.hypre_ParCSRMatrix_struct* %348, i32 %292, i32* nonnull %6, i32** nonnull %8, double** null)
  br label %350

350:                                              ; preds = %288, %347
  %351 = add nuw nsw i64 %289, 1
  %352 = icmp eq i64 %351, %282
  br i1 %352, label %353, label %288, !llvm.loop !60

353:                                              ; preds = %350, %284
  %354 = add nuw nsw i64 %285, 1
  %355 = icmp eq i64 %354, %281
  br i1 %355, label %356, label %284, !llvm.loop !61

356:                                              ; preds = %353, %272
  store i32 0, i32* %7, align 4, !tbaa !35
  %357 = icmp sgt i32 %236, 0
  br i1 %357, label %358, label %391

358:                                              ; preds = %356
  %359 = zext i32 %236 to i64
  br label %360

360:                                              ; preds = %358, %388
  %361 = phi i64 [ 0, %358 ], [ %389, %388 ]
  %362 = getelementptr inbounds i32*, i32** %234, i64 %361
  %363 = load i32*, i32** %362, align 8, !tbaa !34
  %364 = load i32, i32* %363, align 4, !tbaa !35
  %365 = icmp eq i32 %364, -5
  br i1 %365, label %388, label %366

366:                                              ; preds = %360
  %367 = load i32, i32* %7, align 4, !tbaa !35
  %368 = zext i32 %367 to i64
  %369 = icmp eq i64 %361, %368
  br i1 %369, label %386, label %370

370:                                              ; preds = %366
  %371 = sext i32 %367 to i64
  %372 = getelementptr inbounds i32*, i32** %234, i64 %371
  %373 = load i32*, i32** %372, align 8, !tbaa !34
  %374 = icmp eq i32* %373, null
  br i1 %374, label %377, label %375

375:                                              ; preds = %370
  %376 = bitcast i32* %373 to i8*
  call void @_ZdaPv(i8* %376) #20
  br label %377

377:                                              ; preds = %375, %370
  %378 = load i32*, i32** %362, align 8, !tbaa !34
  %379 = load i32, i32* %7, align 4, !tbaa !35
  %380 = sext i32 %379 to i64
  %381 = getelementptr inbounds i32*, i32** %234, i64 %380
  store i32* %378, i32** %381, align 8, !tbaa !34
  store i32* null, i32** %362, align 8, !tbaa !34
  %382 = getelementptr inbounds i32, i32* %235, i64 %361
  %383 = load i32, i32* %382, align 4, !tbaa !35
  %384 = add nsw i32 %379, 1
  store i32 %384, i32* %7, align 4, !tbaa !35
  %385 = getelementptr inbounds i32, i32* %235, i64 %380
  store i32 %383, i32* %385, align 4, !tbaa !35
  br label %388

386:                                              ; preds = %366
  %387 = add nsw i32 %367, 1
  store i32 %387, i32* %7, align 4, !tbaa !35
  br label %388

388:                                              ; preds = %360, %386, %377
  %389 = add nuw nsw i64 %361, 1
  %390 = icmp eq i64 %389, %359
  br i1 %390, label %391, label %360, !llvm.loop !62

391:                                              ; preds = %388, %356
  %392 = load i32, i32* %7, align 4, !tbaa !35
  %393 = xor i1 %70, true
  %394 = icmp eq i32* %246, null
  %395 = select i1 %393, i1 true, i1 %394
  br i1 %395, label %398, label %396

396:                                              ; preds = %391
  %397 = bitcast i32* %246 to i8*
  call void @_ZdaPv(i8* %397) #20
  br label %398

398:                                              ; preds = %396, %391
  %399 = icmp eq i32* %256, null
  %400 = select i1 %393, i1 true, i1 %399
  br i1 %400, label %403, label %401

401:                                              ; preds = %398
  %402 = bitcast i32* %256 to i8*
  call void @_ZdaPv(i8* %402) #20
  br label %403

403:                                              ; preds = %401, %398
  %404 = add nsw i32 %1, 100
  %405 = sext i32 %404 to i64
  %406 = call { i64, i1 } @llvm.umul.with.overflow.i64(i64 %405, i64 4)
  %407 = extractvalue { i64, i1 } %406, 1
  %408 = extractvalue { i64, i1 } %406, 0
  %409 = select i1 %407, i64 -1, i64 %408
  %410 = call noalias nonnull i8* @_Znam(i64 %409) #23
  %411 = bitcast i8* %410 to i32*
  %412 = add i32 %59, -1
  %413 = add i32 %412, %50
  %414 = getelementptr inbounds %class.HYPRE_SlideReduction, %class.HYPRE_SlideReduction* %0, i64 0, i32 11
  %415 = bitcast i32** %8 to i8**
  %416 = bitcast double** %12 to i8**
  %417 = getelementptr inbounds %class.HYPRE_SlideReduction, %class.HYPRE_SlideReduction* %0, i64 0, i32 18
  %418 = getelementptr inbounds %class.HYPRE_SlideReduction, %class.HYPRE_SlideReduction* %0, i64 0, i32 17
  %419 = add i32 %59, -1
  %420 = add i32 %419, %50
  %421 = getelementptr inbounds %class.HYPRE_SlideReduction, %class.HYPRE_SlideReduction* %0, i64 0, i32 15
  %422 = getelementptr inbounds %class.HYPRE_SlideReduction, %class.HYPRE_SlideReduction* %0, i64 0, i32 16
  %423 = icmp sgt i32 %1, 0
  %424 = getelementptr inbounds %class.HYPRE_SlideReduction, %class.HYPRE_SlideReduction* %0, i64 0, i32 9
  %425 = getelementptr inbounds %class.HYPRE_SlideReduction, %class.HYPRE_SlideReduction* %0, i64 0, i32 9
  %426 = add i32 %59, -1
  %427 = add i32 %426, %50
  %428 = getelementptr inbounds %class.HYPRE_SlideReduction, %class.HYPRE_SlideReduction* %0, i64 0, i32 15
  %429 = getelementptr inbounds %class.HYPRE_SlideReduction, %class.HYPRE_SlideReduction* %0, i64 0, i32 16
  %430 = icmp sgt i32 %59, 0
  %431 = icmp sgt i32 %1, 0
  %432 = getelementptr inbounds %class.HYPRE_SlideReduction, %class.HYPRE_SlideReduction* %0, i64 0, i32 15
  %433 = getelementptr inbounds %class.HYPRE_SlideReduction, %class.HYPRE_SlideReduction* %0, i64 0, i32 16
  %434 = getelementptr inbounds %class.HYPRE_SlideReduction, %class.HYPRE_SlideReduction* %0, i64 0, i32 17
  %435 = icmp sgt i32 %1, 0
  %436 = getelementptr inbounds %class.HYPRE_SlideReduction, %class.HYPRE_SlideReduction* %0, i64 0, i32 9
  %437 = getelementptr inbounds %class.HYPRE_SlideReduction, %class.HYPRE_SlideReduction* %0, i64 0, i32 9
  %438 = icmp sgt i32 %1, 0
  %439 = getelementptr inbounds %class.HYPRE_SlideReduction, %class.HYPRE_SlideReduction* %0, i64 0, i32 9
  %440 = icmp sgt i32 %59, 0
  br i1 %440, label %441, label %921

441:                                              ; preds = %403
  %442 = sub i32 %56, %58
  %443 = add i32 %58, %48
  %444 = xor i32 %56, -1
  %445 = add i32 %443, %444
  %446 = sext i32 %445 to i64
  %447 = sext i32 %49 to i64
  %448 = zext i32 %1 to i64
  %449 = zext i32 %1 to i64
  %450 = zext i32 %442 to i64
  %451 = zext i32 %1 to i64
  %452 = zext i32 %1 to i64
  br label %453

453:                                              ; preds = %441, %918
  %454 = phi i64 [ %446, %441 ], [ %456, %918 ]
  %455 = phi i32 [ undef, %441 ], [ %919, %918 ]
  %456 = add nsw i64 %454, 1
  %457 = trunc i64 %456 to i32
  %458 = add i32 %413, %457
  %459 = load i32*, i32** %414, align 8, !tbaa !18
  %460 = sext i32 %458 to i64
  %461 = getelementptr inbounds i32, i32* %459, i64 %460
  %462 = load i32, i32* %461, align 4, !tbaa !35
  %463 = icmp eq i32 %462, -1
  br i1 %463, label %464, label %918

464:                                              ; preds = %453
  %465 = load %struct.hypre_ParCSRMatrix_struct*, %struct.hypre_ParCSRMatrix_struct** %14, align 8, !tbaa !34
  %466 = trunc i64 %456 to i32
  %467 = call i32 @HYPRE_ParCSRMatrixGetRow(%struct.hypre_ParCSRMatrix_struct* %465, i32 %466, i32* nonnull %9, i32** nonnull %10, double** nonnull %13)
  %468 = load i32, i32* %9, align 4, !tbaa !35
  store i32 %468, i32* %6, align 4, !tbaa !35
  %469 = sext i32 %468 to i64
  %470 = call { i64, i1 } @llvm.umul.with.overflow.i64(i64 %469, i64 4)
  %471 = extractvalue { i64, i1 } %470, 1
  %472 = extractvalue { i64, i1 } %470, 0
  %473 = select i1 %471, i64 -1, i64 %472
  %474 = call noalias nonnull i8* @_Znam(i64 %473) #23
  store i8* %474, i8** %415, align 8, !tbaa !34
  %475 = call { i64, i1 } @llvm.umul.with.overflow.i64(i64 %469, i64 8)
  %476 = extractvalue { i64, i1 } %475, 1
  %477 = extractvalue { i64, i1 } %475, 0
  %478 = select i1 %476, i64 -1, i64 %477
  %479 = call noalias nonnull i8* @_Znam(i64 %478) #23
  store i8* %479, i8** %416, align 8, !tbaa !34
  %480 = load i32*, i32** %10, align 8
  %481 = load i32*, i32** %8, align 8
  %482 = load double*, double** %13, align 8
  %483 = bitcast i8* %479 to double*
  %484 = load i32, i32* %6, align 4, !tbaa !35
  %485 = icmp sgt i32 %484, 0
  br i1 %485, label %486, label %498

486:                                              ; preds = %464, %486
  %487 = phi i64 [ %494, %486 ], [ 0, %464 ]
  %488 = getelementptr inbounds i32, i32* %480, i64 %487
  %489 = load i32, i32* %488, align 4, !tbaa !35
  %490 = getelementptr inbounds i32, i32* %481, i64 %487
  store i32 %489, i32* %490, align 4, !tbaa !35
  %491 = getelementptr inbounds double, double* %482, i64 %487
  %492 = load double, double* %491, align 8, !tbaa !41
  %493 = getelementptr inbounds double, double* %483, i64 %487
  store double %492, double* %493, align 8, !tbaa !41
  %494 = add nuw nsw i64 %487, 1
  %495 = load i32, i32* %6, align 4, !tbaa !35
  %496 = sext i32 %495 to i64
  %497 = icmp slt i64 %494, %496
  br i1 %497, label %486, label %498, !llvm.loop !63

498:                                              ; preds = %486, %464
  %499 = load %struct.hypre_ParCSRMatrix_struct*, %struct.hypre_ParCSRMatrix_struct** %14, align 8, !tbaa !34
  %500 = trunc i64 %456 to i32
  %501 = call i32 @HYPRE_ParCSRMatrixRestoreRow(%struct.hypre_ParCSRMatrix_struct* %499, i32 %500, i32* nonnull %9, i32** nonnull %10, double** nonnull %13)
  %502 = load double, double* %417, align 8, !tbaa !13
  %503 = load i32, i32* %6, align 4, !tbaa !35
  %504 = icmp sgt i32 %503, 0
  br i1 %504, label %505, label %631

505:                                              ; preds = %498
  %506 = trunc i64 %456 to i32
  %507 = trunc i64 %456 to i32
  %508 = trunc i64 %456 to i32
  br label %509

509:                                              ; preds = %505, %623
  %510 = phi i64 [ %627, %623 ], [ 0, %505 ]
  %511 = phi double [ %626, %623 ], [ %502, %505 ]
  %512 = phi i32 [ %625, %623 ], [ %455, %505 ]
  %513 = phi i32 [ %624, %623 ], [ -1, %505 ]
  %514 = load i32*, i32** %8, align 8, !tbaa !34
  %515 = getelementptr inbounds i32, i32* %514, i64 %510
  %516 = load i32, i32* %515, align 4, !tbaa !35
  %517 = load double*, double** %12, align 8, !tbaa !34
  %518 = getelementptr inbounds double, double* %517, i64 %510
  %519 = load double, double* %518, align 8, !tbaa !41
  %520 = fcmp oeq double %519, 0.000000e+00
  %521 = icmp slt i32 %516, %44
  %522 = select i1 %520, i1 true, i1 %521
  %523 = icmp sgt i32 %516, %60
  %524 = select i1 %522, i1 true, i1 %523
  br i1 %524, label %623, label %525

525:                                              ; preds = %509
  %526 = call i32 @hypre_BinarySearch(i32* %235, i32 %516, i32 %392)
  %527 = icmp sgt i32 %526, -1
  br i1 %527, label %528, label %623

528:                                              ; preds = %525
  %529 = load i32*, i32** %418, align 8, !tbaa !20
  %530 = sub nsw i32 %516, %44
  %531 = sext i32 %530 to i64
  %532 = getelementptr inbounds i32, i32* %529, i64 %531
  %533 = load i32, i32* %532, align 4, !tbaa !35
  %534 = icmp eq i32 %533, 1
  br i1 %534, label %623, label %535

535:                                              ; preds = %528
  %536 = load i32*, i32** %414, align 8
  %537 = load i32*, i32** %421, align 8
  %538 = load i32*, i32** %422, align 8
  br i1 %423, label %539, label %591

539:                                              ; preds = %535
  %540 = sext i32 %526 to i64
  %541 = getelementptr inbounds i32*, i32** %234, i64 %540
  %542 = load i32*, i32** %541, align 8, !tbaa !34
  br label %543

543:                                              ; preds = %539, %586
  %544 = phi i64 [ 0, %539 ], [ %589, %586 ]
  %545 = phi i32 [ 0, %539 ], [ %588, %586 ]
  %546 = phi i32 [ 1, %539 ], [ %587, %586 ]
  %547 = getelementptr inbounds i32, i32* %542, i64 %544
  %548 = load i32, i32* %547, align 4, !tbaa !35
  %549 = icmp eq i32 %548, -1
  %550 = icmp eq i32 %548, %506
  %551 = select i1 %549, i1 true, i1 %550
  br i1 %551, label %586, label %552

552:                                              ; preds = %543
  %553 = add i32 %420, %548
  %554 = sext i32 %553 to i64
  %555 = getelementptr inbounds i32, i32* %536, i64 %554
  %556 = load i32, i32* %555, align 4, !tbaa !35
  %557 = icmp eq i32 %556, -1
  br i1 %557, label %586, label %558

558:                                              ; preds = %552
  %559 = icmp sgt i32 %545, 0
  br i1 %559, label %560, label %574

560:                                              ; preds = %558
  %561 = getelementptr inbounds i32, i32* %537, i64 %554
  %562 = load i32, i32* %561, align 4, !tbaa !35
  %563 = zext i32 %545 to i64
  br label %564

564:                                              ; preds = %560, %569
  %565 = phi i64 [ 0, %560 ], [ %570, %569 ]
  %566 = getelementptr inbounds i32, i32* %411, i64 %565
  %567 = load i32, i32* %566, align 4, !tbaa !35
  %568 = icmp eq i32 %567, %562
  br i1 %568, label %572, label %569

569:                                              ; preds = %564
  %570 = add nuw nsw i64 %565, 1
  %571 = icmp eq i64 %570, %563
  br i1 %571, label %574, label %564, !llvm.loop !64

572:                                              ; preds = %564
  %573 = trunc i64 %565 to i32
  br label %574

574:                                              ; preds = %572, %569, %558
  %575 = phi i32 [ 0, %558 ], [ %573, %572 ], [ %545, %569 ]
  %576 = icmp eq i32 %575, %545
  br i1 %576, label %577, label %586

577:                                              ; preds = %574
  %578 = getelementptr inbounds i32, i32* %538, i64 %554
  %579 = load i32, i32* %578, align 4, !tbaa !35
  %580 = add nsw i32 %579, %546
  %581 = getelementptr inbounds i32, i32* %537, i64 %554
  %582 = load i32, i32* %581, align 4, !tbaa !35
  %583 = sext i32 %545 to i64
  %584 = getelementptr inbounds i32, i32* %411, i64 %583
  store i32 %582, i32* %584, align 4, !tbaa !35
  %585 = add nsw i32 %545, 1
  br label %586

586:                                              ; preds = %543, %574, %577, %552
  %587 = phi i32 [ %580, %577 ], [ %546, %574 ], [ %546, %552 ], [ %546, %543 ]
  %588 = phi i32 [ %585, %577 ], [ %545, %574 ], [ %545, %552 ], [ %545, %543 ]
  %589 = add nuw nsw i64 %544, 1
  %590 = icmp eq i64 %589, %448
  br i1 %590, label %591, label %543, !llvm.loop !65

591:                                              ; preds = %586, %535
  %592 = phi i32 [ 1, %535 ], [ %587, %586 ]
  %593 = phi i32 [ 0, %535 ], [ %588, %586 ]
  %594 = load i32, i32* %424, align 8, !tbaa !12
  %595 = and i32 %594, 2
  %596 = icmp eq i32 %595, 0
  br i1 %596, label %604, label %597

597:                                              ; preds = %591
  %598 = load i32, i32* %3, align 4, !tbaa !35
  %599 = sext i32 %526 to i64
  %600 = getelementptr inbounds i32, i32* %235, i64 %599
  %601 = load i32, i32* %600, align 4, !tbaa !35
  %602 = call i32 (i8*, ...) @printf(i8* nonnull dereferenceable(1) getelementptr inbounds ([41 x i8], [41 x i8]* @.str.19, i64 0, i64 0), i32 %598, i32 %507, i32 %526, i32 %601)
  %603 = call i32 (i8*, ...) @printf(i8* nonnull dereferenceable(1) getelementptr inbounds ([20 x i8], [20 x i8]* @.str.20, i64 0, i64 0), i32 %592)
  br label %604

604:                                              ; preds = %597, %591
  %605 = icmp sgt i32 %592, %1
  br i1 %605, label %623, label %606

606:                                              ; preds = %604
  %607 = call double @_ZN20HYPRE_SlideReduction13matrixCondEstEiiPii(%class.HYPRE_SlideReduction* nonnull align 8 dereferenceable(184) %0, i32 %508, i32 %516, i32* nonnull %411, i32 %593)
  %608 = load i32, i32* %424, align 8, !tbaa !12
  %609 = and i32 %608, 2
  %610 = icmp eq i32 %609, 0
  br i1 %610, label %614, label %611

611:                                              ; preds = %606
  %612 = load i32, i32* %3, align 4, !tbaa !35
  %613 = call i32 (i8*, ...) @printf(i8* nonnull dereferenceable(1) getelementptr inbounds ([28 x i8], [28 x i8]* @.str.21, i64 0, i64 0), i32 %612, double %607, double %511, i32 %592)
  br label %614

614:                                              ; preds = %611, %606
  %615 = fcmp ogt double %607, %511
  br i1 %615, label %616, label %623

616:                                              ; preds = %614
  %617 = load double*, double** %12, align 8, !tbaa !34
  %618 = getelementptr inbounds double, double* %617, i64 %510
  %619 = load double, double* %618, align 8, !tbaa !41
  %620 = fcmp ogt double %619, 0.000000e+00
  %621 = fneg double %619
  %622 = select i1 %620, double %619, double %621
  br label %623

623:                                              ; preds = %616, %509, %604, %614, %528, %525
  %624 = phi i32 [ %513, %614 ], [ %513, %604 ], [ %513, %528 ], [ %513, %525 ], [ %513, %509 ], [ %516, %616 ]
  %625 = phi i32 [ %512, %614 ], [ %512, %604 ], [ %512, %528 ], [ %512, %525 ], [ %512, %509 ], [ %592, %616 ]
  %626 = phi double [ %511, %614 ], [ %511, %604 ], [ %511, %528 ], [ %511, %525 ], [ %511, %509 ], [ %622, %616 ]
  %627 = add nuw nsw i64 %510, 1
  %628 = load i32, i32* %6, align 4, !tbaa !35
  %629 = sext i32 %628 to i64
  %630 = icmp slt i64 %627, %629
  br i1 %630, label %509, label %631, !llvm.loop !66

631:                                              ; preds = %623, %498
  %632 = phi i32 [ -1, %498 ], [ %624, %623 ]
  %633 = phi i32 [ %455, %498 ], [ %625, %623 ]
  %634 = phi double [ %502, %498 ], [ %626, %623 ]
  %635 = load i32*, i32** %8, align 8, !tbaa !34
  %636 = icmp eq i32* %635, null
  br i1 %636, label %639, label %637

637:                                              ; preds = %631
  %638 = bitcast i32* %635 to i8*
  call void @_ZdaPv(i8* %638) #20
  br label %639

639:                                              ; preds = %637, %631
  %640 = load double*, double** %12, align 8, !tbaa !34
  %641 = icmp eq double* %640, null
  br i1 %641, label %644, label %642

642:                                              ; preds = %639
  %643 = bitcast double* %640 to i8*
  call void @_ZdaPv(i8* %643) #20
  br label %644

644:                                              ; preds = %642, %639
  %645 = icmp sgt i32 %632, -1
  %646 = load double, double* %417, align 8
  %647 = fcmp ogt double %634, %646
  %648 = select i1 %645, i1 %647, i1 false
  br i1 %648, label %649, label %805

649:                                              ; preds = %644
  %650 = call i32 @hypre_BinarySearch(i32* %235, i32 %632, i32 %392)
  %651 = load i32*, i32** %414, align 8
  %652 = load i32*, i32** %428, align 8
  br i1 %431, label %653, label %696

653:                                              ; preds = %649
  %654 = sext i32 %650 to i64
  %655 = getelementptr inbounds i32*, i32** %234, i64 %654
  %656 = load i32*, i32** %655, align 8, !tbaa !34
  %657 = trunc i64 %456 to i32
  br label %658

658:                                              ; preds = %653, %692
  %659 = phi i64 [ 0, %653 ], [ %694, %692 ]
  %660 = phi i32 [ -9, %653 ], [ %693, %692 ]
  %661 = getelementptr inbounds i32, i32* %656, i64 %659
  %662 = load i32, i32* %661, align 4, !tbaa !35
  %663 = icmp eq i32 %662, -1
  %664 = icmp eq i32 %662, %657
  %665 = select i1 %663, i1 true, i1 %664
  br i1 %665, label %692, label %666

666:                                              ; preds = %658
  %667 = add i32 %427, %662
  %668 = sext i32 %667 to i64
  %669 = getelementptr inbounds i32, i32* %651, i64 %668
  %670 = load i32, i32* %669, align 4, !tbaa !35
  %671 = icmp eq i32 %670, -1
  br i1 %671, label %692, label %672

672:                                              ; preds = %666
  %673 = icmp eq i32 %660, -9
  br i1 %673, label %674, label %677

674:                                              ; preds = %672
  %675 = getelementptr inbounds i32, i32* %652, i64 %668
  %676 = load i32, i32* %675, align 4, !tbaa !35
  br label %677

677:                                              ; preds = %674, %672
  %678 = phi i32 [ %676, %674 ], [ %660, %672 ]
  %679 = getelementptr inbounds i32, i32* %652, i64 %668
  %680 = load i32, i32* %679, align 4, !tbaa !35
  %681 = load i32*, i32** %429, align 8
  br i1 %430, label %682, label %692

682:                                              ; preds = %677, %689
  %683 = phi i64 [ %690, %689 ], [ 0, %677 ]
  %684 = getelementptr inbounds i32, i32* %652, i64 %683
  %685 = load i32, i32* %684, align 4, !tbaa !35
  %686 = icmp eq i32 %685, %680
  br i1 %686, label %687, label %689

687:                                              ; preds = %682
  store i32 %678, i32* %684, align 4, !tbaa !35
  %688 = getelementptr inbounds i32, i32* %681, i64 %683
  store i32 %633, i32* %688, align 4, !tbaa !35
  br label %689

689:                                              ; preds = %682, %687
  %690 = add nuw nsw i64 %683, 1
  %691 = icmp eq i64 %690, %450
  br i1 %691, label %692, label %682, !llvm.loop !67

692:                                              ; preds = %689, %677, %658, %666
  %693 = phi i32 [ %660, %666 ], [ %660, %658 ], [ %678, %677 ], [ %678, %689 ]
  %694 = add nuw nsw i64 %659, 1
  %695 = icmp eq i64 %694, %449
  br i1 %695, label %696, label %658, !llvm.loop !68

696:                                              ; preds = %692, %649
  %697 = phi i32 [ -9, %649 ], [ %693, %692 ]
  %698 = icmp eq i32 %697, -9
  %699 = select i1 %698, i32 %458, i32 %697
  %700 = load i32*, i32** %432, align 8, !tbaa !23
  %701 = getelementptr inbounds i32, i32* %700, i64 %460
  store i32 %699, i32* %701, align 4, !tbaa !35
  %702 = load i32*, i32** %433, align 8, !tbaa !24
  %703 = getelementptr inbounds i32, i32* %702, i64 %460
  store i32 %633, i32* %703, align 4, !tbaa !35
  %704 = load i32*, i32** %414, align 8, !tbaa !18
  %705 = getelementptr inbounds i32, i32* %704, i64 %460
  store i32 %632, i32* %705, align 4, !tbaa !35
  %706 = call i32 @hypre_BinarySearch(i32* %235, i32 %632, i32 %392)
  %707 = load i32*, i32** %434, align 8, !tbaa !20
  %708 = sub nsw i32 %632, %44
  %709 = sext i32 %708 to i64
  %710 = getelementptr inbounds i32, i32* %707, i64 %709
  store i32 1, i32* %710, align 4, !tbaa !35
  %711 = sext i32 %706 to i64
  %712 = getelementptr inbounds i32*, i32** %234, i64 %711
  br i1 %438, label %713, label %797

713:                                              ; preds = %696
  %714 = trunc i64 %456 to i32
  %715 = trunc i64 %456 to i32
  %716 = trunc i64 %456 to i32
  br label %717

717:                                              ; preds = %713, %794
  %718 = phi i64 [ 0, %713 ], [ %795, %794 ]
  %719 = load i32*, i32** %712, align 8, !tbaa !34
  %720 = getelementptr inbounds i32, i32* %719, i64 %718
  %721 = load i32, i32* %720, align 4, !tbaa !35
  %722 = icmp eq i32 %721, -1
  br i1 %722, label %794, label %723

723:                                              ; preds = %717
  %724 = load %struct.hypre_ParCSRMatrix_struct*, %struct.hypre_ParCSRMatrix_struct** %14, align 8, !tbaa !34
  %725 = call i32 @HYPRE_ParCSRMatrixGetRow(%struct.hypre_ParCSRMatrix_struct* %724, i32 %721, i32* nonnull %9, i32** nonnull %10, double** nonnull %13)
  %726 = load i32, i32* %9, align 4, !tbaa !35
  %727 = icmp sgt i32 %726, 0
  br i1 %727, label %728, label %791

728:                                              ; preds = %723, %786
  %729 = phi i64 [ %787, %786 ], [ 0, %723 ]
  %730 = load i32*, i32** %10, align 8, !tbaa !34
  %731 = getelementptr inbounds i32, i32* %730, i64 %729
  %732 = load i32, i32* %731, align 4, !tbaa !35
  %733 = call i32 @hypre_BinarySearch(i32* %235, i32 %732, i32 %392)
  %734 = icmp sgt i32 %733, -1
  br i1 %734, label %735, label %786

735:                                              ; preds = %728
  br i1 %435, label %736, label %752

736:                                              ; preds = %735
  %737 = sext i32 %733 to i64
  %738 = getelementptr inbounds i32*, i32** %234, i64 %737
  %739 = load i32*, i32** %738, align 8, !tbaa !34
  br label %740

740:                                              ; preds = %736, %747
  %741 = phi i64 [ 0, %736 ], [ %748, %747 ]
  %742 = getelementptr inbounds i32, i32* %739, i64 %741
  %743 = load i32, i32* %742, align 4, !tbaa !35
  %744 = icmp eq i32 %743, %714
  %745 = icmp eq i32 %743, -1
  %746 = or i1 %744, %745
  br i1 %746, label %750, label %747

747:                                              ; preds = %740
  %748 = add nuw nsw i64 %741, 1
  %749 = icmp eq i64 %748, %452
  br i1 %749, label %752, label %740, !llvm.loop !69

750:                                              ; preds = %740
  %751 = trunc i64 %741 to i32
  br label %752

752:                                              ; preds = %750, %747, %735
  %753 = phi i32 [ 0, %735 ], [ %751, %750 ], [ %1, %747 ]
  %754 = icmp eq i32 %753, %1
  %755 = sext i32 %733 to i64
  %756 = getelementptr inbounds i32*, i32** %234, i64 %755
  %757 = load i32*, i32** %756, align 8, !tbaa !34
  br i1 %754, label %758, label %773

758:                                              ; preds = %752
  store i32 -5, i32* %757, align 4, !tbaa !35
  %759 = load i32*, i32** %434, align 8, !tbaa !20
  %760 = load i32*, i32** %10, align 8, !tbaa !34
  %761 = getelementptr inbounds i32, i32* %760, i64 %729
  %762 = load i32, i32* %761, align 4, !tbaa !35
  %763 = sub nsw i32 %762, %44
  %764 = sext i32 %763 to i64
  %765 = getelementptr inbounds i32, i32* %759, i64 %764
  store i32 1, i32* %765, align 4, !tbaa !35
  %766 = load i32, i32* %437, align 8, !tbaa !12
  %767 = and i32 %766, 3
  %768 = icmp eq i32 %767, 3
  br i1 %768, label %769, label %786

769:                                              ; preds = %758
  %770 = getelementptr inbounds i32, i32* %235, i64 %755
  %771 = load i32, i32* %770, align 4, !tbaa !35
  %772 = call i32 (i8*, ...) @printf(i8* nonnull dereferenceable(1) getelementptr inbounds ([31 x i8], [31 x i8]* @.str.22, i64 0, i64 0), i32 %771)
  br label %786

773:                                              ; preds = %752
  %774 = zext i32 %753 to i64
  %775 = getelementptr inbounds i32, i32* %757, i64 %774
  %776 = load i32, i32* %775, align 4, !tbaa !35
  %777 = icmp eq i32 %776, -1
  br i1 %777, label %778, label %786

778:                                              ; preds = %773
  store i32 %715, i32* %775, align 4, !tbaa !35
  %779 = load i32, i32* %436, align 8, !tbaa !12
  %780 = and i32 %779, 3
  %781 = icmp eq i32 %780, 3
  br i1 %781, label %782, label %786

782:                                              ; preds = %778
  %783 = getelementptr inbounds i32, i32* %235, i64 %755
  %784 = load i32, i32* %783, align 4, !tbaa !35
  %785 = call i32 (i8*, ...) @printf(i8* nonnull dereferenceable(1) getelementptr inbounds ([40 x i8], [40 x i8]* @.str.23, i64 0, i64 0), i32 %784, i32 %716)
  br label %786

786:                                              ; preds = %728, %773, %782, %778, %758, %769
  %787 = add nuw nsw i64 %729, 1
  %788 = load i32, i32* %9, align 4, !tbaa !35
  %789 = sext i32 %788 to i64
  %790 = icmp slt i64 %787, %789
  br i1 %790, label %728, label %791, !llvm.loop !70

791:                                              ; preds = %786, %723
  %792 = load %struct.hypre_ParCSRMatrix_struct*, %struct.hypre_ParCSRMatrix_struct** %14, align 8, !tbaa !34
  %793 = call i32 @HYPRE_ParCSRMatrixRestoreRow(%struct.hypre_ParCSRMatrix_struct* %792, i32 %721, i32* nonnull %9, i32** nonnull %10, double** nonnull %13)
  br label %794

794:                                              ; preds = %717, %791
  %795 = add nuw nsw i64 %718, 1
  %796 = icmp eq i64 %795, %451
  br i1 %796, label %797, label %717, !llvm.loop !71

797:                                              ; preds = %794, %696
  %798 = load i32, i32* %439, align 8, !tbaa !12
  %799 = and i32 %798, 2
  %800 = icmp eq i32 %799, 0
  br i1 %800, label %918, label %801

801:                                              ; preds = %797
  %802 = load i32, i32* %3, align 4, !tbaa !35
  %803 = trunc i64 %456 to i32
  %804 = call i32 (i8*, ...) @printf(i8* nonnull dereferenceable(1) getelementptr inbounds ([56 x i8], [56 x i8]* @.str.24, i64 0, i64 0), i32 %802, i32 %803, i32 %632, i32 %699)
  br label %918

805:                                              ; preds = %644
  %806 = load i32, i32* %425, align 8, !tbaa !12
  %807 = and i32 %806, 2
  %808 = icmp eq i32 %807, 0
  br i1 %808, label %918, label %809

809:                                              ; preds = %805
  %810 = icmp slt i32 %632, 0
  %811 = select i1 %810, i1 %647, i1 false
  br i1 %811, label %812, label %816

812:                                              ; preds = %809
  %813 = load i32, i32* %3, align 4, !tbaa !35
  %814 = trunc i64 %456 to i32
  %815 = call i32 (i8*, ...) @printf(i8* nonnull dereferenceable(1) getelementptr inbounds ([52 x i8], [52 x i8]* @.str.25, i64 0, i64 0), i32 %813, i32 %814)
  br label %826

816:                                              ; preds = %809
  %817 = xor i1 %645, true
  %818 = fcmp ugt double %634, %646
  %819 = select i1 %817, i1 true, i1 %818
  %820 = load i32, i32* %3, align 4, !tbaa !35
  %821 = trunc i64 %456 to i32
  br i1 %819, label %824, label %822

822:                                              ; preds = %816
  %823 = call i32 (i8*, ...) @printf(i8* nonnull dereferenceable(1) getelementptr inbounds ([52 x i8], [52 x i8]* @.str.26, i64 0, i64 0), i32 %820, i32 %821)
  br label %826

824:                                              ; preds = %816
  %825 = call i32 (i8*, ...) @printf(i8* nonnull dereferenceable(1) getelementptr inbounds ([52 x i8], [52 x i8]* @.str.27, i64 0, i64 0), i32 %820, i32 %821)
  br label %826

826:                                              ; preds = %822, %824, %812
  %827 = phi i8* [ getelementptr inbounds ([18 x i8], [18 x i8]* @str.108, i64 0, i64 0), %822 ], [ getelementptr inbounds ([18 x i8], [18 x i8]* @str.108, i64 0, i64 0), %824 ], [ getelementptr inbounds ([18 x i8], [18 x i8]* @str.108, i64 0, i64 0), %812 ]
  %828 = call i32 @puts(i8* nonnull dereferenceable(1) %827)
  %829 = load i32, i32* %425, align 8, !tbaa !12
  %830 = and i32 %829, 3
  %831 = icmp eq i32 %830, 3
  br i1 %831, label %832, label %918

832:                                              ; preds = %826
  %833 = load %struct.hypre_ParCSRMatrix_struct*, %struct.hypre_ParCSRMatrix_struct** %14, align 8, !tbaa !34
  %834 = trunc i64 %456 to i32
  %835 = call i32 @HYPRE_ParCSRMatrixGetRow(%struct.hypre_ParCSRMatrix_struct* %833, i32 %834, i32* nonnull %6, i32** nonnull %8, double** nonnull %12)
  %836 = load i32, i32* %6, align 4, !tbaa !35
  %837 = sext i32 %836 to i64
  %838 = call { i64, i1 } @llvm.umul.with.overflow.i64(i64 %837, i64 4)
  %839 = extractvalue { i64, i1 } %838, 1
  %840 = extractvalue { i64, i1 } %838, 0
  %841 = select i1 %839, i64 -1, i64 %840
  %842 = call noalias nonnull i8* @_Znam(i64 %841) #23
  %843 = bitcast i8* %842 to i32*
  store i32 %836, i32* %9, align 4, !tbaa !35
  %844 = load i32*, i32** %8, align 8
  %845 = icmp sgt i32 %836, 0
  br i1 %845, label %846, label %855

846:                                              ; preds = %832
  %847 = zext i32 %836 to i64
  br label %848

848:                                              ; preds = %846, %848
  %849 = phi i64 [ 0, %846 ], [ %853, %848 ]
  %850 = getelementptr inbounds i32, i32* %844, i64 %849
  %851 = load i32, i32* %850, align 4, !tbaa !35
  %852 = getelementptr inbounds i32, i32* %843, i64 %849
  store i32 %851, i32* %852, align 4, !tbaa !35
  %853 = add nuw nsw i64 %849, 1
  %854 = icmp eq i64 %853, %847
  br i1 %854, label %855, label %848, !llvm.loop !72

855:                                              ; preds = %848, %832
  %856 = load %struct.hypre_ParCSRMatrix_struct*, %struct.hypre_ParCSRMatrix_struct** %14, align 8, !tbaa !34
  %857 = trunc i64 %456 to i32
  %858 = call i32 @HYPRE_ParCSRMatrixRestoreRow(%struct.hypre_ParCSRMatrix_struct* %856, i32 %857, i32* nonnull %6, i32** nonnull %8, double** nonnull %12)
  %859 = load i32, i32* %9, align 4, !tbaa !35
  %860 = icmp sgt i32 %859, 0
  br i1 %860, label %861, label %917

861:                                              ; preds = %855
  %862 = trunc i64 %456 to i32
  br label %863

863:                                              ; preds = %861, %912
  %864 = phi i64 [ %913, %912 ], [ 0, %861 ]
  %865 = getelementptr inbounds i32, i32* %843, i64 %864
  %866 = load i32, i32* %865, align 4, !tbaa !35
  %867 = load i32, i32* %3, align 4, !tbaa !35
  %868 = load i32, i32* %6, align 4, !tbaa !35
  %869 = load i32*, i32** %5, align 8, !tbaa !34
  %870 = sext i32 %867 to i64
  %871 = getelementptr inbounds i32, i32* %869, i64 %870
  %872 = load i32, i32* %871, align 4, !tbaa !35
  %873 = add nsw i32 %867, 1
  %874 = sext i32 %873 to i64
  %875 = getelementptr inbounds i32, i32* %869, i64 %874
  %876 = load i32, i32* %875, align 4, !tbaa !35
  %877 = trunc i64 %864 to i32
  %878 = call i32 (i8*, ...) @printf(i8* nonnull dereferenceable(1) getelementptr inbounds ([41 x i8], [41 x i8]* @.str.28, i64 0, i64 0), i32 %867, i32 %862, i32 %866, i32 %877, i32 %868, i32 %872, i32 %876)
  %879 = load i32*, i32** %5, align 8, !tbaa !34
  %880 = load i32, i32* %3, align 4, !tbaa !35
  %881 = sext i32 %880 to i64
  %882 = getelementptr inbounds i32, i32* %879, i64 %881
  %883 = load i32, i32* %882, align 4, !tbaa !35
  %884 = icmp slt i32 %866, %883
  br i1 %884, label %912, label %885

885:                                              ; preds = %863
  %886 = add nsw i32 %880, 1
  %887 = sext i32 %886 to i64
  %888 = getelementptr inbounds i32, i32* %879, i64 %887
  %889 = load i32, i32* %888, align 4, !tbaa !35
  %890 = icmp slt i32 %866, %889
  br i1 %890, label %891, label %912

891:                                              ; preds = %885
  %892 = load %struct.hypre_ParCSRMatrix_struct*, %struct.hypre_ParCSRMatrix_struct** %14, align 8, !tbaa !34
  %893 = call i32 @HYPRE_ParCSRMatrixGetRow(%struct.hypre_ParCSRMatrix_struct* %892, i32 %866, i32* nonnull %6, i32** nonnull %8, double** null)
  %894 = load i32, i32* %6, align 4, !tbaa !35
  %895 = icmp sgt i32 %894, 0
  br i1 %895, label %896, label %909

896:                                              ; preds = %891, %896
  %897 = phi i64 [ %905, %896 ], [ 0, %891 ]
  %898 = phi i32 [ %906, %896 ], [ %894, %891 ]
  %899 = load i32, i32* %3, align 4, !tbaa !35
  %900 = load i32*, i32** %8, align 8, !tbaa !34
  %901 = getelementptr inbounds i32, i32* %900, i64 %897
  %902 = load i32, i32* %901, align 4, !tbaa !35
  %903 = trunc i64 %897 to i32
  %904 = call i32 (i8*, ...) @printf(i8* nonnull dereferenceable(1) getelementptr inbounds ([37 x i8], [37 x i8]* @.str.29, i64 0, i64 0), i32 %899, i32 %866, i32 %902, i32 %903, i32 %898)
  %905 = add nuw nsw i64 %897, 1
  %906 = load i32, i32* %6, align 4, !tbaa !35
  %907 = sext i32 %906 to i64
  %908 = icmp slt i64 %905, %907
  br i1 %908, label %896, label %909, !llvm.loop !73

909:                                              ; preds = %896, %891
  %910 = load %struct.hypre_ParCSRMatrix_struct*, %struct.hypre_ParCSRMatrix_struct** %14, align 8, !tbaa !34
  %911 = call i32 @HYPRE_ParCSRMatrixRestoreRow(%struct.hypre_ParCSRMatrix_struct* %910, i32 %866, i32* nonnull %6, i32** nonnull %8, double** null)
  br label %912

912:                                              ; preds = %863, %885, %909
  %913 = add nuw nsw i64 %864, 1
  %914 = load i32, i32* %9, align 4, !tbaa !35
  %915 = sext i32 %914 to i64
  %916 = icmp slt i64 %913, %915
  br i1 %916, label %863, label %917, !llvm.loop !74

917:                                              ; preds = %912, %855
  call void @_ZdaPv(i8* %842) #20
  br label %918

918:                                              ; preds = %453, %805, %917, %826, %797, %801
  %919 = phi i32 [ %633, %801 ], [ %633, %797 ], [ %633, %917 ], [ %633, %826 ], [ %633, %805 ], [ %455, %453 ]
  %920 = icmp slt i64 %456, %447
  br i1 %920, label %453, label %921, !llvm.loop !75

921:                                              ; preds = %918, %403
  call void @_ZdaPv(i8* %410) #20
  br i1 %70, label %922, label %945

922:                                              ; preds = %921
  %923 = sub nsw i32 %52, %59
  %924 = icmp sgt i32 %923, 0
  br i1 %924, label %925, label %937

925:                                              ; preds = %922
  %926 = sext i32 %923 to i64
  br label %927

927:                                              ; preds = %925, %934
  %928 = phi i64 [ 0, %925 ], [ %935, %934 ]
  %929 = getelementptr inbounds i32*, i32** %234, i64 %928
  %930 = load i32*, i32** %929, align 8, !tbaa !34
  %931 = icmp eq i32* %930, null
  br i1 %931, label %934, label %932

932:                                              ; preds = %927
  %933 = bitcast i32* %930 to i8*
  call void @_ZdaPv(i8* %933) #20
  br label %934

934:                                              ; preds = %927, %932
  %935 = add nuw nsw i64 %928, 1
  %936 = icmp slt i64 %935, %926
  br i1 %936, label %927, label %937, !llvm.loop !76

937:                                              ; preds = %934, %922
  %938 = icmp eq i32** %234, null
  br i1 %938, label %941, label %939

939:                                              ; preds = %937
  %940 = bitcast i32** %234 to i8*
  call void @_ZdaPv(i8* %940) #20
  br label %941

941:                                              ; preds = %939, %937
  %942 = icmp eq i32* %235, null
  br i1 %942, label %945, label %943

943:                                              ; preds = %941
  %944 = bitcast i32* %235 to i8*
  call void @_ZdaPv(i8* %944) #20
  br label %945

945:                                              ; preds = %941, %943, %921
  %946 = bitcast i32** %5 to i8**
  %947 = load i8*, i8** %946, align 8, !tbaa !34
  call void @free(i8* %947) #22
  store i32 0, i32* %7, align 4, !tbaa !35
  %948 = getelementptr inbounds %class.HYPRE_SlideReduction, %class.HYPRE_SlideReduction* %0, i64 0, i32 11
  %949 = load i32*, i32** %948, align 8
  %950 = icmp sgt i32 %59, 0
  br i1 %950, label %951, label %965

951:                                              ; preds = %945
  %952 = sub i32 %56, %58
  %953 = zext i32 %952 to i64
  br label %954

954:                                              ; preds = %951, %962
  %955 = phi i64 [ 0, %951 ], [ %963, %962 ]
  %956 = getelementptr inbounds i32, i32* %949, i64 %955
  %957 = load i32, i32* %956, align 4, !tbaa !35
  %958 = icmp eq i32 %957, -1
  br i1 %958, label %959, label %962

959:                                              ; preds = %954
  %960 = load i32, i32* %7, align 4, !tbaa !35
  %961 = add nsw i32 %960, 1
  store i32 %961, i32* %7, align 4, !tbaa !35
  br label %962

962:                                              ; preds = %954, %959
  %963 = add nuw nsw i64 %955, 1
  %964 = icmp eq i64 %963, %953
  br i1 %964, label %965, label %954, !llvm.loop !77

965:                                              ; preds = %962, %945
  %966 = load i32, i32* %29, align 8, !tbaa !6
  %967 = call i32 @MPI_Allreduce(i8* nonnull %19, i8* nonnull %23, i32 1, i32 1275069445, i32 1476395011, i32 %966)
  %968 = load i32, i32* %11, align 4, !tbaa !35
  %969 = icmp sgt i32 %968, 0
  br i1 %969, label %970, label %1009

970:                                              ; preds = %965
  %971 = load i32, i32* %3, align 4, !tbaa !35
  %972 = icmp eq i32 %971, 0
  br i1 %972, label %973, label %982

973:                                              ; preds = %970
  %974 = getelementptr inbounds %class.HYPRE_SlideReduction, %class.HYPRE_SlideReduction* %0, i64 0, i32 9
  %975 = load i32, i32* %974, align 8, !tbaa !12
  %976 = and i32 %975, 3
  %977 = icmp eq i32 %976, 0
  br i1 %977, label %982, label %978

978:                                              ; preds = %973
  %979 = call i32 (i8*, ...) @printf(i8* nonnull dereferenceable(1) getelementptr inbounds ([61 x i8], [61 x i8]* @.str.30, i64 0, i64 0), i32 0)
  %980 = load i32, i32* %11, align 4, !tbaa !35
  %981 = call i32 (i8*, ...) @printf(i8* nonnull dereferenceable(1) getelementptr inbounds ([20 x i8], [20 x i8]* @.str.12, i64 0, i64 0), i32 %980)
  br label %982

982:                                              ; preds = %978, %973, %970
  %983 = getelementptr inbounds %class.HYPRE_SlideReduction, %class.HYPRE_SlideReduction* %0, i64 0, i32 9
  %984 = load i32, i32* %983, align 8, !tbaa !12
  %985 = and i32 %984, 3
  %986 = icmp eq i32 %985, 0
  br i1 %986, label %1009, label %987

987:                                              ; preds = %982
  %988 = getelementptr inbounds %class.HYPRE_SlideReduction, %class.HYPRE_SlideReduction* %0, i64 0, i32 11
  %989 = sub i32 %48, %59
  %990 = icmp sgt i32 %59, 0
  br i1 %990, label %991, label %1009

991:                                              ; preds = %987
  %992 = sub i32 %56, %58
  %993 = zext i32 %992 to i64
  br label %994

994:                                              ; preds = %991, %1006
  %995 = phi i64 [ 0, %991 ], [ %1007, %1006 ]
  %996 = load i32*, i32** %988, align 8, !tbaa !18
  %997 = getelementptr inbounds i32, i32* %996, i64 %995
  %998 = load i32, i32* %997, align 4, !tbaa !35
  %999 = icmp eq i32 %998, -1
  br i1 %999, label %1000, label %1006

1000:                                             ; preds = %994
  %1001 = load i32, i32* %3, align 4, !tbaa !35
  %1002 = call i32 (i8*, ...) @printf(i8* nonnull dereferenceable(1) getelementptr inbounds ([50 x i8], [50 x i8]* @.str.31, i64 0, i64 0), i32 %1001)
  %1003 = trunc i64 %995 to i32
  %1004 = add i32 %989, %1003
  %1005 = call i32 (i8*, ...) @printf(i8* nonnull dereferenceable(1) getelementptr inbounds ([16 x i8], [16 x i8]* @.str.14, i64 0, i64 0), i32 %1004)
  br label %1006

1006:                                             ; preds = %994, %1000
  %1007 = add nuw nsw i64 %995, 1
  %1008 = icmp eq i64 %1007, %993
  br i1 %1008, label %1009, label %994, !llvm.loop !78

1009:                                             ; preds = %1006, %987, %982, %965, %2
  %1010 = phi i32 [ -1, %2 ], [ -1, %982 ], [ 0, %965 ], [ -1, %987 ], [ -1, %1006 ]
  call void @llvm.lifetime.end.p0i8(i64 8, i8* nonnull %26) #22
  call void @llvm.lifetime.end.p0i8(i64 8, i8* nonnull %25) #22
  call void @llvm.lifetime.end.p0i8(i64 8, i8* nonnull %24) #22
  call void @llvm.lifetime.end.p0i8(i64 4, i8* nonnull %23) #22
  call void @llvm.lifetime.end.p0i8(i64 8, i8* nonnull %22) #22
  call void @llvm.lifetime.end.p0i8(i64 4, i8* nonnull %21) #22
  call void @llvm.lifetime.end.p0i8(i64 8, i8* nonnull %20) #22
  call void @llvm.lifetime.end.p0i8(i64 4, i8* nonnull %19) #22
  call void @llvm.lifetime.end.p0i8(i64 4, i8* nonnull %18) #22
  call void @llvm.lifetime.end.p0i8(i64 8, i8* nonnull %17) #22
  call void @llvm.lifetime.end.p0i8(i64 4, i8* nonnull %16) #22
  call void @llvm.lifetime.end.p0i8(i64 4, i8* nonnull %15) #22
  ret i32 %1010
}

; Function Attrs: mustprogress uwtable
define dso_local i32 @_ZN20HYPRE_SlideReduction17composeGlobalListEv(%class.HYPRE_SlideReduction* nocapture nonnull align 8 dereferenceable(184) %0) local_unnamed_addr #6 align 2 {
  %2 = alloca i32, align 4
  %3 = alloca i32, align 4
  %4 = alloca i32, align 4
  %5 = bitcast i32* %2 to i8*
  call void @llvm.lifetime.start.p0i8(i64 4, i8* nonnull %5) #22
  %6 = bitcast i32* %3 to i8*
  call void @llvm.lifetime.start.p0i8(i64 4, i8* nonnull %6) #22
  %7 = bitcast i32* %4 to i8*
  call void @llvm.lifetime.start.p0i8(i64 4, i8* nonnull %7) #22
  %8 = getelementptr inbounds %class.HYPRE_SlideReduction, %class.HYPRE_SlideReduction* %0, i64 0, i32 1
  %9 = load i32, i32* %8, align 8, !tbaa !6
  %10 = call i32 @MPI_Comm_rank(i32 %9, i32* nonnull %2)
  %11 = load i32, i32* %8, align 8, !tbaa !6
  %12 = call i32 @MPI_Comm_size(i32 %11, i32* nonnull %3)
  %13 = getelementptr inbounds %class.HYPRE_SlideReduction, %class.HYPRE_SlideReduction* %0, i64 0, i32 10
  %14 = load i32*, i32** %13, align 8, !tbaa !17
  %15 = load i32, i32* %2, align 4, !tbaa !35
  %16 = add nsw i32 %15, 1
  %17 = sext i32 %16 to i64
  %18 = getelementptr inbounds i32, i32* %14, i64 %17
  %19 = load i32, i32* %18, align 4, !tbaa !35
  %20 = sext i32 %15 to i64
  %21 = getelementptr inbounds i32, i32* %14, i64 %20
  %22 = load i32, i32* %21, align 4, !tbaa !35
  %23 = sub nsw i32 %19, %22
  store i32 %23, i32* %4, align 4, !tbaa !35
  %24 = load i32, i32* %3, align 4, !tbaa !35
  %25 = sext i32 %24 to i64
  %26 = getelementptr inbounds i32, i32* %14, i64 %25
  %27 = load i32, i32* %26, align 4, !tbaa !35
  %28 = getelementptr inbounds %class.HYPRE_SlideReduction, %class.HYPRE_SlideReduction* %0, i64 0, i32 12
  %29 = load i32*, i32** %28, align 8, !tbaa !19
  %30 = icmp eq i32* %29, null
  br i1 %30, label %33, label %31

31:                                               ; preds = %1
  %32 = bitcast i32* %29 to i8*
  call void @_ZdaPv(i8* %32) #20
  br label %33

33:                                               ; preds = %31, %1
  %34 = getelementptr inbounds %class.HYPRE_SlideReduction, %class.HYPRE_SlideReduction* %0, i64 0, i32 13
  %35 = load i32*, i32** %34, align 8, !tbaa !21
  %36 = icmp eq i32* %35, null
  br i1 %36, label %39, label %37

37:                                               ; preds = %33
  %38 = bitcast i32* %35 to i8*
  call void @_ZdaPv(i8* %38) #20
  br label %39

39:                                               ; preds = %37, %33
  %40 = getelementptr inbounds %class.HYPRE_SlideReduction, %class.HYPRE_SlideReduction* %0, i64 0, i32 14
  %41 = load i32*, i32** %40, align 8, !tbaa !22
  %42 = icmp eq i32* %41, null
  br i1 %42, label %45, label %43

43:                                               ; preds = %39
  %44 = bitcast i32* %41 to i8*
  call void @_ZdaPv(i8* %44) #20
  br label %45

45:                                               ; preds = %43, %39
  store i32* null, i32** %28, align 8, !tbaa !19
  %46 = load i32, i32* %4, align 4, !tbaa !35
  %47 = icmp sgt i32 %46, 0
  br i1 %47, label %48, label %114

48:                                               ; preds = %45
  %49 = sext i32 %46 to i64
  %50 = call { i64, i1 } @llvm.umul.with.overflow.i64(i64 %49, i64 4)
  %51 = extractvalue { i64, i1 } %50, 1
  %52 = extractvalue { i64, i1 } %50, 0
  %53 = select i1 %51, i64 -1, i64 %52
  %54 = call noalias nonnull i8* @_Znam(i64 %53) #23
  %55 = bitcast i32** %28 to i8**
  store i8* %54, i8** %55, align 8, !tbaa !19
  %56 = bitcast i8* %54 to i32*
  %57 = load i32, i32* %4, align 4, !tbaa !35
  %58 = icmp sgt i32 %57, 0
  br i1 %58, label %59, label %68

59:                                               ; preds = %48
  %60 = load i32, i32* %4, align 4, !tbaa !35
  %61 = sext i32 %60 to i64
  br label %62

62:                                               ; preds = %59, %62
  %63 = phi i64 [ %66, %62 ], [ 0, %59 ]
  %64 = getelementptr inbounds i32, i32* %56, i64 %63
  %65 = trunc i64 %63 to i32
  store i32 %65, i32* %64, align 4, !tbaa !35
  %66 = add nuw nsw i64 %63, 1
  %67 = icmp slt i64 %66, %61
  br i1 %67, label %62, label %68, !llvm.loop !79

68:                                               ; preds = %62, %48
  %69 = phi i32 [ %57, %48 ], [ %60, %62 ]
  %70 = getelementptr inbounds %class.HYPRE_SlideReduction, %class.HYPRE_SlideReduction* %0, i64 0, i32 11
  %71 = load i32*, i32** %70, align 8, !tbaa !18
  %72 = load i32*, i32** %28, align 8, !tbaa !19
  %73 = add nsw i32 %69, -1
  %74 = call i32 @HYPRE_LSI_qsort1a(i32* %71, i32* %72, i32 0, i32 %73)
  %75 = load i32, i32* %4, align 4, !tbaa !35
  %76 = load i32*, i32** %70, align 8
  %77 = icmp sgt i32 %75, 1
  br i1 %77, label %78, label %114

78:                                               ; preds = %68
  %79 = zext i32 %75 to i64
  br label %80

80:                                               ; preds = %78, %98
  %81 = phi i64 [ 1, %78 ], [ %99, %98 ]
  %82 = getelementptr inbounds i32, i32* %76, i64 %81
  %83 = load i32, i32* %82, align 4, !tbaa !35
  %84 = add nsw i64 %81, -1
  %85 = getelementptr inbounds i32, i32* %76, i64 %84
  %86 = load i32, i32* %85, align 4, !tbaa !35
  %87 = icmp eq i32 %83, %86
  br i1 %87, label %88, label %98

88:                                               ; preds = %80
  %89 = and i64 %81, 4294967295
  %90 = load i32, i32* %2, align 4, !tbaa !35
  %91 = call i32 (i8*, ...) @printf(i8* nonnull dereferenceable(1) getelementptr inbounds ([50 x i8], [50 x i8]* @.str.32, i64 0, i64 0), i32 %90)
  %92 = load i32*, i32** %70, align 8, !tbaa !18
  %93 = getelementptr inbounds i32, i32* %92, i64 %89
  %94 = load i32, i32* %93, align 4, !tbaa !35
  %95 = call i32 (i8*, ...) @printf(i8* nonnull dereferenceable(1) getelementptr inbounds ([14 x i8], [14 x i8]* @.str.33, i64 0, i64 0), i32 %94)
  %96 = load i32, i32* %4, align 4, !tbaa !35
  %97 = icmp sgt i32 %96, 0
  br i1 %97, label %101, label %113

98:                                               ; preds = %80
  %99 = add nuw nsw i64 %81, 1
  %100 = icmp eq i64 %99, %79
  br i1 %100, label %114, label %80, !llvm.loop !80

101:                                              ; preds = %88, %101
  %102 = phi i64 [ %109, %101 ], [ 0, %88 ]
  %103 = load i32, i32* %2, align 4, !tbaa !35
  %104 = load i32*, i32** %70, align 8, !tbaa !18
  %105 = getelementptr inbounds i32, i32* %104, i64 %102
  %106 = load i32, i32* %105, align 4, !tbaa !35
  %107 = trunc i64 %102 to i32
  %108 = call i32 (i8*, ...) @printf(i8* nonnull dereferenceable(1) getelementptr inbounds ([43 x i8], [43 x i8]* @.str.34, i64 0, i64 0), i32 %103, i32 %107, i32 %106)
  %109 = add nuw nsw i64 %102, 1
  %110 = load i32, i32* %4, align 4, !tbaa !35
  %111 = sext i32 %110 to i64
  %112 = icmp slt i64 %109, %111
  br i1 %112, label %101, label %113, !llvm.loop !81

113:                                              ; preds = %101, %88
  call void @exit(i32 1) #21
  unreachable

114:                                              ; preds = %98, %68, %45
  %115 = sext i32 %27 to i64
  %116 = call { i64, i1 } @llvm.umul.with.overflow.i64(i64 %115, i64 4)
  %117 = extractvalue { i64, i1 } %116, 1
  %118 = extractvalue { i64, i1 } %116, 0
  %119 = select i1 %117, i64 -1, i64 %118
  %120 = call noalias nonnull i8* @_Znam(i64 %119) #23
  %121 = bitcast i32** %34 to i8**
  store i8* %120, i8** %121, align 8, !tbaa !21
  %122 = call noalias nonnull i8* @_Znam(i64 %119) #23
  %123 = bitcast i32** %40 to i8**
  store i8* %122, i8** %123, align 8, !tbaa !22
  %124 = load i32, i32* %3, align 4, !tbaa !35
  %125 = sext i32 %124 to i64
  %126 = call { i64, i1 } @llvm.umul.with.overflow.i64(i64 %125, i64 4)
  %127 = extractvalue { i64, i1 } %126, 1
  %128 = extractvalue { i64, i1 } %126, 0
  %129 = select i1 %127, i64 -1, i64 %128
  %130 = call noalias nonnull i8* @_Znam(i64 %129) #23
  %131 = bitcast i8* %130 to i32*
  %132 = call noalias nonnull i8* @_Znam(i64 %129) #23
  %133 = bitcast i8* %132 to i32*
  %134 = load i32, i32* %8, align 8, !tbaa !6
  %135 = call i32 @MPI_Allgather(i8* nonnull %7, i32 1, i32 1275069445, i8* nonnull %130, i32 1, i32 1275069445, i32 %134)
  store i32 0, i32* %133, align 4, !tbaa !35
  %136 = load i32, i32* %3, align 4, !tbaa !35
  %137 = icmp sgt i32 %136, 1
  br i1 %137, label %138, label %141

138:                                              ; preds = %114
  %139 = zext i32 %136 to i64
  %140 = load i32, i32* %133, align 4
  br label %145

141:                                              ; preds = %145, %114
  %142 = load i32*, i32** %28, align 8
  %143 = load i32, i32* %4, align 4, !tbaa !35
  %144 = icmp sgt i32 %143, 0
  br i1 %144, label %155, label %168

145:                                              ; preds = %138, %145
  %146 = phi i32 [ %140, %138 ], [ %151, %145 ]
  %147 = phi i64 [ 1, %138 ], [ %153, %145 ]
  %148 = add nsw i64 %147, -1
  %149 = getelementptr inbounds i32, i32* %131, i64 %148
  %150 = load i32, i32* %149, align 4, !tbaa !35
  %151 = add nsw i32 %150, %146
  %152 = getelementptr inbounds i32, i32* %133, i64 %147
  store i32 %151, i32* %152, align 4, !tbaa !35
  %153 = add nuw nsw i64 %147, 1
  %154 = icmp eq i64 %153, %139
  br i1 %154, label %141, label %145, !llvm.loop !82

155:                                              ; preds = %141, %155
  %156 = phi i64 [ %164, %155 ], [ 0, %141 ]
  %157 = load i32, i32* %2, align 4, !tbaa !35
  %158 = sext i32 %157 to i64
  %159 = getelementptr inbounds i32, i32* %133, i64 %158
  %160 = load i32, i32* %159, align 4, !tbaa !35
  %161 = getelementptr inbounds i32, i32* %142, i64 %156
  %162 = load i32, i32* %161, align 4, !tbaa !35
  %163 = add nsw i32 %162, %160
  store i32 %163, i32* %161, align 4, !tbaa !35
  %164 = add nuw nsw i64 %156, 1
  %165 = load i32, i32* %4, align 4, !tbaa !35
  %166 = sext i32 %165 to i64
  %167 = icmp slt i64 %164, %166
  br i1 %167, label %155, label %168, !llvm.loop !83

168:                                              ; preds = %155, %141
  %169 = phi i32 [ %143, %141 ], [ %165, %155 ]
  %170 = getelementptr inbounds %class.HYPRE_SlideReduction, %class.HYPRE_SlideReduction* %0, i64 0, i32 11
  %171 = bitcast i32** %170 to i8**
  %172 = load i8*, i8** %171, align 8, !tbaa !18
  %173 = load i8*, i8** %121, align 8, !tbaa !21
  %174 = load i32, i32* %8, align 8, !tbaa !6
  %175 = call i32 @MPI_Allgatherv(i8* %172, i32 %169, i32 1275069445, i8* %173, i32* nonnull %131, i32* nonnull %133, i32 1275069445, i32 %174)
  %176 = bitcast i32** %28 to i8**
  %177 = load i8*, i8** %176, align 8, !tbaa !19
  %178 = load i32, i32* %4, align 4, !tbaa !35
  %179 = load i8*, i8** %123, align 8, !tbaa !22
  %180 = load i32, i32* %8, align 8, !tbaa !6
  %181 = call i32 @MPI_Allgatherv(i8* %177, i32 %178, i32 1275069445, i8* %179, i32* nonnull %131, i32* nonnull %133, i32 1275069445, i32 %180)
  %182 = load i32*, i32** %28, align 8
  %183 = load i32, i32* %4, align 4, !tbaa !35
  %184 = icmp sgt i32 %183, 0
  br i1 %184, label %185, label %198

185:                                              ; preds = %168, %185
  %186 = phi i64 [ %194, %185 ], [ 0, %168 ]
  %187 = load i32, i32* %2, align 4, !tbaa !35
  %188 = sext i32 %187 to i64
  %189 = getelementptr inbounds i32, i32* %133, i64 %188
  %190 = load i32, i32* %189, align 4, !tbaa !35
  %191 = getelementptr inbounds i32, i32* %182, i64 %186
  %192 = load i32, i32* %191, align 4, !tbaa !35
  %193 = sub nsw i32 %192, %190
  store i32 %193, i32* %191, align 4, !tbaa !35
  %194 = add nuw nsw i64 %186, 1
  %195 = load i32, i32* %4, align 4, !tbaa !35
  %196 = sext i32 %195 to i64
  %197 = icmp slt i64 %194, %196
  br i1 %197, label %185, label %198, !llvm.loop !84

198:                                              ; preds = %185, %168
  call void @_ZdaPv(i8* %130) #20
  call void @_ZdaPv(i8* %132) #20
  %199 = getelementptr inbounds %class.HYPRE_SlideReduction, %class.HYPRE_SlideReduction* %0, i64 0, i32 15
  %200 = load i32*, i32** %199, align 8, !tbaa !23
  %201 = icmp eq i32* %200, null
  br i1 %201, label %292, label %202

202:                                              ; preds = %198
  %203 = getelementptr inbounds %class.HYPRE_SlideReduction, %class.HYPRE_SlideReduction* %0, i64 0, i32 9
  %204 = load i32, i32* %203, align 8, !tbaa !12
  %205 = and i32 %204, 3
  %206 = icmp eq i32 %205, 0
  br i1 %206, label %292, label %207

207:                                              ; preds = %202
  %208 = load i32, i32* %4, align 4, !tbaa !35
  %209 = sext i32 %208 to i64
  %210 = call { i64, i1 } @llvm.umul.with.overflow.i64(i64 %209, i64 4)
  %211 = extractvalue { i64, i1 } %210, 1
  %212 = extractvalue { i64, i1 } %210, 0
  %213 = select i1 %211, i64 -1, i64 %212
  %214 = call noalias nonnull i8* @_Znam(i64 %213) #23
  %215 = bitcast i8* %214 to i32*
  %216 = call noalias nonnull i8* @_Znam(i64 %213) #23
  %217 = bitcast i8* %216 to i32*
  %218 = getelementptr inbounds %class.HYPRE_SlideReduction, %class.HYPRE_SlideReduction* %0, i64 0, i32 16
  %219 = load i32*, i32** %218, align 8
  %220 = icmp sgt i32 %208, 0
  br i1 %220, label %221, label %233

221:                                              ; preds = %207
  %222 = zext i32 %208 to i64
  br label %223

223:                                              ; preds = %221, %223
  %224 = phi i64 [ 0, %221 ], [ %231, %223 ]
  %225 = getelementptr inbounds i32, i32* %200, i64 %224
  %226 = load i32, i32* %225, align 4, !tbaa !35
  %227 = getelementptr inbounds i32, i32* %215, i64 %224
  store i32 %226, i32* %227, align 4, !tbaa !35
  %228 = getelementptr inbounds i32, i32* %219, i64 %224
  %229 = load i32, i32* %228, align 4, !tbaa !35
  %230 = getelementptr inbounds i32, i32* %217, i64 %224
  store i32 %229, i32* %230, align 4, !tbaa !35
  %231 = add nuw nsw i64 %224, 1
  %232 = icmp eq i64 %231, %222
  br i1 %232, label %233, label %223, !llvm.loop !85

233:                                              ; preds = %223, %207
  %234 = add nsw i32 %208, -1
  %235 = call i32 @HYPRE_LSI_qsort1a(i32* nonnull %215, i32* nonnull %217, i32 0, i32 %234)
  %236 = load i32, i32* %4, align 4, !tbaa !35
  %237 = icmp sgt i32 %236, 0
  br i1 %237, label %238, label %260

238:                                              ; preds = %233
  %239 = zext i32 %236 to i64
  br label %240

240:                                              ; preds = %238, %255
  %241 = phi i64 [ 0, %238 ], [ %258, %255 ]
  %242 = phi i32 [ -1, %238 ], [ %257, %255 ]
  %243 = phi i32 [ 0, %238 ], [ %256, %255 ]
  %244 = getelementptr inbounds i32, i32* %215, i64 %241
  %245 = load i32, i32* %244, align 4, !tbaa !35
  %246 = icmp eq i32 %245, %242
  br i1 %246, label %255, label %247

247:                                              ; preds = %240
  %248 = sext i32 %243 to i64
  %249 = getelementptr inbounds i32, i32* %215, i64 %248
  store i32 %245, i32* %249, align 4, !tbaa !35
  %250 = getelementptr inbounds i32, i32* %217, i64 %241
  %251 = load i32, i32* %250, align 4, !tbaa !35
  %252 = getelementptr inbounds i32, i32* %217, i64 %248
  store i32 %251, i32* %252, align 4, !tbaa !35
  %253 = add nsw i32 %243, 1
  %254 = load i32, i32* %244, align 4, !tbaa !35
  br label %255

255:                                              ; preds = %240, %247
  %256 = phi i32 [ %253, %247 ], [ %243, %240 ]
  %257 = phi i32 [ %254, %247 ], [ %242, %240 ]
  %258 = add nuw nsw i64 %241, 1
  %259 = icmp eq i64 %258, %239
  br i1 %259, label %260, label %240, !llvm.loop !86

260:                                              ; preds = %255, %233
  %261 = phi i32 [ 0, %233 ], [ %256, %255 ]
  %262 = add nsw i32 %261, -1
  %263 = call i32 @HYPRE_LSI_qsort1a(i32* nonnull %217, i32* nonnull %215, i32 0, i32 %262)
  %264 = icmp sgt i32 %261, 1
  br i1 %264, label %265, label %285

265:                                              ; preds = %260
  %266 = zext i32 %261 to i64
  br label %267

267:                                              ; preds = %265, %281
  %268 = phi i64 [ 1, %265 ], [ %283, %281 ]
  %269 = phi i32 [ 1, %265 ], [ %282, %281 ]
  %270 = getelementptr inbounds i32, i32* %217, i64 %268
  %271 = load i32, i32* %270, align 4, !tbaa !35
  %272 = add nsw i64 %268, -1
  %273 = getelementptr inbounds i32, i32* %217, i64 %272
  %274 = load i32, i32* %273, align 4, !tbaa !35
  %275 = icmp eq i32 %271, %274
  br i1 %275, label %276, label %278

276:                                              ; preds = %267
  %277 = add nsw i32 %269, 1
  br label %281

278:                                              ; preds = %267
  %279 = load i32, i32* %2, align 4, !tbaa !35
  %280 = call i32 (i8*, ...) @printf(i8* nonnull dereferenceable(1) getelementptr inbounds ([46 x i8], [46 x i8]* @.str.35, i64 0, i64 0), i32 %279, i32 %274, i32 %269)
  br label %281

281:                                              ; preds = %276, %278
  %282 = phi i32 [ %277, %276 ], [ 1, %278 ]
  %283 = add nuw nsw i64 %268, 1
  %284 = icmp eq i64 %283, %266
  br i1 %284, label %285, label %267, !llvm.loop !87

285:                                              ; preds = %281, %260
  %286 = phi i32 [ 1, %260 ], [ %282, %281 ]
  %287 = load i32, i32* %2, align 4, !tbaa !35
  %288 = sext i32 %262 to i64
  %289 = getelementptr inbounds i32, i32* %217, i64 %288
  %290 = load i32, i32* %289, align 4, !tbaa !35
  %291 = call i32 (i8*, ...) @printf(i8* nonnull dereferenceable(1) getelementptr inbounds ([46 x i8], [46 x i8]* @.str.35, i64 0, i64 0), i32 %287, i32 %290, i32 %286)
  call void @_ZdaPv(i8* %214) #20
  call void @_ZdaPv(i8* %216) #20
  br label %292

292:                                              ; preds = %285, %202, %198
  %293 = getelementptr inbounds %class.HYPRE_SlideReduction, %class.HYPRE_SlideReduction* %0, i64 0, i32 9
  %294 = load i32, i32* %293, align 8, !tbaa !12
  %295 = and i32 %294, 2
  %296 = icmp ne i32 %295, 0
  %297 = load i32, i32* %4, align 4
  %298 = icmp sgt i32 %297, 0
  %299 = select i1 %296, i1 %298, i1 false
  br i1 %299, label %300, label %315

300:                                              ; preds = %292, %300
  %301 = phi i64 [ %311, %300 ], [ 0, %292 ]
  %302 = load i32, i32* %2, align 4, !tbaa !35
  %303 = load i32*, i32** %170, align 8, !tbaa !18
  %304 = getelementptr inbounds i32, i32* %303, i64 %301
  %305 = load i32, i32* %304, align 4, !tbaa !35
  %306 = load i32*, i32** %28, align 8, !tbaa !19
  %307 = getelementptr inbounds i32, i32* %306, i64 %301
  %308 = load i32, i32* %307, align 4, !tbaa !35
  %309 = trunc i64 %301 to i32
  %310 = call i32 (i8*, ...) @printf(i8* nonnull dereferenceable(1) getelementptr inbounds ([55 x i8], [55 x i8]* @.str.36, i64 0, i64 0), i32 %302, i32 %309, i32 %305, i32 %308)
  %311 = add nuw nsw i64 %301, 1
  %312 = load i32, i32* %4, align 4, !tbaa !35
  %313 = sext i32 %312 to i64
  %314 = icmp slt i64 %311, %313
  br i1 %314, label %300, label %315, !llvm.loop !88

315:                                              ; preds = %300, %292
  call void @llvm.lifetime.end.p0i8(i64 4, i8* nonnull %7) #22
  call void @llvm.lifetime.end.p0i8(i64 4, i8* nonnull %6) #22
  call void @llvm.lifetime.end.p0i8(i64 4, i8* nonnull %5) #22
  ret i32 0
}

; Function Attrs: mustprogress uwtable
define dso_local i32 @_ZN20HYPRE_SlideReduction18buildReducedMatrixEv(%class.HYPRE_SlideReduction* nonnull align 8 dereferenceable(184) %0) local_unnamed_addr #6 align 2 {
  %2 = alloca i32, align 4
  %3 = alloca i32, align 4
  %4 = alloca i32*, align 8
  %5 = alloca i32, align 4
  %6 = alloca i32*, align 8
  %7 = alloca i32, align 4
  %8 = alloca i32*, align 8
  %9 = alloca i32, align 4
  %10 = alloca i32, align 4
  %11 = alloca double*, align 8
  %12 = alloca double*, align 8
  %13 = alloca [40 x i8], align 16
  %14 = alloca %struct.hypre_ParCSRMatrix_struct*, align 8
  %15 = alloca %struct.hypre_ParCSRMatrix_struct*, align 8
  %16 = alloca %struct.hypre_ParCSRMatrix_struct*, align 8
  %17 = alloca %struct.hypre_ParCSRMatrix_struct*, align 8
  %18 = alloca %struct.hypre_ParCSRMatrix_struct*, align 8
  %19 = bitcast i32* %2 to i8*
  call void @llvm.lifetime.start.p0i8(i64 4, i8* nonnull %19) #22
  %20 = bitcast i32* %3 to i8*
  call void @llvm.lifetime.start.p0i8(i64 4, i8* nonnull %20) #22
  %21 = bitcast i32** %4 to i8*
  call void @llvm.lifetime.start.p0i8(i64 8, i8* nonnull %21) #22
  %22 = bitcast i32* %5 to i8*
  call void @llvm.lifetime.start.p0i8(i64 4, i8* nonnull %22) #22
  %23 = bitcast i32** %6 to i8*
  call void @llvm.lifetime.start.p0i8(i64 8, i8* nonnull %23) #22
  %24 = bitcast i32* %7 to i8*
  call void @llvm.lifetime.start.p0i8(i64 4, i8* nonnull %24) #22
  %25 = bitcast i32** %8 to i8*
  call void @llvm.lifetime.start.p0i8(i64 8, i8* nonnull %25) #22
  %26 = bitcast i32* %9 to i8*
  call void @llvm.lifetime.start.p0i8(i64 4, i8* nonnull %26) #22
  %27 = bitcast i32* %10 to i8*
  call void @llvm.lifetime.start.p0i8(i64 4, i8* nonnull %27) #22
  %28 = bitcast double** %11 to i8*
  call void @llvm.lifetime.start.p0i8(i64 8, i8* nonnull %28) #22
  %29 = bitcast double** %12 to i8*
  call void @llvm.lifetime.start.p0i8(i64 8, i8* nonnull %29) #22
  %30 = getelementptr inbounds [40 x i8], [40 x i8]* %13, i64 0, i64 0
  call void @llvm.lifetime.start.p0i8(i64 40, i8* nonnull %30) #22
  %31 = bitcast %struct.hypre_ParCSRMatrix_struct** %14 to i8*
  call void @llvm.lifetime.start.p0i8(i64 8, i8* nonnull %31) #22
  %32 = bitcast %struct.hypre_ParCSRMatrix_struct** %15 to i8*
  call void @llvm.lifetime.start.p0i8(i64 8, i8* nonnull %32) #22
  %33 = bitcast %struct.hypre_ParCSRMatrix_struct** %16 to i8*
  call void @llvm.lifetime.start.p0i8(i64 8, i8* nonnull %33) #22
  %34 = bitcast %struct.hypre_ParCSRMatrix_struct** %17 to i8*
  call void @llvm.lifetime.start.p0i8(i64 8, i8* nonnull %34) #22
  %35 = bitcast %struct.hypre_ParCSRMatrix_struct** %18 to i8*
  call void @llvm.lifetime.start.p0i8(i64 8, i8* nonnull %35) #22
  %36 = call i32 @_ZN20HYPRE_SlideReduction11buildA21MatEv(%class.HYPRE_SlideReduction* nonnull align 8 dereferenceable(184) %0)
  %37 = call i32 @_ZN20HYPRE_SlideReduction14buildInvA22MatEv(%class.HYPRE_SlideReduction* nonnull align 8 dereferenceable(184) %0)
  %38 = getelementptr inbounds %class.HYPRE_SlideReduction, %class.HYPRE_SlideReduction* %0, i64 0, i32 1
  %39 = load i32, i32* %38, align 8, !tbaa !6
  %40 = call i32 @MPI_Comm_rank(i32 %39, i32* nonnull %2)
  %41 = load i32, i32* %38, align 8, !tbaa !6
  %42 = call i32 @MPI_Comm_size(i32 %41, i32* nonnull %3)
  %43 = getelementptr inbounds %class.HYPRE_SlideReduction, %class.HYPRE_SlideReduction* %0, i64 0, i32 2
  %44 = load %struct.hypre_IJMatrix_struct*, %struct.hypre_IJMatrix_struct** %43, align 8, !tbaa !16
  %45 = bitcast %struct.hypre_ParCSRMatrix_struct** %14 to i8**
  %46 = call i32 @HYPRE_IJMatrixGetObject(%struct.hypre_IJMatrix_struct* %44, i8** nonnull %45)
  %47 = load %struct.hypre_ParCSRMatrix_struct*, %struct.hypre_ParCSRMatrix_struct** %14, align 8, !tbaa !34
  %48 = call i32 @HYPRE_ParCSRMatrixGetRowPartitioning(%struct.hypre_ParCSRMatrix_struct* %47, i32** nonnull %4)
  %49 = load i32*, i32** %4, align 8, !tbaa !34
  %50 = load i32, i32* %2, align 4, !tbaa !35
  %51 = sext i32 %50 to i64
  %52 = getelementptr inbounds i32, i32* %49, i64 %51
  %53 = load i32, i32* %52, align 4, !tbaa !35
  %54 = add nsw i32 %50, 1
  %55 = sext i32 %54 to i64
  %56 = getelementptr inbounds i32, i32* %49, i64 %55
  %57 = load i32, i32* %56, align 4, !tbaa !35
  %58 = add nsw i32 %57, -1
  %59 = sub nsw i32 %58, %53
  %60 = add nsw i32 %59, 1
  %61 = getelementptr inbounds %class.HYPRE_SlideReduction, %class.HYPRE_SlideReduction* %0, i64 0, i32 10
  %62 = load i32*, i32** %61, align 8, !tbaa !17
  %63 = load i32, i32* %3, align 4, !tbaa !35
  %64 = sext i32 %63 to i64
  %65 = getelementptr inbounds i32, i32* %62, i64 %64
  %66 = load i32, i32* %65, align 4, !tbaa !35
  %67 = getelementptr inbounds i32, i32* %49, i64 %64
  %68 = load i32, i32* %67, align 4, !tbaa !35
  %69 = getelementptr inbounds i32, i32* %62, i64 %55
  %70 = load i32, i32* %69, align 4, !tbaa !35
  %71 = getelementptr inbounds i32, i32* %62, i64 %51
  %72 = load i32, i32* %71, align 4, !tbaa !35
  %73 = sub nsw i32 %70, %72
  %74 = sub nsw i32 %58, %73
  %75 = sub nsw i32 %60, %73
  %76 = sub nsw i32 %53, %72
  %77 = sub nsw i32 %68, %66
  %78 = getelementptr inbounds %class.HYPRE_SlideReduction, %class.HYPRE_SlideReduction* %0, i64 0, i32 3
  %79 = load %struct.hypre_IJMatrix_struct*, %struct.hypre_IJMatrix_struct** %78, align 8, !tbaa !25
  %80 = bitcast %struct.hypre_ParCSRMatrix_struct** %15 to i8**
  %81 = call i32 @HYPRE_IJMatrixGetObject(%struct.hypre_IJMatrix_struct* %79, i8** nonnull %80)
  %82 = getelementptr inbounds %class.HYPRE_SlideReduction, %class.HYPRE_SlideReduction* %0, i64 0, i32 4
  %83 = load %struct.hypre_IJMatrix_struct*, %struct.hypre_IJMatrix_struct** %82, align 8, !tbaa !26
  %84 = bitcast %struct.hypre_ParCSRMatrix_struct** %16 to i8**
  %85 = call i32 @HYPRE_IJMatrixGetObject(%struct.hypre_IJMatrix_struct* %83, i8** nonnull %84)
  %86 = getelementptr inbounds %class.HYPRE_SlideReduction, %class.HYPRE_SlideReduction* %0, i64 0, i32 9
  %87 = load i32, i32* %86, align 8, !tbaa !12
  %88 = and i32 %87, 3
  %89 = icmp eq i32 %88, 0
  br i1 %89, label %93, label %90

90:                                               ; preds = %1
  %91 = load i32, i32* %2, align 4, !tbaa !35
  %92 = call i32 (i8*, ...) @printf(i8* nonnull dereferenceable(1) getelementptr inbounds ([57 x i8], [57 x i8]* @.str.45, i64 0, i64 0), i32 %91)
  br label %93

93:                                               ; preds = %90, %1
  %94 = load %struct.hypre_ParCSRMatrix_struct*, %struct.hypre_ParCSRMatrix_struct** %15, align 8, !tbaa !34
  %95 = load %struct.hypre_ParCSRMatrix_struct*, %struct.hypre_ParCSRMatrix_struct** %16, align 8, !tbaa !34
  %96 = call i32 @hypre_BoomerAMGBuildCoarseOperator(%struct.hypre_ParCSRMatrix_struct* %94, %struct.hypre_ParCSRMatrix_struct* %95, %struct.hypre_ParCSRMatrix_struct* %94, %struct.hypre_ParCSRMatrix_struct** nonnull %17)
  %97 = load i32, i32* %86, align 8, !tbaa !12
  %98 = and i32 %97, 3
  %99 = icmp eq i32 %98, 0
  br i1 %99, label %103, label %100

100:                                              ; preds = %93
  %101 = load i32, i32* %2, align 4, !tbaa !35
  %102 = call i32 (i8*, ...) @printf(i8* nonnull dereferenceable(1) getelementptr inbounds ([55 x i8], [55 x i8]* @.str.46, i64 0, i64 0), i32 %101)
  br label %103

103:                                              ; preds = %100, %93
  %104 = load i32, i32* %86, align 8, !tbaa !12
  %105 = icmp sgt i32 %104, 3
  br i1 %105, label %106, label %156

106:                                              ; preds = %103
  %107 = load i32, i32* %2, align 4, !tbaa !35
  %108 = call i32 (i8*, i8*, ...) @sprintf(i8* nonnull %30, i8* nonnull dereferenceable(1) getelementptr inbounds ([7 x i8], [7 x i8]* @.str.47, i64 0, i64 0), i32 %107) #22
  %109 = call %struct._IO_FILE* @fopen(i8* nonnull %30, i8* getelementptr inbounds ([2 x i8], [2 x i8]* @.str.48, i64 0, i64 0))
  %110 = load i32, i32* %2, align 4, !tbaa !35
  %111 = icmp eq i32 %110, 0
  br i1 %111, label %112, label %118

112:                                              ; preds = %106
  %113 = call i32 @puts(i8* nonnull dereferenceable(1) getelementptr inbounds ([53 x i8], [53 x i8]* @str.114, i64 0, i64 0))
  %114 = load i32, i32* %2, align 4, !tbaa !35
  %115 = call i32 (i8*, ...) @printf(i8* nonnull dereferenceable(1) getelementptr inbounds ([31 x i8], [31 x i8]* @.str.50, i64 0, i64 0), i32 %114)
  %116 = load %struct._IO_FILE*, %struct._IO_FILE** @stdout, align 8, !tbaa !34
  %117 = call i32 @fflush(%struct._IO_FILE* %116)
  br label %118

118:                                              ; preds = %112, %106
  %119 = add nsw i32 %75, %76
  %120 = icmp sgt i32 %75, 0
  br i1 %120, label %121, label %150

121:                                              ; preds = %118, %145
  %122 = phi i32 [ %148, %145 ], [ %76, %118 ]
  %123 = load %struct.hypre_ParCSRMatrix_struct*, %struct.hypre_ParCSRMatrix_struct** %17, align 8, !tbaa !34
  %124 = call i32 @HYPRE_ParCSRMatrixGetRow(%struct.hypre_ParCSRMatrix_struct* %123, i32 %122, i32* nonnull %5, i32** nonnull %6, double** nonnull %11)
  %125 = add nsw i32 %122, 1
  %126 = load i32, i32* %5, align 4, !tbaa !35
  %127 = icmp sgt i32 %126, 0
  br i1 %127, label %128, label %145

128:                                              ; preds = %121, %140
  %129 = phi i64 [ %141, %140 ], [ 0, %121 ]
  %130 = load double*, double** %11, align 8, !tbaa !34
  %131 = getelementptr inbounds double, double* %130, i64 %129
  %132 = load double, double* %131, align 8, !tbaa !41
  %133 = fcmp une double %132, 0.000000e+00
  br i1 %133, label %134, label %140

134:                                              ; preds = %128
  %135 = load i32*, i32** %6, align 8, !tbaa !34
  %136 = getelementptr inbounds i32, i32* %135, i64 %129
  %137 = load i32, i32* %136, align 4, !tbaa !35
  %138 = add nsw i32 %137, 1
  %139 = call i32 (%struct._IO_FILE*, i8*, ...) @fprintf(%struct._IO_FILE* %109, i8* getelementptr inbounds ([20 x i8], [20 x i8]* @.str.51, i64 0, i64 0), i32 %125, i32 %138, double %132)
  br label %140

140:                                              ; preds = %128, %134
  %141 = add nuw nsw i64 %129, 1
  %142 = load i32, i32* %5, align 4, !tbaa !35
  %143 = sext i32 %142 to i64
  %144 = icmp slt i64 %141, %143
  br i1 %144, label %128, label %145, !llvm.loop !89

145:                                              ; preds = %140, %121
  %146 = load %struct.hypre_ParCSRMatrix_struct*, %struct.hypre_ParCSRMatrix_struct** %17, align 8, !tbaa !34
  %147 = call i32 @HYPRE_ParCSRMatrixRestoreRow(%struct.hypre_ParCSRMatrix_struct* %146, i32 %122, i32* nonnull %5, i32** nonnull %6, double** nonnull %11)
  %148 = add nsw i32 %122, 1
  %149 = icmp slt i32 %148, %119
  br i1 %149, label %121, label %150, !llvm.loop !90

150:                                              ; preds = %145, %118
  %151 = call i32 @fclose(%struct._IO_FILE* %109)
  %152 = load i32, i32* %2, align 4, !tbaa !35
  %153 = icmp eq i32 %152, 0
  br i1 %153, label %154, label %156

154:                                              ; preds = %150
  %155 = call i32 @puts(i8* nonnull dereferenceable(1) getelementptr inbounds ([53 x i8], [53 x i8]* @str.114, i64 0, i64 0))
  br label %156

156:                                              ; preds = %150, %154, %103
  %157 = sext i32 %75 to i64
  %158 = call { i64, i1 } @llvm.umul.with.overflow.i64(i64 %157, i64 4)
  %159 = extractvalue { i64, i1 } %158, 1
  %160 = extractvalue { i64, i1 } %158, 0
  %161 = select i1 %159, i64 -1, i64 %160
  %162 = call noalias nonnull i8* @_Znam(i64 %161) #23
  %163 = bitcast i8* %162 to i32*
  %164 = load i32, i32* %86, align 8, !tbaa !12
  %165 = and i32 %164, 3
  %166 = icmp eq i32 %165, 0
  br i1 %166, label %172, label %167

167:                                              ; preds = %156
  %168 = load i32, i32* %2, align 4, !tbaa !35
  %169 = call i32 (i8*, ...) @printf(i8* nonnull dereferenceable(1) getelementptr inbounds ([53 x i8], [53 x i8]* @.str.41, i64 0, i64 0), i32 %168, i32 %77, i32 %77)
  %170 = load i32, i32* %2, align 4, !tbaa !35
  %171 = call i32 (i8*, ...) @printf(i8* nonnull dereferenceable(1) getelementptr inbounds ([54 x i8], [54 x i8]* @.str.42, i64 0, i64 0), i32 %170, i32 %75, i32 %75)
  br label %172

172:                                              ; preds = %167, %156
  %173 = load i32, i32* %38, align 8, !tbaa !6
  %174 = add nsw i32 %75, %76
  %175 = add nsw i32 %174, -1
  %176 = getelementptr inbounds %class.HYPRE_SlideReduction, %class.HYPRE_SlideReduction* %0, i64 0, i32 5
  %177 = call i32 @HYPRE_IJMatrixCreate(i32 %173, i32 %76, i32 %175, i32 %76, i32 %175, %struct.hypre_IJMatrix_struct** nonnull %176)
  %178 = load %struct.hypre_IJMatrix_struct*, %struct.hypre_IJMatrix_struct** %176, align 8, !tbaa !27
  %179 = call i32 @HYPRE_IJMatrixSetObjectType(%struct.hypre_IJMatrix_struct* %178, i32 5555)
  %180 = getelementptr inbounds %class.HYPRE_SlideReduction, %class.HYPRE_SlideReduction* %0, i64 0, i32 11
  %181 = icmp sgt i32 %53, %74
  br i1 %181, label %277, label %182

182:                                              ; preds = %172, %271
  %183 = phi i64 [ %274, %271 ], [ 0, %172 ]
  %184 = phi i32 [ %275, %271 ], [ %53, %172 ]
  %185 = phi i32 [ %273, %271 ], [ 0, %172 ]
  %186 = phi i32 [ %272, %271 ], [ 0, %172 ]
  %187 = load i32*, i32** %180, align 8, !tbaa !18
  %188 = call i32 @hypre_BinarySearch(i32* %187, i32 %184, i32 %73)
  %189 = icmp sgt i32 %188, -1
  br i1 %189, label %190, label %192

190:                                              ; preds = %182
  %191 = getelementptr inbounds i32, i32* %163, i64 %183
  store i32 1, i32* %191, align 4, !tbaa !35
  br label %271

192:                                              ; preds = %182
  %193 = load %struct.hypre_ParCSRMatrix_struct*, %struct.hypre_ParCSRMatrix_struct** %14, align 8, !tbaa !34
  %194 = call i32 @HYPRE_ParCSRMatrixGetRow(%struct.hypre_ParCSRMatrix_struct* %193, i32 %184, i32* nonnull %5, i32** nonnull %6, double** nonnull %11)
  %195 = trunc i64 %183 to i32
  %196 = add nsw i32 %76, %195
  store i32 %196, i32* %10, align 4, !tbaa !35
  %197 = load %struct.hypre_ParCSRMatrix_struct*, %struct.hypre_ParCSRMatrix_struct** %17, align 8, !tbaa !34
  %198 = call i32 @HYPRE_ParCSRMatrixGetRow(%struct.hypre_ParCSRMatrix_struct* %197, i32 %196, i32* nonnull %7, i32** nonnull %8, double** nonnull %12)
  %199 = load i32, i32* %5, align 4, !tbaa !35
  %200 = load i32, i32* %7, align 4, !tbaa !35
  %201 = add nsw i32 %200, %199
  store i32 %201, i32* %9, align 4, !tbaa !35
  %202 = icmp sgt i32 %201, %186
  %203 = select i1 %202, i32 %201, i32 %186
  %204 = sext i32 %201 to i64
  %205 = call { i64, i1 } @llvm.umul.with.overflow.i64(i64 %204, i64 4)
  %206 = extractvalue { i64, i1 } %205, 1
  %207 = extractvalue { i64, i1 } %205, 0
  %208 = select i1 %206, i64 -1, i64 %207
  %209 = call noalias nonnull i8* @_Znam(i64 %208) #23
  %210 = bitcast i8* %209 to i32*
  %211 = load i32*, i32** %6, align 8
  %212 = icmp sgt i32 %199, 0
  br i1 %212, label %213, label %215

213:                                              ; preds = %192
  %214 = zext i32 %199 to i64
  br label %221

215:                                              ; preds = %221, %192
  %216 = load i32*, i32** %8, align 8
  %217 = icmp sgt i32 %200, 0
  br i1 %217, label %218, label %236

218:                                              ; preds = %215
  %219 = sext i32 %199 to i64
  %220 = zext i32 %200 to i64
  br label %228

221:                                              ; preds = %213, %221
  %222 = phi i64 [ 0, %213 ], [ %226, %221 ]
  %223 = getelementptr inbounds i32, i32* %211, i64 %222
  %224 = load i32, i32* %223, align 4, !tbaa !35
  %225 = getelementptr inbounds i32, i32* %210, i64 %222
  store i32 %224, i32* %225, align 4, !tbaa !35
  %226 = add nuw nsw i64 %222, 1
  %227 = icmp eq i64 %226, %214
  br i1 %227, label %215, label %221, !llvm.loop !91

228:                                              ; preds = %218, %228
  %229 = phi i64 [ 0, %218 ], [ %234, %228 ]
  %230 = getelementptr inbounds i32, i32* %216, i64 %229
  %231 = load i32, i32* %230, align 4, !tbaa !35
  %232 = add nsw i64 %229, %219
  %233 = getelementptr inbounds i32, i32* %210, i64 %232
  store i32 %231, i32* %233, align 4, !tbaa !35
  %234 = add nuw nsw i64 %229, 1
  %235 = icmp eq i64 %234, %220
  br i1 %235, label %236, label %228, !llvm.loop !92

236:                                              ; preds = %228, %215
  %237 = add nsw i32 %201, -1
  call void @hypre_qsort0(i32* nonnull %210, i32 0, i32 %237)
  %238 = load i32, i32* %9, align 4, !tbaa !35
  %239 = icmp sgt i32 %238, 1
  br i1 %239, label %240, label %259

240:                                              ; preds = %236
  %241 = zext i32 %238 to i64
  br label %242

242:                                              ; preds = %240, %255
  %243 = phi i64 [ 1, %240 ], [ %257, %255 ]
  %244 = phi i32 [ 0, %240 ], [ %256, %255 ]
  %245 = getelementptr inbounds i32, i32* %210, i64 %243
  %246 = load i32, i32* %245, align 4, !tbaa !35
  %247 = sext i32 %244 to i64
  %248 = getelementptr inbounds i32, i32* %210, i64 %247
  %249 = load i32, i32* %248, align 4, !tbaa !35
  %250 = icmp eq i32 %246, %249
  br i1 %250, label %255, label %251

251:                                              ; preds = %242
  %252 = add nsw i32 %244, 1
  %253 = sext i32 %252 to i64
  %254 = getelementptr inbounds i32, i32* %210, i64 %253
  store i32 %246, i32* %254, align 4, !tbaa !35
  br label %255

255:                                              ; preds = %242, %251
  %256 = phi i32 [ %252, %251 ], [ %244, %242 ]
  %257 = add nuw nsw i64 %243, 1
  %258 = icmp eq i64 %257, %241
  br i1 %258, label %259, label %242, !llvm.loop !93

259:                                              ; preds = %255, %236
  %260 = phi i32 [ 0, %236 ], [ %256, %255 ]
  %261 = icmp sgt i32 %238, 0
  %262 = zext i1 %261 to i32
  %263 = add nsw i32 %260, %262
  %264 = getelementptr inbounds i32, i32* %163, i64 %183
  store i32 %263, i32* %264, align 4, !tbaa !35
  %265 = load %struct.hypre_ParCSRMatrix_struct*, %struct.hypre_ParCSRMatrix_struct** %14, align 8, !tbaa !34
  %266 = call i32 @HYPRE_ParCSRMatrixRestoreRow(%struct.hypre_ParCSRMatrix_struct* %265, i32 %184, i32* nonnull %5, i32** nonnull %6, double** nonnull %11)
  %267 = load %struct.hypre_ParCSRMatrix_struct*, %struct.hypre_ParCSRMatrix_struct** %17, align 8, !tbaa !34
  %268 = load i32, i32* %10, align 4, !tbaa !35
  %269 = call i32 @HYPRE_ParCSRMatrixRestoreRow(%struct.hypre_ParCSRMatrix_struct* %267, i32 %268, i32* nonnull %7, i32** nonnull %8, double** nonnull %12)
  %270 = add nsw i32 %263, %185
  call void @_ZdaPv(i8* %209) #20
  br label %271

271:                                              ; preds = %190, %259
  %272 = phi i32 [ %186, %190 ], [ %203, %259 ]
  %273 = phi i32 [ %185, %190 ], [ %270, %259 ]
  %274 = add nuw nsw i64 %183, 1
  %275 = add nsw i32 %184, 1
  %276 = icmp slt i32 %184, %74
  br i1 %276, label %182, label %277, !llvm.loop !94

277:                                              ; preds = %271, %172
  %278 = phi i32 [ 0, %172 ], [ %272, %271 ]
  %279 = phi i32 [ 0, %172 ], [ %273, %271 ]
  %280 = load %struct.hypre_IJMatrix_struct*, %struct.hypre_IJMatrix_struct** %176, align 8, !tbaa !27
  %281 = call i32 @HYPRE_IJMatrixSetRowSizes(%struct.hypre_IJMatrix_struct* %280, i32* nonnull %163)
  %282 = load %struct.hypre_IJMatrix_struct*, %struct.hypre_IJMatrix_struct** %176, align 8, !tbaa !27
  %283 = call i32 @HYPRE_IJMatrixInitialize(%struct.hypre_IJMatrix_struct* %282)
  call void @_ZdaPv(i8* %162) #20
  %284 = icmp slt i32 %53, %57
  br i1 %284, label %285, label %296

285:                                              ; preds = %277, %285
  %286 = phi i32 [ %291, %285 ], [ 0, %277 ]
  %287 = phi i32 [ %294, %285 ], [ %53, %277 ]
  %288 = load %struct.hypre_ParCSRMatrix_struct*, %struct.hypre_ParCSRMatrix_struct** %14, align 8, !tbaa !34
  %289 = call i32 @HYPRE_ParCSRMatrixGetRow(%struct.hypre_ParCSRMatrix_struct* %288, i32 %287, i32* nonnull %5, i32** null, double** null)
  %290 = load i32, i32* %5, align 4, !tbaa !35
  %291 = add nsw i32 %290, %286
  %292 = load %struct.hypre_ParCSRMatrix_struct*, %struct.hypre_ParCSRMatrix_struct** %14, align 8, !tbaa !34
  %293 = call i32 @HYPRE_ParCSRMatrixRestoreRow(%struct.hypre_ParCSRMatrix_struct* %292, i32 %287, i32* nonnull %5, i32** null, double** null)
  %294 = add i32 %287, 1
  %295 = icmp eq i32 %294, %57
  br i1 %295, label %296, label %285, !llvm.loop !95

296:                                              ; preds = %285, %277
  %297 = phi i32 [ 0, %277 ], [ %291, %285 ]
  %298 = load i32, i32* %86, align 8, !tbaa !12
  %299 = and i32 %298, 3
  %300 = icmp eq i32 %299, 0
  br i1 %300, label %307, label %301

301:                                              ; preds = %296
  %302 = load i32, i32* %2, align 4, !tbaa !35
  %303 = sitofp i32 %279 to double
  %304 = sitofp i32 %297 to double
  %305 = fdiv double %303, %304
  %306 = call i32 (i8*, ...) @printf(i8* nonnull dereferenceable(1) getelementptr inbounds ([55 x i8], [55 x i8]* @.str.52, i64 0, i64 0), i32 %302, i32 %279, i32 %297, double %305)
  br label %307

307:                                              ; preds = %301, %296
  %308 = add nsw i32 %278, 1
  %309 = sext i32 %308 to i64
  %310 = call { i64, i1 } @llvm.umul.with.overflow.i64(i64 %309, i64 4)
  %311 = extractvalue { i64, i1 } %310, 1
  %312 = extractvalue { i64, i1 } %310, 0
  %313 = select i1 %311, i64 -1, i64 %312
  %314 = call noalias nonnull i8* @_Znam(i64 %313) #23
  %315 = bitcast i8* %314 to i32*
  %316 = call { i64, i1 } @llvm.umul.with.overflow.i64(i64 %309, i64 8)
  %317 = extractvalue { i64, i1 } %316, 1
  %318 = extractvalue { i64, i1 } %316, 0
  %319 = select i1 %317, i64 -1, i64 %318
  %320 = call noalias nonnull i8* @_Znam(i64 %319) #23
  %321 = bitcast i8* %320 to double*
  %322 = getelementptr inbounds %class.HYPRE_SlideReduction, %class.HYPRE_SlideReduction* %0, i64 0, i32 11
  %323 = getelementptr inbounds %class.HYPRE_SlideReduction, %class.HYPRE_SlideReduction* %0, i64 0, i32 13
  %324 = getelementptr inbounds %class.HYPRE_SlideReduction, %class.HYPRE_SlideReduction* %0, i64 0, i32 20
  %325 = icmp sgt i32 %53, %74
  br i1 %325, label %508, label %326

326:                                              ; preds = %307, %502
  %327 = phi i32 [ %506, %502 ], [ %53, %307 ]
  %328 = phi i32 [ %505, %502 ], [ 0, %307 ]
  %329 = load i32*, i32** %322, align 8, !tbaa !18
  %330 = call i32 @hypre_BinarySearch(i32* %329, i32 %327, i32 %73)
  %331 = add nsw i32 %328, %76
  store i32 %331, i32* %10, align 4, !tbaa !35
  %332 = icmp sgt i32 %330, -1
  br i1 %332, label %333, label %334

333:                                              ; preds = %326
  store i32 1, i32* %9, align 4, !tbaa !35
  store i32 %331, i32* %315, align 4, !tbaa !35
  store double 1.000000e+00, double* %321, align 8, !tbaa !41
  br label %502

334:                                              ; preds = %326
  %335 = load %struct.hypre_ParCSRMatrix_struct*, %struct.hypre_ParCSRMatrix_struct** %14, align 8, !tbaa !34
  %336 = call i32 @HYPRE_ParCSRMatrixGetRow(%struct.hypre_ParCSRMatrix_struct* %335, i32 %327, i32* nonnull %5, i32** nonnull %6, double** nonnull %11)
  %337 = load %struct.hypre_ParCSRMatrix_struct*, %struct.hypre_ParCSRMatrix_struct** %17, align 8, !tbaa !34
  %338 = load i32, i32* %10, align 4, !tbaa !35
  %339 = call i32 @HYPRE_ParCSRMatrixGetRow(%struct.hypre_ParCSRMatrix_struct* %337, i32 %338, i32* nonnull %7, i32** nonnull %8, double** nonnull %12)
  %340 = load i32, i32* %5, align 4, !tbaa !35
  %341 = load i32, i32* %7, align 4, !tbaa !35
  %342 = add nsw i32 %341, %340
  store i32 %342, i32* %9, align 4, !tbaa !35
  %343 = icmp sgt i32 %340, 0
  br i1 %343, label %353, label %344

344:                                              ; preds = %406, %334
  %345 = phi i32 [ 0, %334 ], [ %407, %406 ]
  %346 = load i32, i32* %7, align 4, !tbaa !35
  %347 = load i32*, i32** %8, align 8
  %348 = load double*, double** %12, align 8
  %349 = icmp sgt i32 %346, 0
  br i1 %349, label %350, label %424

350:                                              ; preds = %344
  %351 = sext i32 %345 to i64
  %352 = zext i32 %346 to i64
  br label %412

353:                                              ; preds = %334, %406
  %354 = phi i64 [ %408, %406 ], [ 0, %334 ]
  %355 = phi i32 [ %407, %406 ], [ 0, %334 ]
  %356 = load i32*, i32** %6, align 8, !tbaa !34
  %357 = getelementptr inbounds i32, i32* %356, i64 %354
  %358 = load i32, i32* %357, align 4, !tbaa !35
  %359 = load i32, i32* %3, align 4, !tbaa !35
  %360 = load i32*, i32** %4, align 8
  %361 = icmp sgt i32 %359, 0
  br i1 %361, label %362, label %374

362:                                              ; preds = %353
  %363 = zext i32 %359 to i64
  br label %364

364:                                              ; preds = %362, %369
  %365 = phi i64 [ 0, %362 ], [ %370, %369 ]
  %366 = getelementptr inbounds i32, i32* %360, i64 %365
  %367 = load i32, i32* %366, align 4, !tbaa !35
  %368 = icmp sgt i32 %367, %358
  br i1 %368, label %372, label %369

369:                                              ; preds = %364
  %370 = add nuw nsw i64 %365, 1
  %371 = icmp eq i64 %370, %363
  br i1 %371, label %374, label %364, !llvm.loop !96

372:                                              ; preds = %364
  %373 = trunc i64 %365 to i32
  br label %374

374:                                              ; preds = %372, %369, %353
  %375 = phi i32 [ 0, %353 ], [ %373, %372 ], [ %359, %369 ]
  %376 = load i32*, i32** %4, align 8, !tbaa !34
  %377 = zext i32 %375 to i64
  %378 = getelementptr inbounds i32, i32* %376, i64 %377
  %379 = load i32, i32* %378, align 4, !tbaa !35
  %380 = load i32*, i32** %61, align 8, !tbaa !17
  %381 = getelementptr inbounds i32, i32* %380, i64 %377
  %382 = load i32, i32* %381, align 4, !tbaa !35
  %383 = add nsw i32 %375, -1
  %384 = sext i32 %383 to i64
  %385 = getelementptr inbounds i32, i32* %380, i64 %384
  %386 = load i32, i32* %385, align 4, !tbaa !35
  %387 = sub i32 %379, %382
  %388 = add i32 %387, %386
  %389 = icmp slt i32 %358, %388
  br i1 %389, label %390, label %406

390:                                              ; preds = %374
  %391 = load i32*, i32** %323, align 8, !tbaa !21
  %392 = call i32 @hypre_BinarySearch(i32* %391, i32 %358, i32 %66)
  %393 = icmp slt i32 %392, 0
  br i1 %393, label %394, label %406

394:                                              ; preds = %390
  %395 = load i32*, i32** %61, align 8, !tbaa !17
  %396 = getelementptr inbounds i32, i32* %395, i64 %384
  %397 = load i32, i32* %396, align 4, !tbaa !35
  %398 = sub nsw i32 %358, %397
  %399 = sext i32 %355 to i64
  %400 = getelementptr inbounds i32, i32* %315, i64 %399
  store i32 %398, i32* %400, align 4, !tbaa !35
  %401 = load double*, double** %11, align 8, !tbaa !34
  %402 = getelementptr inbounds double, double* %401, i64 %354
  %403 = load double, double* %402, align 8, !tbaa !41
  %404 = add nsw i32 %355, 1
  %405 = getelementptr inbounds double, double* %321, i64 %399
  store double %403, double* %405, align 8, !tbaa !41
  br label %406

406:                                              ; preds = %374, %394, %390
  %407 = phi i32 [ %404, %394 ], [ %355, %390 ], [ %355, %374 ]
  %408 = add nuw nsw i64 %354, 1
  %409 = load i32, i32* %5, align 4, !tbaa !35
  %410 = sext i32 %409 to i64
  %411 = icmp slt i64 %408, %410
  br i1 %411, label %353, label %344, !llvm.loop !97

412:                                              ; preds = %350, %412
  %413 = phi i64 [ 0, %350 ], [ %422, %412 ]
  %414 = getelementptr inbounds i32, i32* %347, i64 %413
  %415 = load i32, i32* %414, align 4, !tbaa !35
  %416 = add nsw i64 %413, %351
  %417 = getelementptr inbounds i32, i32* %315, i64 %416
  store i32 %415, i32* %417, align 4, !tbaa !35
  %418 = getelementptr inbounds double, double* %348, i64 %413
  %419 = load double, double* %418, align 8, !tbaa !41
  %420 = fneg double %419
  %421 = getelementptr inbounds double, double* %321, i64 %416
  store double %420, double* %421, align 8, !tbaa !41
  %422 = add nuw nsw i64 %413, 1
  %423 = icmp eq i64 %422, %352
  br i1 %423, label %424, label %412, !llvm.loop !98

424:                                              ; preds = %412, %344
  %425 = add nsw i32 %346, %345
  store i32 %425, i32* %9, align 4, !tbaa !35
  %426 = add nsw i32 %425, -1
  call void @hypre_qsort1(i32* nonnull %315, double* nonnull %321, i32 0, i32 %426)
  %427 = load i32, i32* %9, align 4, !tbaa !35
  %428 = icmp sgt i32 %427, 0
  br i1 %428, label %429, label %467

429:                                              ; preds = %424
  %430 = zext i32 %427 to i64
  br label %431

431:                                              ; preds = %429, %463
  %432 = phi i64 [ 0, %429 ], [ %465, %463 ]
  %433 = phi i32 [ 0, %429 ], [ %464, %463 ]
  %434 = zext i32 %433 to i64
  %435 = icmp eq i64 %432, %434
  br i1 %435, label %449, label %436

436:                                              ; preds = %431
  %437 = getelementptr inbounds i32, i32* %315, i64 %432
  %438 = load i32, i32* %437, align 4, !tbaa !35
  %439 = sext i32 %433 to i64
  %440 = getelementptr inbounds i32, i32* %315, i64 %439
  %441 = load i32, i32* %440, align 4, !tbaa !35
  %442 = icmp eq i32 %438, %441
  br i1 %442, label %443, label %449

443:                                              ; preds = %436
  %444 = getelementptr inbounds double, double* %321, i64 %432
  %445 = load double, double* %444, align 8, !tbaa !41
  %446 = getelementptr inbounds double, double* %321, i64 %439
  %447 = load double, double* %446, align 8, !tbaa !41
  %448 = fadd double %445, %447
  store double %448, double* %446, align 8, !tbaa !41
  br label %463

449:                                              ; preds = %436, %431
  %450 = getelementptr inbounds i32, i32* %315, i64 %432
  %451 = load i32, i32* %450, align 4, !tbaa !35
  %452 = sext i32 %433 to i64
  %453 = getelementptr inbounds i32, i32* %315, i64 %452
  %454 = load i32, i32* %453, align 4, !tbaa !35
  %455 = icmp eq i32 %451, %454
  br i1 %455, label %463, label %456

456:                                              ; preds = %449
  %457 = add nsw i32 %433, 1
  %458 = getelementptr inbounds double, double* %321, i64 %432
  %459 = load double, double* %458, align 8, !tbaa !41
  %460 = sext i32 %457 to i64
  %461 = getelementptr inbounds double, double* %321, i64 %460
  store double %459, double* %461, align 8, !tbaa !41
  %462 = getelementptr inbounds i32, i32* %315, i64 %460
  store i32 %451, i32* %462, align 4, !tbaa !35
  br label %463

463:                                              ; preds = %443, %456, %449
  %464 = phi i32 [ %433, %443 ], [ %457, %456 ], [ %433, %449 ]
  %465 = add nuw nsw i64 %432, 1
  %466 = icmp eq i64 %465, %430
  br i1 %466, label %467, label %431, !llvm.loop !99

467:                                              ; preds = %463, %424
  %468 = phi i32 [ 0, %424 ], [ %464, %463 ]
  %469 = add nsw i32 %468, 1
  store i32 %469, i32* %9, align 4, !tbaa !35
  %470 = load double, double* %324, align 8
  %471 = icmp slt i32 %468, 0
  br i1 %471, label %495, label %472

472:                                              ; preds = %467
  %473 = add i32 %468, 1
  %474 = zext i32 %473 to i64
  br label %475

475:                                              ; preds = %472, %491
  %476 = phi i64 [ 0, %472 ], [ %493, %491 ]
  %477 = phi i32 [ 0, %472 ], [ %492, %491 ]
  %478 = getelementptr inbounds double, double* %321, i64 %476
  %479 = load double, double* %478, align 8, !tbaa !41
  %480 = fcmp ogt double %479, 0.000000e+00
  %481 = fneg double %479
  %482 = select i1 %480, double %479, double %481
  %483 = fcmp ult double %482, %470
  br i1 %483, label %491, label %484

484:                                              ; preds = %475
  %485 = getelementptr inbounds i32, i32* %315, i64 %476
  %486 = load i32, i32* %485, align 4, !tbaa !35
  %487 = sext i32 %477 to i64
  %488 = getelementptr inbounds i32, i32* %315, i64 %487
  store i32 %486, i32* %488, align 4, !tbaa !35
  %489 = add nsw i32 %477, 1
  %490 = getelementptr inbounds double, double* %321, i64 %487
  store double %479, double* %490, align 8, !tbaa !41
  br label %491

491:                                              ; preds = %475, %484
  %492 = phi i32 [ %489, %484 ], [ %477, %475 ]
  %493 = add nuw nsw i64 %476, 1
  %494 = icmp eq i64 %493, %474
  br i1 %494, label %495, label %475, !llvm.loop !100

495:                                              ; preds = %491, %467
  %496 = phi i32 [ 0, %467 ], [ %492, %491 ]
  store i32 %496, i32* %9, align 4, !tbaa !35
  %497 = load %struct.hypre_ParCSRMatrix_struct*, %struct.hypre_ParCSRMatrix_struct** %14, align 8, !tbaa !34
  %498 = call i32 @HYPRE_ParCSRMatrixRestoreRow(%struct.hypre_ParCSRMatrix_struct* %497, i32 %327, i32* nonnull %5, i32** nonnull %6, double** nonnull %11)
  %499 = load %struct.hypre_ParCSRMatrix_struct*, %struct.hypre_ParCSRMatrix_struct** %17, align 8, !tbaa !34
  %500 = load i32, i32* %10, align 4, !tbaa !35
  %501 = call i32 @HYPRE_ParCSRMatrixRestoreRow(%struct.hypre_ParCSRMatrix_struct* %499, i32 %500, i32* nonnull %7, i32** nonnull %8, double** nonnull %12)
  br label %502

502:                                              ; preds = %495, %333
  %503 = load %struct.hypre_IJMatrix_struct*, %struct.hypre_IJMatrix_struct** %176, align 8, !tbaa !27
  %504 = call i32 @HYPRE_IJMatrixSetValues(%struct.hypre_IJMatrix_struct* %503, i32 1, i32* nonnull %9, i32* nonnull %10, i32* nonnull %315, double* nonnull %321)
  %505 = add nuw nsw i32 %328, 1
  %506 = add nsw i32 %327, 1
  %507 = icmp slt i32 %327, %74
  br i1 %507, label %326, label %508, !llvm.loop !101

508:                                              ; preds = %502, %307
  call void @_ZdaPv(i8* %314) #20
  call void @_ZdaPv(i8* %320) #20
  %509 = load %struct.hypre_ParCSRMatrix_struct*, %struct.hypre_ParCSRMatrix_struct** %17, align 8, !tbaa !34
  %510 = getelementptr inbounds %class.HYPRE_SlideReduction, %class.HYPRE_SlideReduction* %0, i64 0, i32 19
  store %struct.hypre_ParCSRMatrix_struct* %509, %struct.hypre_ParCSRMatrix_struct** %510, align 8, !tbaa !14
  %511 = bitcast i32** %4 to i8**
  %512 = load i8*, i8** %511, align 8, !tbaa !34
  call void @free(i8* %512) #22
  %513 = load %struct.hypre_IJMatrix_struct*, %struct.hypre_IJMatrix_struct** %176, align 8, !tbaa !27
  %514 = call i32 @HYPRE_IJMatrixAssemble(%struct.hypre_IJMatrix_struct* %513)
  %515 = load %struct.hypre_IJMatrix_struct*, %struct.hypre_IJMatrix_struct** %176, align 8, !tbaa !27
  %516 = bitcast %struct.hypre_ParCSRMatrix_struct** %18 to i8**
  %517 = call i32 @HYPRE_IJMatrixGetObject(%struct.hypre_IJMatrix_struct* %515, i8** nonnull %516)
  %518 = load i32, i32* %86, align 8, !tbaa !12
  %519 = icmp sgt i32 %518, 4
  br i1 %519, label %520, label %571

520:                                              ; preds = %508
  %521 = load i32, i32* %2, align 4, !tbaa !35
  %522 = call i32 (i8*, i8*, ...) @sprintf(i8* nonnull %30, i8* nonnull dereferenceable(1) getelementptr inbounds ([12 x i8], [12 x i8]* @.str.53, i64 0, i64 0), i32 %521) #22
  %523 = call %struct._IO_FILE* @fopen(i8* nonnull %30, i8* getelementptr inbounds ([2 x i8], [2 x i8]* @.str.48, i64 0, i64 0))
  %524 = load i32, i32* %2, align 4, !tbaa !35
  %525 = icmp eq i32 %524, 0
  br i1 %525, label %526, label %532

526:                                              ; preds = %520
  %527 = call i32 @puts(i8* nonnull dereferenceable(1) getelementptr inbounds ([53 x i8], [53 x i8]* @str.114, i64 0, i64 0))
  %528 = load i32, i32* %2, align 4, !tbaa !35
  %529 = call i32 (i8*, ...) @printf(i8* nonnull dereferenceable(1) getelementptr inbounds ([36 x i8], [36 x i8]* @.str.54, i64 0, i64 0), i32 %528)
  %530 = load %struct._IO_FILE*, %struct._IO_FILE** @stdout, align 8, !tbaa !34
  %531 = call i32 @fflush(%struct._IO_FILE* %530)
  br label %532

532:                                              ; preds = %526, %520
  %533 = add nsw i32 %76, %60
  %534 = sub i32 %533, %73
  %535 = icmp slt i32 %76, %534
  br i1 %535, label %536, label %565

536:                                              ; preds = %532, %560
  %537 = phi i32 [ %563, %560 ], [ %76, %532 ]
  %538 = load %struct.hypre_ParCSRMatrix_struct*, %struct.hypre_ParCSRMatrix_struct** %18, align 8, !tbaa !34
  %539 = call i32 @HYPRE_ParCSRMatrixGetRow(%struct.hypre_ParCSRMatrix_struct* %538, i32 %537, i32* nonnull %5, i32** nonnull %6, double** nonnull %11)
  %540 = add nsw i32 %537, 1
  %541 = load i32, i32* %5, align 4, !tbaa !35
  %542 = icmp sgt i32 %541, 0
  br i1 %542, label %543, label %560

543:                                              ; preds = %536, %555
  %544 = phi i64 [ %556, %555 ], [ 0, %536 ]
  %545 = load double*, double** %11, align 8, !tbaa !34
  %546 = getelementptr inbounds double, double* %545, i64 %544
  %547 = load double, double* %546, align 8, !tbaa !41
  %548 = fcmp une double %547, 0.000000e+00
  br i1 %548, label %549, label %555

549:                                              ; preds = %543
  %550 = load i32*, i32** %6, align 8, !tbaa !34
  %551 = getelementptr inbounds i32, i32* %550, i64 %544
  %552 = load i32, i32* %551, align 4, !tbaa !35
  %553 = add nsw i32 %552, 1
  %554 = call i32 (%struct._IO_FILE*, i8*, ...) @fprintf(%struct._IO_FILE* %523, i8* getelementptr inbounds ([20 x i8], [20 x i8]* @.str.51, i64 0, i64 0), i32 %540, i32 %553, double %547)
  br label %555

555:                                              ; preds = %543, %549
  %556 = add nuw nsw i64 %544, 1
  %557 = load i32, i32* %5, align 4, !tbaa !35
  %558 = sext i32 %557 to i64
  %559 = icmp slt i64 %556, %558
  br i1 %559, label %543, label %560, !llvm.loop !102

560:                                              ; preds = %555, %536
  %561 = load %struct.hypre_ParCSRMatrix_struct*, %struct.hypre_ParCSRMatrix_struct** %18, align 8, !tbaa !34
  %562 = call i32 @HYPRE_ParCSRMatrixRestoreRow(%struct.hypre_ParCSRMatrix_struct* %561, i32 %537, i32* nonnull %5, i32** nonnull %6, double** nonnull %11)
  %563 = add nsw i32 %537, 1
  %564 = icmp slt i32 %563, %534
  br i1 %564, label %536, label %565, !llvm.loop !103

565:                                              ; preds = %560, %532
  %566 = call i32 @fclose(%struct._IO_FILE* %523)
  %567 = load i32, i32* %2, align 4, !tbaa !35
  %568 = icmp eq i32 %567, 0
  br i1 %568, label %569, label %571

569:                                              ; preds = %565
  %570 = call i32 @puts(i8* nonnull dereferenceable(1) getelementptr inbounds ([53 x i8], [53 x i8]* @str.114, i64 0, i64 0))
  br label %571

571:                                              ; preds = %565, %569, %508
  call void @llvm.lifetime.end.p0i8(i64 8, i8* nonnull %35) #22
  call void @llvm.lifetime.end.p0i8(i64 8, i8* nonnull %34) #22
  call void @llvm.lifetime.end.p0i8(i64 8, i8* nonnull %33) #22
  call void @llvm.lifetime.end.p0i8(i64 8, i8* nonnull %32) #22
  call void @llvm.lifetime.end.p0i8(i64 8, i8* nonnull %31) #22
  call void @llvm.lifetime.end.p0i8(i64 40, i8* nonnull %30) #22
  call void @llvm.lifetime.end.p0i8(i64 8, i8* nonnull %29) #22
  call void @llvm.lifetime.end.p0i8(i64 8, i8* nonnull %28) #22
  call void @llvm.lifetime.end.p0i8(i64 4, i8* nonnull %27) #22
  call void @llvm.lifetime.end.p0i8(i64 4, i8* nonnull %26) #22
  call void @llvm.lifetime.end.p0i8(i64 8, i8* nonnull %25) #22
  call void @llvm.lifetime.end.p0i8(i64 4, i8* nonnull %24) #22
  call void @llvm.lifetime.end.p0i8(i64 8, i8* nonnull %23) #22
  call void @llvm.lifetime.end.p0i8(i64 4, i8* nonnull %22) #22
  call void @llvm.lifetime.end.p0i8(i64 8, i8* nonnull %21) #22
  call void @llvm.lifetime.end.p0i8(i64 4, i8* nonnull %20) #22
  call void @llvm.lifetime.end.p0i8(i64 4, i8* nonnull %19) #22
  ret i32 0
}

; Function Attrs: mustprogress uwtable
define dso_local i32 @_ZN20HYPRE_SlideReduction16buildSubMatricesEv(%class.HYPRE_SlideReduction* nonnull align 8 dereferenceable(184) %0) local_unnamed_addr #6 align 2 {
  %2 = alloca i32, align 4
  %3 = alloca i32, align 4
  %4 = alloca i32*, align 8
  %5 = alloca i32, align 4
  %6 = alloca i32, align 4
  %7 = alloca i32, align 4
  %8 = alloca i32, align 4
  %9 = alloca i32, align 4
  %10 = alloca i32*, align 8
  %11 = alloca i32, align 4
  %12 = alloca double*, align 8
  %13 = alloca %struct.hypre_ParCSRMatrix_struct*, align 8
  %14 = alloca %struct.hypre_ParCSRMatrix_struct*, align 8
  %15 = alloca %struct.hypre_ParCSRMatrix_struct*, align 8
  %16 = bitcast i32* %2 to i8*
  call void @llvm.lifetime.start.p0i8(i64 4, i8* nonnull %16) #22
  %17 = bitcast i32* %3 to i8*
  call void @llvm.lifetime.start.p0i8(i64 4, i8* nonnull %17) #22
  %18 = bitcast i32** %4 to i8*
  call void @llvm.lifetime.start.p0i8(i64 8, i8* nonnull %18) #22
  %19 = bitcast i32* %5 to i8*
  call void @llvm.lifetime.start.p0i8(i64 4, i8* nonnull %19) #22
  %20 = bitcast i32* %6 to i8*
  call void @llvm.lifetime.start.p0i8(i64 4, i8* nonnull %20) #22
  %21 = bitcast i32* %7 to i8*
  call void @llvm.lifetime.start.p0i8(i64 4, i8* nonnull %21) #22
  %22 = bitcast i32* %8 to i8*
  call void @llvm.lifetime.start.p0i8(i64 4, i8* nonnull %22) #22
  %23 = bitcast i32* %9 to i8*
  call void @llvm.lifetime.start.p0i8(i64 4, i8* nonnull %23) #22
  %24 = bitcast i32** %10 to i8*
  call void @llvm.lifetime.start.p0i8(i64 8, i8* nonnull %24) #22
  %25 = bitcast i32* %11 to i8*
  call void @llvm.lifetime.start.p0i8(i64 4, i8* nonnull %25) #22
  %26 = bitcast double** %12 to i8*
  call void @llvm.lifetime.start.p0i8(i64 8, i8* nonnull %26) #22
  %27 = bitcast %struct.hypre_ParCSRMatrix_struct** %13 to i8*
  call void @llvm.lifetime.start.p0i8(i64 8, i8* nonnull %27) #22
  %28 = bitcast %struct.hypre_ParCSRMatrix_struct** %14 to i8*
  call void @llvm.lifetime.start.p0i8(i64 8, i8* nonnull %28) #22
  %29 = bitcast %struct.hypre_ParCSRMatrix_struct** %15 to i8*
  call void @llvm.lifetime.start.p0i8(i64 8, i8* nonnull %29) #22
  %30 = getelementptr inbounds %class.HYPRE_SlideReduction, %class.HYPRE_SlideReduction* %0, i64 0, i32 1
  %31 = load i32, i32* %30, align 8, !tbaa !6
  %32 = call i32 @MPI_Comm_rank(i32 %31, i32* nonnull %2)
  %33 = load i32, i32* %30, align 8, !tbaa !6
  %34 = call i32 @MPI_Comm_size(i32 %33, i32* nonnull %3)
  %35 = getelementptr inbounds %class.HYPRE_SlideReduction, %class.HYPRE_SlideReduction* %0, i64 0, i32 2
  %36 = load %struct.hypre_IJMatrix_struct*, %struct.hypre_IJMatrix_struct** %35, align 8, !tbaa !16
  %37 = bitcast %struct.hypre_ParCSRMatrix_struct** %13 to i8**
  %38 = call i32 @HYPRE_IJMatrixGetObject(%struct.hypre_IJMatrix_struct* %36, i8** nonnull %37)
  %39 = load %struct.hypre_ParCSRMatrix_struct*, %struct.hypre_ParCSRMatrix_struct** %13, align 8, !tbaa !34
  %40 = call i32 @HYPRE_ParCSRMatrixGetRowPartitioning(%struct.hypre_ParCSRMatrix_struct* %39, i32** nonnull %4)
  %41 = load i32*, i32** %4, align 8, !tbaa !34
  %42 = load i32, i32* %2, align 4, !tbaa !35
  %43 = sext i32 %42 to i64
  %44 = getelementptr inbounds i32, i32* %41, i64 %43
  %45 = load i32, i32* %44, align 4, !tbaa !35
  %46 = add nsw i32 %42, 1
  %47 = sext i32 %46 to i64
  %48 = getelementptr inbounds i32, i32* %41, i64 %47
  %49 = load i32, i32* %48, align 4, !tbaa !35
  %50 = getelementptr inbounds %class.HYPRE_SlideReduction, %class.HYPRE_SlideReduction* %0, i64 0, i32 10
  %51 = load i32*, i32** %50, align 8, !tbaa !17
  %52 = load i32, i32* %3, align 4, !tbaa !35
  %53 = sext i32 %52 to i64
  %54 = getelementptr inbounds i32, i32* %51, i64 %53
  %55 = load i32, i32* %54, align 4, !tbaa !35
  %56 = getelementptr inbounds i32, i32* %41, i64 %53
  %57 = load i32, i32* %56, align 4, !tbaa !35
  %58 = getelementptr inbounds i32, i32* %51, i64 %47
  %59 = load i32, i32* %58, align 4, !tbaa !35
  %60 = getelementptr inbounds i32, i32* %51, i64 %43
  %61 = load i32, i32* %60, align 4, !tbaa !35
  %62 = sub nsw i32 %59, %61
  %63 = add i32 %45, %62
  %64 = sub i32 %49, %63
  %65 = sub nsw i32 %57, %55
  %66 = sub nsw i32 %45, %61
  %67 = getelementptr inbounds %class.HYPRE_SlideReduction, %class.HYPRE_SlideReduction* %0, i64 0, i32 9
  %68 = load i32, i32* %67, align 8, !tbaa !12
  %69 = and i32 %68, 3
  %70 = icmp eq i32 %69, 0
  br i1 %70, label %77, label %71

71:                                               ; preds = %1
  %72 = call i32 (i8*, ...) @printf(i8* nonnull dereferenceable(1) getelementptr inbounds ([42 x i8], [42 x i8]* @.str.37, i64 0, i64 0), i32 %42, i32 %61)
  %73 = load i32, i32* %2, align 4, !tbaa !35
  %74 = call i32 (i8*, ...) @printf(i8* nonnull dereferenceable(1) getelementptr inbounds ([45 x i8], [45 x i8]* @.str.38, i64 0, i64 0), i32 %73, i32 %55, i32 %65)
  %75 = load i32, i32* %2, align 4, !tbaa !35
  %76 = call i32 (i8*, ...) @printf(i8* nonnull dereferenceable(1) getelementptr inbounds ([45 x i8], [45 x i8]* @.str.39, i64 0, i64 0), i32 %75, i32 %62, i32 %64)
  br label %77

77:                                               ; preds = %71, %1
  %78 = load i32, i32* %30, align 8, !tbaa !6
  %79 = add nsw i32 %59, -1
  %80 = add i32 %66, -1
  %81 = add i32 %80, %64
  %82 = getelementptr inbounds %class.HYPRE_SlideReduction, %class.HYPRE_SlideReduction* %0, i64 0, i32 3
  %83 = call i32 @HYPRE_IJMatrixCreate(i32 %78, i32 %61, i32 %79, i32 %66, i32 %81, %struct.hypre_IJMatrix_struct** nonnull %82)
  %84 = load %struct.hypre_IJMatrix_struct*, %struct.hypre_IJMatrix_struct** %82, align 8, !tbaa !25
  %85 = call i32 @HYPRE_IJMatrixSetObjectType(%struct.hypre_IJMatrix_struct* %84, i32 5555)
  store i32 0, i32* %9, align 4, !tbaa !35
  %86 = xor i32 %62, -1
  %87 = add i32 %49, %86
  %88 = icmp sgt i32 %62, 0
  br i1 %88, label %89, label %97

89:                                               ; preds = %77
  %90 = sext i32 %62 to i64
  %91 = call { i64, i1 } @llvm.umul.with.overflow.i64(i64 %90, i64 4)
  %92 = extractvalue { i64, i1 } %91, 1
  %93 = extractvalue { i64, i1 } %91, 0
  %94 = select i1 %92, i64 -1, i64 %93
  %95 = call noalias nonnull i8* @_Znam(i64 %94) #23
  %96 = bitcast i8* %95 to i32*
  br label %97

97:                                               ; preds = %77, %89
  %98 = phi i32* [ %96, %89 ], [ null, %77 ]
  %99 = sub i32 %49, %62
  %100 = sub i32 %62, %49
  %101 = icmp slt i32 %99, %49
  br i1 %101, label %102, label %150

102:                                              ; preds = %97
  %103 = zext i32 %99 to i64
  br label %104

104:                                              ; preds = %102, %133
  %105 = phi i64 [ %103, %102 ], [ %144, %133 ]
  %106 = phi i32 [ 0, %102 ], [ %140, %133 ]
  %107 = load %struct.hypre_ParCSRMatrix_struct*, %struct.hypre_ParCSRMatrix_struct** %13, align 8, !tbaa !34
  %108 = trunc i64 %105 to i32
  %109 = call i32 @HYPRE_ParCSRMatrixGetRow(%struct.hypre_ParCSRMatrix_struct* %107, i32 %108, i32* nonnull %11, i32** nonnull %10, double** nonnull %12)
  store i32 0, i32* %7, align 4, !tbaa !35
  %110 = load i32, i32* %11, align 4, !tbaa !35
  %111 = load i32*, i32** %10, align 8
  %112 = load double*, double** %12, align 8
  %113 = icmp sgt i32 %110, 0
  br i1 %113, label %114, label %133

114:                                              ; preds = %104
  %115 = zext i32 %110 to i64
  br label %116

116:                                              ; preds = %114, %130
  %117 = phi i64 [ 0, %114 ], [ %131, %130 ]
  %118 = getelementptr inbounds i32, i32* %111, i64 %117
  %119 = load i32, i32* %118, align 4, !tbaa !35
  %120 = getelementptr inbounds double, double* %112, i64 %117
  %121 = load double, double* %120, align 8, !tbaa !41
  %122 = fcmp une double %121, 0.000000e+00
  br i1 %122, label %123, label %130

123:                                              ; preds = %116
  %124 = icmp sgt i32 %119, %87
  %125 = icmp slt i32 %119, %49
  %126 = and i1 %124, %125
  br i1 %126, label %130, label %127

127:                                              ; preds = %123
  %128 = load i32, i32* %7, align 4, !tbaa !35
  %129 = add nsw i32 %128, 1
  store i32 %129, i32* %7, align 4, !tbaa !35
  br label %130

130:                                              ; preds = %123, %116, %127
  %131 = add nuw nsw i64 %117, 1
  %132 = icmp eq i64 %131, %115
  br i1 %132, label %133, label %116, !llvm.loop !104

133:                                              ; preds = %130, %104
  %134 = load i32, i32* %7, align 4, !tbaa !35
  %135 = trunc i64 %105 to i32
  %136 = add i32 %100, %135
  %137 = sext i32 %136 to i64
  %138 = getelementptr inbounds i32, i32* %98, i64 %137
  store i32 %134, i32* %138, align 4, !tbaa !35
  %139 = icmp sgt i32 %134, %106
  %140 = select i1 %139, i32 %134, i32 %106
  %141 = load %struct.hypre_ParCSRMatrix_struct*, %struct.hypre_ParCSRMatrix_struct** %13, align 8, !tbaa !34
  %142 = trunc i64 %105 to i32
  %143 = call i32 @HYPRE_ParCSRMatrixRestoreRow(%struct.hypre_ParCSRMatrix_struct* %141, i32 %142, i32* nonnull %11, i32** nonnull %10, double** nonnull %12)
  %144 = add i64 %105, 1
  %145 = trunc i64 %144 to i32
  %146 = icmp eq i32 %49, %145
  br i1 %146, label %147, label %104, !llvm.loop !105

147:                                              ; preds = %133
  %148 = add i32 %140, 1
  %149 = sext i32 %148 to i64
  br label %150

150:                                              ; preds = %147, %97
  %151 = phi i64 [ 1, %97 ], [ %149, %147 ]
  store i32 0, i32* %8, align 4, !tbaa !35
  %152 = icmp sgt i32 %62, 0
  br i1 %152, label %153, label %166

153:                                              ; preds = %150
  %154 = load i32, i32* %8, align 4, !tbaa !35
  %155 = sub i32 %59, %61
  %156 = zext i32 %155 to i64
  br label %157

157:                                              ; preds = %153, %157
  %158 = phi i64 [ 0, %153 ], [ %163, %157 ]
  %159 = phi i32 [ %154, %153 ], [ %162, %157 ]
  %160 = getelementptr inbounds i32, i32* %98, i64 %158
  %161 = load i32, i32* %160, align 4, !tbaa !35
  %162 = add nsw i32 %159, %161
  %163 = add nuw nsw i64 %158, 1
  %164 = icmp eq i64 %163, %156
  br i1 %164, label %165, label %157, !llvm.loop !106

165:                                              ; preds = %157
  store i32 %162, i32* %8, align 4, !tbaa !35
  br label %166

166:                                              ; preds = %165, %150
  %167 = load i32, i32* %30, align 8, !tbaa !6
  %168 = call i32 @MPI_Allreduce(i8* nonnull %22, i8* nonnull %19, i32 1, i32 1275069445, i32 1476395011, i32 %167)
  %169 = load i32, i32* %2, align 4, !tbaa !35
  %170 = icmp eq i32 %169, 0
  br i1 %170, label %171, label %178

171:                                              ; preds = %166
  %172 = load i32, i32* %67, align 8, !tbaa !12
  %173 = and i32 %172, 3
  %174 = icmp eq i32 %173, 0
  br i1 %174, label %178, label %175

175:                                              ; preds = %171
  %176 = load i32, i32* %5, align 4, !tbaa !35
  %177 = call i32 (i8*, ...) @printf(i8* nonnull dereferenceable(1) getelementptr inbounds ([43 x i8], [43 x i8]* @.str.40, i64 0, i64 0), i32 %176)
  br label %178

178:                                              ; preds = %175, %171, %166
  %179 = load %struct.hypre_IJMatrix_struct*, %struct.hypre_IJMatrix_struct** %82, align 8, !tbaa !25
  %180 = call i32 @HYPRE_IJMatrixSetRowSizes(%struct.hypre_IJMatrix_struct* %179, i32* %98)
  %181 = load %struct.hypre_IJMatrix_struct*, %struct.hypre_IJMatrix_struct** %82, align 8, !tbaa !25
  %182 = call i32 @HYPRE_IJMatrixInitialize(%struct.hypre_IJMatrix_struct* %181)
  %183 = xor i1 %88, true
  %184 = icmp eq i32* %98, null
  %185 = select i1 %183, i1 true, i1 %184
  br i1 %185, label %188, label %186

186:                                              ; preds = %178
  %187 = bitcast i32* %98 to i8*
  call void @_ZdaPv(i8* %187) #20
  br label %188

188:                                              ; preds = %186, %178
  store i32 %61, i32* %9, align 4, !tbaa !35
  %189 = call { i64, i1 } @llvm.umul.with.overflow.i64(i64 %151, i64 4)
  %190 = extractvalue { i64, i1 } %189, 1
  %191 = extractvalue { i64, i1 } %189, 0
  %192 = select i1 %190, i64 -1, i64 %191
  %193 = call noalias nonnull i8* @_Znam(i64 %192) #23
  %194 = bitcast i8* %193 to i32*
  %195 = call { i64, i1 } @llvm.umul.with.overflow.i64(i64 %151, i64 8)
  %196 = extractvalue { i64, i1 } %195, 1
  %197 = extractvalue { i64, i1 } %195, 0
  %198 = select i1 %196, i64 -1, i64 %197
  %199 = call noalias nonnull i8* @_Znam(i64 %198) #23
  %200 = bitcast i8* %199 to double*
  %201 = icmp slt i32 %99, %49
  br i1 %201, label %202, label %263

202:                                              ; preds = %188, %254
  %203 = phi i32 [ %261, %254 ], [ %99, %188 ]
  %204 = load %struct.hypre_ParCSRMatrix_struct*, %struct.hypre_ParCSRMatrix_struct** %13, align 8, !tbaa !34
  %205 = call i32 @HYPRE_ParCSRMatrixGetRow(%struct.hypre_ParCSRMatrix_struct* %204, i32 %203, i32* nonnull %11, i32** nonnull %10, double** nonnull %12)
  store i32 0, i32* %7, align 4, !tbaa !35
  %206 = load i32, i32* %11, align 4, !tbaa !35
  %207 = load i32*, i32** %10, align 8
  %208 = load double*, double** %12, align 8
  %209 = load i32, i32* %3, align 4
  %210 = load i32*, i32** %4, align 8
  %211 = icmp sgt i32 %209, 0
  %212 = load i32*, i32** %50, align 8
  %213 = icmp sgt i32 %206, 0
  br i1 %213, label %214, label %254

214:                                              ; preds = %202
  %215 = zext i32 %206 to i64
  %216 = zext i32 %209 to i64
  br label %217

217:                                              ; preds = %214, %251
  %218 = phi i64 [ 0, %214 ], [ %252, %251 ]
  %219 = getelementptr inbounds i32, i32* %207, i64 %218
  %220 = load i32, i32* %219, align 4, !tbaa !35
  %221 = getelementptr inbounds double, double* %208, i64 %218
  %222 = load double, double* %221, align 8, !tbaa !41
  %223 = fcmp une double %222, 0.000000e+00
  br i1 %223, label %224, label %251

224:                                              ; preds = %217
  %225 = icmp sgt i32 %220, %87
  %226 = icmp slt i32 %220, %49
  %227 = and i1 %225, %226
  br i1 %227, label %251, label %228

228:                                              ; preds = %224
  br i1 %211, label %229, label %239

229:                                              ; preds = %228, %234
  %230 = phi i64 [ %235, %234 ], [ 0, %228 ]
  %231 = getelementptr inbounds i32, i32* %210, i64 %230
  %232 = load i32, i32* %231, align 4, !tbaa !35
  %233 = icmp sgt i32 %232, %220
  br i1 %233, label %237, label %234

234:                                              ; preds = %229
  %235 = add nuw nsw i64 %230, 1
  %236 = icmp eq i64 %235, %216
  br i1 %236, label %239, label %229, !llvm.loop !107

237:                                              ; preds = %229
  %238 = trunc i64 %230 to i32
  br label %239

239:                                              ; preds = %237, %234, %228
  %240 = phi i32 [ 0, %228 ], [ %238, %237 ], [ %209, %234 ]
  %241 = add nsw i32 %240, -1
  %242 = sext i32 %241 to i64
  %243 = getelementptr inbounds i32, i32* %212, i64 %242
  %244 = load i32, i32* %243, align 4, !tbaa !35
  %245 = sub nsw i32 %220, %244
  %246 = load i32, i32* %7, align 4, !tbaa !35
  %247 = sext i32 %246 to i64
  %248 = getelementptr inbounds i32, i32* %194, i64 %247
  store i32 %245, i32* %248, align 4, !tbaa !35
  %249 = add nsw i32 %246, 1
  store i32 %249, i32* %7, align 4, !tbaa !35
  %250 = getelementptr inbounds double, double* %200, i64 %247
  store double %222, double* %250, align 8, !tbaa !41
  br label %251

251:                                              ; preds = %224, %217, %239
  %252 = add nuw nsw i64 %218, 1
  %253 = icmp eq i64 %252, %215
  br i1 %253, label %254, label %217, !llvm.loop !108

254:                                              ; preds = %251, %202
  %255 = load %struct.hypre_IJMatrix_struct*, %struct.hypre_IJMatrix_struct** %82, align 8, !tbaa !25
  %256 = call i32 @HYPRE_IJMatrixSetValues(%struct.hypre_IJMatrix_struct* %255, i32 1, i32* nonnull %7, i32* nonnull %9, i32* nonnull %194, double* nonnull %200)
  %257 = load %struct.hypre_ParCSRMatrix_struct*, %struct.hypre_ParCSRMatrix_struct** %13, align 8, !tbaa !34
  %258 = call i32 @HYPRE_ParCSRMatrixRestoreRow(%struct.hypre_ParCSRMatrix_struct* %257, i32 %203, i32* nonnull %11, i32** nonnull %10, double** nonnull %12)
  %259 = load i32, i32* %9, align 4, !tbaa !35
  %260 = add nsw i32 %259, 1
  store i32 %260, i32* %9, align 4, !tbaa !35
  %261 = add i32 %203, 1
  %262 = icmp eq i32 %261, %49
  br i1 %262, label %263, label %202, !llvm.loop !109

263:                                              ; preds = %254, %188
  call void @_ZdaPv(i8* %193) #20
  call void @_ZdaPv(i8* %199) #20
  %264 = load %struct.hypre_IJMatrix_struct*, %struct.hypre_IJMatrix_struct** %82, align 8, !tbaa !25
  %265 = call i32 @HYPRE_IJMatrixAssemble(%struct.hypre_IJMatrix_struct* %264)
  %266 = load %struct.hypre_IJMatrix_struct*, %struct.hypre_IJMatrix_struct** %82, align 8, !tbaa !25
  %267 = bitcast %struct.hypre_ParCSRMatrix_struct** %14 to i8**
  %268 = call i32 @HYPRE_IJMatrixGetObject(%struct.hypre_IJMatrix_struct* %266, i8** nonnull %267)
  %269 = load %struct.hypre_ParCSRMatrix_struct*, %struct.hypre_ParCSRMatrix_struct** %14, align 8, !tbaa !34
  %270 = call i32 @hypre_MatvecCommPkgCreate(%struct.hypre_ParCSRMatrix_struct* %269)
  %271 = load i32*, i32** %4, align 8, !tbaa !34
  %272 = load i32, i32* %2, align 4, !tbaa !35
  %273 = sext i32 %272 to i64
  %274 = getelementptr inbounds i32, i32* %271, i64 %273
  %275 = load i32, i32* %274, align 4, !tbaa !35
  %276 = load i32*, i32** %50, align 8, !tbaa !17
  %277 = getelementptr inbounds i32, i32* %276, i64 %273
  %278 = load i32, i32* %277, align 4, !tbaa !35
  %279 = sub nsw i32 %275, %278
  %280 = load i32, i32* %67, align 8, !tbaa !12
  %281 = and i32 %280, 3
  %282 = icmp eq i32 %281, 0
  br i1 %282, label %287, label %283

283:                                              ; preds = %263
  %284 = call i32 (i8*, ...) @printf(i8* nonnull dereferenceable(1) getelementptr inbounds ([53 x i8], [53 x i8]* @.str.41, i64 0, i64 0), i32 %272, i32 %65, i32 %65)
  %285 = load i32, i32* %2, align 4, !tbaa !35
  %286 = call i32 (i8*, ...) @printf(i8* nonnull dereferenceable(1) getelementptr inbounds ([54 x i8], [54 x i8]* @.str.42, i64 0, i64 0), i32 %285, i32 %64, i32 %64)
  br label %287

287:                                              ; preds = %283, %263
  %288 = load i32, i32* %30, align 8, !tbaa !6
  %289 = add i32 %64, -1
  %290 = add i32 %289, %279
  %291 = getelementptr inbounds %class.HYPRE_SlideReduction, %class.HYPRE_SlideReduction* %0, i64 0, i32 5
  %292 = call i32 @HYPRE_IJMatrixCreate(i32 %288, i32 %279, i32 %290, i32 %279, i32 %290, %struct.hypre_IJMatrix_struct** nonnull %291)
  %293 = load %struct.hypre_IJMatrix_struct*, %struct.hypre_IJMatrix_struct** %291, align 8, !tbaa !27
  %294 = call i32 @HYPRE_IJMatrixSetObjectType(%struct.hypre_IJMatrix_struct* %293, i32 5555)
  %295 = sext i32 %64 to i64
  %296 = call { i64, i1 } @llvm.umul.with.overflow.i64(i64 %295, i64 4)
  %297 = extractvalue { i64, i1 } %296, 1
  %298 = extractvalue { i64, i1 } %296, 0
  %299 = select i1 %297, i64 -1, i64 %298
  %300 = call noalias nonnull i8* @_Znam(i64 %299) #23
  %301 = bitcast i8* %300 to i32*
  store i32 0, i32* %9, align 4, !tbaa !35
  %302 = icmp sgt i32 %45, %87
  br i1 %302, label %368, label %303

303:                                              ; preds = %287, %352
  %304 = phi i32 [ %357, %352 ], [ 0, %287 ]
  %305 = phi i32 [ %363, %352 ], [ %45, %287 ]
  %306 = load %struct.hypre_ParCSRMatrix_struct*, %struct.hypre_ParCSRMatrix_struct** %13, align 8, !tbaa !34
  %307 = call i32 @HYPRE_ParCSRMatrixGetRow(%struct.hypre_ParCSRMatrix_struct* %306, i32 %305, i32* nonnull %11, i32** nonnull %10, double** nonnull %12)
  store i32 0, i32* %7, align 4, !tbaa !35
  %308 = load i32, i32* %11, align 4, !tbaa !35
  %309 = load i32*, i32** %10, align 8
  %310 = load i32, i32* %3, align 4
  %311 = load i32*, i32** %4, align 8
  %312 = icmp sgt i32 %310, 0
  %313 = load i32*, i32** %50, align 8
  %314 = icmp sgt i32 %308, 0
  br i1 %314, label %315, label %352

315:                                              ; preds = %303
  %316 = zext i32 %308 to i64
  %317 = zext i32 %310 to i64
  br label %318

318:                                              ; preds = %315, %349
  %319 = phi i64 [ 0, %315 ], [ %350, %349 ]
  %320 = getelementptr inbounds i32, i32* %309, i64 %319
  %321 = load i32, i32* %320, align 4, !tbaa !35
  br i1 %312, label %322, label %332

322:                                              ; preds = %318, %327
  %323 = phi i64 [ %328, %327 ], [ 0, %318 ]
  %324 = getelementptr inbounds i32, i32* %311, i64 %323
  %325 = load i32, i32* %324, align 4, !tbaa !35
  %326 = icmp sgt i32 %325, %321
  br i1 %326, label %330, label %327

327:                                              ; preds = %322
  %328 = add nuw nsw i64 %323, 1
  %329 = icmp eq i64 %328, %317
  br i1 %329, label %332, label %322, !llvm.loop !110

330:                                              ; preds = %322
  %331 = trunc i64 %323 to i32
  br label %332

332:                                              ; preds = %330, %327, %318
  %333 = phi i32 [ 0, %318 ], [ %331, %330 ], [ %310, %327 ]
  %334 = zext i32 %333 to i64
  %335 = getelementptr inbounds i32, i32* %311, i64 %334
  %336 = load i32, i32* %335, align 4, !tbaa !35
  %337 = getelementptr inbounds i32, i32* %313, i64 %334
  %338 = load i32, i32* %337, align 4, !tbaa !35
  %339 = add nsw i32 %333, -1
  %340 = sext i32 %339 to i64
  %341 = getelementptr inbounds i32, i32* %313, i64 %340
  %342 = load i32, i32* %341, align 4, !tbaa !35
  %343 = sub i32 %336, %338
  %344 = add i32 %343, %342
  %345 = icmp slt i32 %321, %344
  br i1 %345, label %346, label %349

346:                                              ; preds = %332
  %347 = load i32, i32* %7, align 4, !tbaa !35
  %348 = add nsw i32 %347, 1
  store i32 %348, i32* %7, align 4, !tbaa !35
  br label %349

349:                                              ; preds = %332, %346
  %350 = add nuw nsw i64 %319, 1
  %351 = icmp eq i64 %350, %316
  br i1 %351, label %352, label %318, !llvm.loop !111

352:                                              ; preds = %349, %303
  %353 = load i32, i32* %9, align 4, !tbaa !35
  %354 = add nsw i32 %353, %279
  store i32 %354, i32* %6, align 4, !tbaa !35
  %355 = load i32, i32* %7, align 4, !tbaa !35
  %356 = icmp sgt i32 %355, %304
  %357 = select i1 %356, i32 %355, i32 %304
  %358 = add nsw i32 %353, 1
  store i32 %358, i32* %9, align 4, !tbaa !35
  %359 = sext i32 %353 to i64
  %360 = getelementptr inbounds i32, i32* %301, i64 %359
  store i32 %355, i32* %360, align 4, !tbaa !35
  %361 = load %struct.hypre_ParCSRMatrix_struct*, %struct.hypre_ParCSRMatrix_struct** %13, align 8, !tbaa !34
  %362 = call i32 @HYPRE_ParCSRMatrixRestoreRow(%struct.hypre_ParCSRMatrix_struct* %361, i32 %305, i32* nonnull %11, i32** nonnull %10, double** nonnull %12)
  %363 = add nsw i32 %305, 1
  %364 = icmp slt i32 %305, %87
  br i1 %364, label %303, label %365, !llvm.loop !112

365:                                              ; preds = %352
  %366 = add i32 %357, 1
  %367 = sext i32 %366 to i64
  br label %368

368:                                              ; preds = %365, %287
  %369 = phi i64 [ 1, %287 ], [ %367, %365 ]
  %370 = load %struct.hypre_IJMatrix_struct*, %struct.hypre_IJMatrix_struct** %291, align 8, !tbaa !27
  %371 = call i32 @HYPRE_IJMatrixSetRowSizes(%struct.hypre_IJMatrix_struct* %370, i32* nonnull %301)
  %372 = load %struct.hypre_IJMatrix_struct*, %struct.hypre_IJMatrix_struct** %291, align 8, !tbaa !27
  %373 = call i32 @HYPRE_IJMatrixInitialize(%struct.hypre_IJMatrix_struct* %372)
  call void @_ZdaPv(i8* %300) #20
  store i32 0, i32* %9, align 4, !tbaa !35
  %374 = call { i64, i1 } @llvm.umul.with.overflow.i64(i64 %369, i64 4)
  %375 = extractvalue { i64, i1 } %374, 1
  %376 = extractvalue { i64, i1 } %374, 0
  %377 = select i1 %375, i64 -1, i64 %376
  %378 = call noalias nonnull i8* @_Znam(i64 %377) #23
  %379 = bitcast i8* %378 to i32*
  %380 = call { i64, i1 } @llvm.umul.with.overflow.i64(i64 %369, i64 8)
  %381 = extractvalue { i64, i1 } %380, 1
  %382 = extractvalue { i64, i1 } %380, 0
  %383 = select i1 %381, i64 -1, i64 %382
  %384 = call noalias nonnull i8* @_Znam(i64 %383) #23
  %385 = bitcast i8* %384 to double*
  %386 = icmp sgt i32 %45, %87
  br i1 %386, label %455, label %387

387:                                              ; preds = %368, %446
  %388 = phi i32 [ %453, %446 ], [ %45, %368 ]
  %389 = load %struct.hypre_ParCSRMatrix_struct*, %struct.hypre_ParCSRMatrix_struct** %13, align 8, !tbaa !34
  %390 = call i32 @HYPRE_ParCSRMatrixGetRow(%struct.hypre_ParCSRMatrix_struct* %389, i32 %388, i32* nonnull %11, i32** nonnull %10, double** nonnull %12)
  store i32 0, i32* %7, align 4, !tbaa !35
  %391 = load i32, i32* %11, align 4, !tbaa !35
  %392 = icmp sgt i32 %391, 0
  br i1 %392, label %393, label %446

393:                                              ; preds = %387, %439
  %394 = phi i64 [ %442, %439 ], [ 0, %387 ]
  %395 = load i32*, i32** %10, align 8, !tbaa !34
  %396 = getelementptr inbounds i32, i32* %395, i64 %394
  %397 = load i32, i32* %396, align 4, !tbaa !35
  %398 = load i32, i32* %3, align 4, !tbaa !35
  %399 = load i32*, i32** %4, align 8
  %400 = icmp sgt i32 %398, 0
  br i1 %400, label %401, label %413

401:                                              ; preds = %393
  %402 = zext i32 %398 to i64
  br label %403

403:                                              ; preds = %401, %408
  %404 = phi i64 [ 0, %401 ], [ %409, %408 ]
  %405 = getelementptr inbounds i32, i32* %399, i64 %404
  %406 = load i32, i32* %405, align 4, !tbaa !35
  %407 = icmp sgt i32 %406, %397
  br i1 %407, label %411, label %408

408:                                              ; preds = %403
  %409 = add nuw nsw i64 %404, 1
  %410 = icmp eq i64 %409, %402
  br i1 %410, label %413, label %403, !llvm.loop !113

411:                                              ; preds = %403
  %412 = trunc i64 %404 to i32
  br label %413

413:                                              ; preds = %411, %408, %393
  %414 = phi i32 [ 0, %393 ], [ %412, %411 ], [ %398, %408 ]
  %415 = load i32*, i32** %4, align 8, !tbaa !34
  %416 = zext i32 %414 to i64
  %417 = getelementptr inbounds i32, i32* %415, i64 %416
  %418 = load i32, i32* %417, align 4, !tbaa !35
  %419 = load i32*, i32** %50, align 8, !tbaa !17
  %420 = getelementptr inbounds i32, i32* %419, i64 %416
  %421 = load i32, i32* %420, align 4, !tbaa !35
  %422 = add nsw i32 %414, -1
  %423 = sext i32 %422 to i64
  %424 = getelementptr inbounds i32, i32* %419, i64 %423
  %425 = load i32, i32* %424, align 4, !tbaa !35
  %426 = sub i32 %418, %421
  %427 = add i32 %426, %425
  %428 = icmp slt i32 %397, %427
  br i1 %428, label %429, label %439

429:                                              ; preds = %413
  %430 = sub nsw i32 %397, %425
  %431 = load i32, i32* %7, align 4, !tbaa !35
  %432 = sext i32 %431 to i64
  %433 = getelementptr inbounds i32, i32* %379, i64 %432
  store i32 %430, i32* %433, align 4, !tbaa !35
  %434 = load double*, double** %12, align 8, !tbaa !34
  %435 = getelementptr inbounds double, double* %434, i64 %394
  %436 = load double, double* %435, align 8, !tbaa !41
  %437 = add nsw i32 %431, 1
  store i32 %437, i32* %7, align 4, !tbaa !35
  %438 = getelementptr inbounds double, double* %385, i64 %432
  store double %436, double* %438, align 8, !tbaa !41
  br label %439

439:                                              ; preds = %429, %413
  %440 = load %struct.hypre_ParCSRMatrix_struct*, %struct.hypre_ParCSRMatrix_struct** %13, align 8, !tbaa !34
  %441 = call i32 @HYPRE_ParCSRMatrixRestoreRow(%struct.hypre_ParCSRMatrix_struct* %440, i32 %388, i32* nonnull %11, i32** nonnull %10, double** nonnull %12)
  %442 = add nuw nsw i64 %394, 1
  %443 = load i32, i32* %11, align 4, !tbaa !35
  %444 = sext i32 %443 to i64
  %445 = icmp slt i64 %442, %444
  br i1 %445, label %393, label %446, !llvm.loop !114

446:                                              ; preds = %439, %387
  %447 = load i32, i32* %9, align 4, !tbaa !35
  %448 = add nsw i32 %447, %279
  store i32 %448, i32* %6, align 4, !tbaa !35
  %449 = load %struct.hypre_IJMatrix_struct*, %struct.hypre_IJMatrix_struct** %291, align 8, !tbaa !27
  %450 = call i32 @HYPRE_IJMatrixSetValues(%struct.hypre_IJMatrix_struct* %449, i32 1, i32* nonnull %7, i32* nonnull %6, i32* nonnull %379, double* nonnull %385)
  %451 = load i32, i32* %9, align 4, !tbaa !35
  %452 = add nsw i32 %451, 1
  store i32 %452, i32* %9, align 4, !tbaa !35
  %453 = add nsw i32 %388, 1
  %454 = icmp slt i32 %388, %87
  br i1 %454, label %387, label %455, !llvm.loop !115

455:                                              ; preds = %446, %368
  call void @_ZdaPv(i8* %378) #20
  call void @_ZdaPv(i8* %384) #20
  %456 = bitcast i32** %4 to i8**
  %457 = load i8*, i8** %456, align 8, !tbaa !34
  call void @free(i8* %457) #22
  %458 = load %struct.hypre_IJMatrix_struct*, %struct.hypre_IJMatrix_struct** %291, align 8, !tbaa !27
  %459 = call i32 @HYPRE_IJMatrixAssemble(%struct.hypre_IJMatrix_struct* %458)
  %460 = load %struct.hypre_IJMatrix_struct*, %struct.hypre_IJMatrix_struct** %291, align 8, !tbaa !27
  %461 = bitcast %struct.hypre_ParCSRMatrix_struct** %15 to i8**
  %462 = call i32 @HYPRE_IJMatrixGetObject(%struct.hypre_IJMatrix_struct* %460, i8** nonnull %461)
  call void @llvm.lifetime.end.p0i8(i64 8, i8* nonnull %29) #22
  call void @llvm.lifetime.end.p0i8(i64 8, i8* nonnull %28) #22
  call void @llvm.lifetime.end.p0i8(i64 8, i8* nonnull %27) #22
  call void @llvm.lifetime.end.p0i8(i64 8, i8* nonnull %26) #22
  call void @llvm.lifetime.end.p0i8(i64 4, i8* nonnull %25) #22
  call void @llvm.lifetime.end.p0i8(i64 8, i8* nonnull %24) #22
  call void @llvm.lifetime.end.p0i8(i64 4, i8* nonnull %23) #22
  call void @llvm.lifetime.end.p0i8(i64 4, i8* nonnull %22) #22
  call void @llvm.lifetime.end.p0i8(i64 4, i8* nonnull %21) #22
  call void @llvm.lifetime.end.p0i8(i64 4, i8* nonnull %20) #22
  call void @llvm.lifetime.end.p0i8(i64 4, i8* nonnull %19) #22
  call void @llvm.lifetime.end.p0i8(i64 8, i8* nonnull %18) #22
  call void @llvm.lifetime.end.p0i8(i64 4, i8* nonnull %17) #22
  call void @llvm.lifetime.end.p0i8(i64 4, i8* nonnull %16) #22
  ret i32 0
}

; Function Attrs: mustprogress uwtable
define dso_local i32 @_ZN20HYPRE_SlideReduction21buildReducedRHSVectorEP21hypre_IJVector_struct(%class.HYPRE_SlideReduction* nonnull align 8 dereferenceable(184) %0, %struct.hypre_IJVector_struct* %1) local_unnamed_addr #6 align 2 {
  %3 = alloca i32, align 4
  %4 = alloca i32, align 4
  %5 = alloca i32*, align 8
  %6 = alloca i32, align 4
  %7 = alloca double, align 8
  %8 = alloca %struct.hypre_ParCSRMatrix_struct*, align 8
  %9 = alloca %struct.hypre_ParCSRMatrix_struct*, align 8
  %10 = alloca %struct.hypre_ParCSRMatrix_struct*, align 8
  %11 = alloca %struct.hypre_IJVector_struct*, align 8
  %12 = alloca %struct.hypre_IJVector_struct*, align 8
  %13 = alloca %struct.hypre_ParVector_struct*, align 8
  %14 = alloca %struct.hypre_ParVector_struct*, align 8
  %15 = alloca %struct.hypre_ParVector_struct*, align 8
  %16 = alloca %struct.hypre_ParVector_struct*, align 8
  %17 = bitcast i32* %3 to i8*
  call void @llvm.lifetime.start.p0i8(i64 4, i8* nonnull %17) #22
  %18 = bitcast i32* %4 to i8*
  call void @llvm.lifetime.start.p0i8(i64 4, i8* nonnull %18) #22
  %19 = bitcast i32** %5 to i8*
  call void @llvm.lifetime.start.p0i8(i64 8, i8* nonnull %19) #22
  %20 = bitcast i32* %6 to i8*
  call void @llvm.lifetime.start.p0i8(i64 4, i8* nonnull %20) #22
  %21 = bitcast double* %7 to i8*
  call void @llvm.lifetime.start.p0i8(i64 8, i8* nonnull %21) #22
  %22 = bitcast %struct.hypre_ParCSRMatrix_struct** %8 to i8*
