; ModuleID = '/hypre/src/FEI_mv/fei-hypre/LLNL_FEI_Fei.cxx'
source_filename = "/hypre/src/FEI_mv/fei-hypre/LLNL_FEI_Fei.cxx"
target datalayout = "e-m:e-p270:32:32-p271:32:32-p272:64:64-i64:64-f80:128-n8:16:32:64-S128"
target triple = "x86_64-unknown-linux-gnu"

%class.LLNL_FEI_Elem_Block = type { i32, i32, i32, i32*, i32**, i32*, i32*, double**, double**, double**, i32, i32, double*, double* }
%class.LLNL_FEI_Fei = type { i32, i32, i32, i32, %class.LLNL_FEI_Elem_Block**, i32, i32, i32, i32*, i32*, i32*, i32*, i32, i32, i32**, i32, double**, double*, i32, i32*, i32*, i32**, i32, i32*, i32*, i32*, i32, i32*, i32*, i32*, i32, i32*, double**, double**, double**, %class.LLNL_FEI_Matrix*, double*, double*, i32, double, double, double, double }
%class.LLNL_FEI_Matrix = type { i32, i32, i32, i32, i32, i32, i32*, i32*, i32*, i32*, i32*, i32*, double*, i32*, i32*, double*, double*, i32, i32*, i32*, i32*, double*, double*, i32, i32*, i32*, i32*, double*, i32*, i32, i32 }
%struct.MPI_Status = type { i32, i32, i32, i32, i32 }

$__clang_call_terminate = comdat any

@.str.2 = private unnamed_addr constant [31 x i8] c"%4d : LLNL_FEI_Fei destructor\0A\00", align 1
@.str.3 = private unnamed_addr constant [3 x i8] c"%s\00", align 1
@.str.4 = private unnamed_addr constant [12 x i8] c"outputLevel\00", align 1
@.str.5 = private unnamed_addr constant [6 x i8] c"%s %d\00", align 1
@.str.6 = private unnamed_addr constant [16 x i8] c"matrixNoOverlap\00", align 1
@.str.7 = private unnamed_addr constant [9 x i8] c"setDebug\00", align 1
@.str.8 = private unnamed_addr constant [57 x i8] c"%4d : LLNL_FEI_Fei::initFields WARNING -  numFields != 1\00", align 1
@.str.10 = private unnamed_addr constant [46 x i8] c"%4d : LLNL_FEI_Fei::initElemBlock begins... \0A\00", align 1
@.str.11 = private unnamed_addr constant [35 x i8] c"               elemBlockID  = %d \0A\00", align 1
@.str.12 = private unnamed_addr constant [35 x i8] c"               numElements  = %d \0A\00", align 1
@.str.13 = private unnamed_addr constant [35 x i8] c"               nodesPerElem = %d \0A\00", align 1
@.str.14 = private unnamed_addr constant [37 x i8] c"               Node %d has fields : \00", align 1
@.str.15 = private unnamed_addr constant [4 x i8] c"%d \00", align 1
@.str.17 = private unnamed_addr constant [42 x i8] c"               Element field IDs %d = %d\0A\00", align 1
@.str.18 = private unnamed_addr constant [43 x i8] c"%4d : LLNL_FEI_Fei::initElemBlock ERROR - \00", align 1
@.str.20 = private unnamed_addr constant [41 x i8] c"%4d : LLNL_FEI_Fei::initElemBlock ends.\0A\00", align 1
@.str.21 = private unnamed_addr constant [48 x i8] c"%4d : LLNL_FEI_Fei::initSharedNodes begins... \0A\00", align 1
@.str.22 = private unnamed_addr constant [44 x i8] c"%4d : LLNL_FEI_Fei::initSharedNodes ends. \0A\00", align 1
@.str.23 = private unnamed_addr constant [43 x i8] c"%4d : LLNL_FEI_Fei::resetSystem begins...\0A\00", align 1
@.str.24 = private unnamed_addr constant [39 x i8] c"%4d : LLNL_FEI_Fei::resetSystem ends.\0A\00", align 1
@.str.25 = private unnamed_addr constant [43 x i8] c"%4d : LLNL_FEI_Fei::resetMatrix begins...\0A\00", align 1
@.str.26 = private unnamed_addr constant [39 x i8] c"%4d : LLNL_FEI_Fei::resetMatrix ends.\0A\00", align 1
@.str.27 = private unnamed_addr constant [46 x i8] c"%4d : LLNL_FEI_Fei::resetRHSVector begins...\0A\00", align 1
@.str.28 = private unnamed_addr constant [42 x i8] c"%4d : LLNL_FEI_Fei::resetRHSVector ends.\0A\00", align 1
@.str.29 = private unnamed_addr constant [49 x i8] c"%4d : LLNL_FEI_Fei::resetInitialGuess begins...\0A\00", align 1
@.str.30 = private unnamed_addr constant [50 x i8] c"%4d : LLNL_FEI_Fei::resetInitialGuess ends (%e).\0A\00", align 1
@.str.31 = private unnamed_addr constant [47 x i8] c"%4d : LLNL_FEI_Fei::loadNodeBCs begins...(%d)\0A\00", align 1
@.str.32 = private unnamed_addr constant [39 x i8] c"%4d : LLNL_FEI_Fei::loadNodeBCs ends.\0A\00", align 1
@.str.33 = private unnamed_addr constant [46 x i8] c"%4d : LLNL_FEI_Fei::loadComplete begins.... \0A\00", align 1
@.str.34 = private unnamed_addr constant [53 x i8] c"%4d : LLNL_FEI_Fei::loadComplete - nLocalNodes = %d\0A\00", align 1
@.str.35 = private unnamed_addr constant [53 x i8] c"%4d : LLNL_FEI_Fei::loadComplete - numExtNodes = %d\0A\00", align 1
@.str.36 = private unnamed_addr constant [53 x i8] c"%4d : LLNL_FEI_Fei::loadComplete - numCRMult   = %d\0A\00", align 1
@.str.37 = private unnamed_addr constant [43 x i8] c"%4d : LLNL_FEI_Fei::loadComplete ERROR(2)\0A\00", align 1
@.str.38 = private unnamed_addr constant [41 x i8] c"%4d : LLNL_FEI_Fei::loadComplete ends. \0A\00", align 1
@.str.39 = private unnamed_addr constant [55 x i8] c"%4d : LLNL_FEI_Fei::getNumBlockActNodes blockID = %d.\0A\00", align 1
@.str.40 = private unnamed_addr constant [55 x i8] c"%4d : LLNL_FEI_Fei::getNumBlockActNodes numNodes = %d\0A\00", align 1
@.str.41 = private unnamed_addr constant [48 x i8] c"%4d : LLNL_FEI_Fei::getNumBlockActNodes ERROR -\00", align 1
@.str.43 = private unnamed_addr constant [53 x i8] c"%4d : LLNL_FEI_Fei::getNumBlockActEqns blockID = %d\0A\00", align 1
@.str.44 = private unnamed_addr constant [53 x i8] c"%4d : LLNL_FEI_Fei::getNumBlockActEqns numEqns = %d\0A\00", align 1
@.str.45 = private unnamed_addr constant [54 x i8] c"%4d : LLNL_FEI_Fei::getBlockNodeIDList blockID  = %d\0A\00", align 1
@.str.46 = private unnamed_addr constant [54 x i8] c"%4d : LLNL_FEI_Fei::getBlockNodeIDList numNodes = %d\0A\00", align 1
@.str.47 = private unnamed_addr constant [54 x i8] c"%4d : LLNL_FEI_Fei::getBlockNodeIDList ERROR - nNodes\00", align 1
@.str.49 = private unnamed_addr constant [47 x i8] c"%4d : LLNL_FEI_Fei::getBlockNodeIDList ERROR -\00", align 1
@.str.51 = private unnamed_addr constant [27 x i8] c" nNodes mismatch (%d,%d).\0A\00", align 1
@.str.52 = private unnamed_addr constant [56 x i8] c"%4d : LLNL_FEI_Fei::getBlockNodeSolution blockID  = %d\0A\00", align 1
@.str.53 = private unnamed_addr constant [56 x i8] c"%4d : LLNL_FEI_Fei::getBlockNodeSolution numNodes = %d\0A\00", align 1
@.str.54 = private unnamed_addr constant [49 x i8] c"%4d : LLNL_FEI_Fei::getBlockNodeSolution ERROR -\00", align 1
@.str.55 = private unnamed_addr constant [42 x i8] c"%4d : LLNL_FEI_Fei::initCRMult begins...\0A\00", align 1
@.str.56 = private unnamed_addr constant [61 x i8] c"%4d : LLNL_FEI_Fei::initCRMult ERROR : inconsistent lengths\0A\00", align 1
@.str.57 = private unnamed_addr constant [48 x i8] c"%4d : LLNL_FEI_Fei::initCRMult lengths = %d %d\0A\00", align 1
@.str.58 = private unnamed_addr constant [38 x i8] c"%4d : LLNL_FEI_Fei::initCRMult ends.\0A\00", align 1
@.str.59 = private unnamed_addr constant [42 x i8] c"%4d : LLNL_FEI_Fei::loadCRMult begins...\0A\00", align 1
@.str.60 = private unnamed_addr constant [61 x i8] c"%4d : LLNL_FEI_Fei::loadCRMult ERROR : invalid ID = %d (%d)\0A\00", align 1
@.str.61 = private unnamed_addr constant [61 x i8] c"%4d : LLNL_FEI_Fei::loadCRMult ERROR : inconsistent lengths\0A\00", align 1
@.str.62 = private unnamed_addr constant [48 x i8] c"%4d : LLNL_FEI_Fei::loadCRMult lengths = %d %d\0A\00", align 1
@.str.63 = private unnamed_addr constant [38 x i8] c"%4d : LLNL_FEI_Fei::loadCRMult ends.\0A\00", align 1
@.str.64 = private unnamed_addr constant [54 x i8] c"%4d : LLNL_FEI_Fei::buildGlobalMatrixVector begins..\0A\00", align 1
@.str.65 = private unnamed_addr constant [55 x i8] c"%4d : LLNL_FEI_Fei::buildGlobalMatrixVector ERROR(1).\0A\00", align 1
@.str.66 = private unnamed_addr constant [55 x i8] c"%4d : LLNL_FEI_Fei::buildGlobalMatrixVector ERROR(2).\0A\00", align 1
@.str.67 = private unnamed_addr constant [55 x i8] c"%4d : LLNL_FEI_Fei::buildGlobalMatrixVector mid phase\0A\00", align 1
@.str.69 = private unnamed_addr constant [52 x i8] c"%4d : LLNL_FEI_Fei::buildGlobalMatrixVector ends. \0A\00", align 1
@str = private unnamed_addr constant [61 x i8] c"LLNL_FEI_Elem_Block::loadElemInfo ERROR : too many elements.\00", align 1
@str.70 = private unnamed_addr constant [62 x i8] c"LLNL_FEI_Elem_Block::loadElemMatrix ERROR- too many elements.\00", align 1
@str.71 = private unnamed_addr constant [15 x i8] c" Take field 0.\00", align 1
@str.72 = private unnamed_addr constant [17 x i8] c"repeated blockID\00", align 1
@str.73 = private unnamed_addr constant [30 x i8] c"ERROR : BC node ID not local.\00", align 1
@str.74 = private unnamed_addr constant [17 x i8] c" invalid blockID\00", align 1
@str.76 = private unnamed_addr constant [11 x i8] c" mismatch.\00", align 1
@str.77 = private unnamed_addr constant [18 x i8] c" invalid blockID.\00", align 1

@_ZN19LLNL_FEI_Elem_BlockC1Ei = dso_local unnamed_addr alias void (%class.LLNL_FEI_Elem_Block*, i32), void (%class.LLNL_FEI_Elem_Block*, i32)* @_ZN19LLNL_FEI_Elem_BlockC2Ei
@_ZN19LLNL_FEI_Elem_BlockD1Ev = dso_local unnamed_addr alias void (%class.LLNL_FEI_Elem_Block*), void (%class.LLNL_FEI_Elem_Block*)* @_ZN19LLNL_FEI_Elem_BlockD2Ev
@_ZN12LLNL_FEI_FeiC1Ei = dso_local unnamed_addr alias void (%class.LLNL_FEI_Fei*, i32), void (%class.LLNL_FEI_Fei*, i32)* @_ZN12LLNL_FEI_FeiC2Ei
@_ZN12LLNL_FEI_FeiD1Ev = dso_local unnamed_addr alias void (%class.LLNL_FEI_Fei*), void (%class.LLNL_FEI_Fei*)* @_ZN12LLNL_FEI_FeiD2Ev

; Function Attrs: mustprogress nofree norecurse nosync nounwind uwtable willreturn writeonly
define dso_local void @_ZN19LLNL_FEI_Elem_BlockC2Ei(%class.LLNL_FEI_Elem_Block* nocapture nonnull align 8 dereferenceable(96) %0, i32 %1) unnamed_addr #0 align 2 {
  %3 = getelementptr inbounds %class.LLNL_FEI_Elem_Block, %class.LLNL_FEI_Elem_Block* %0, i64 0, i32 0
  store i32 %1, i32* %3, align 8, !tbaa !3
  %4 = getelementptr inbounds %class.LLNL_FEI_Elem_Block, %class.LLNL_FEI_Elem_Block* %0, i64 0, i32 1
  store i32 0, i32* %4, align 4, !tbaa !9
  %5 = getelementptr inbounds %class.LLNL_FEI_Elem_Block, %class.LLNL_FEI_Elem_Block* %0, i64 0, i32 2
  store i32 0, i32* %5, align 8, !tbaa !10
  %6 = getelementptr inbounds %class.LLNL_FEI_Elem_Block, %class.LLNL_FEI_Elem_Block* %0, i64 0, i32 3
  %7 = bitcast i32** %6 to i8*
  call void @llvm.memset.p0i8.i64(i8* noundef nonnull align 8 dereferenceable(80) %7, i8 0, i64 80, i1 false)
  ret void
}

; Function Attrs: nounwind uwtable
define dso_local void @_ZN19LLNL_FEI_Elem_BlockD2Ev(%class.LLNL_FEI_Elem_Block* nocapture nonnull readonly align 8 dereferenceable(96) %0) unnamed_addr #1 align 2 {
  %2 = getelementptr inbounds %class.LLNL_FEI_Elem_Block, %class.LLNL_FEI_Elem_Block* %0, i64 0, i32 3
  %3 = load i32*, i32** %2, align 8, !tbaa !11
  %4 = icmp eq i32* %3, null
  br i1 %4, label %7, label %5

5:                                                ; preds = %1
  %6 = bitcast i32* %3 to i8*
  call void @_ZdaPv(i8* %6) #22
  br label %7

7:                                                ; preds = %5, %1
  %8 = getelementptr inbounds %class.LLNL_FEI_Elem_Block, %class.LLNL_FEI_Elem_Block* %0, i64 0, i32 4
  %9 = load i32**, i32*** %8, align 8, !tbaa !12
  %10 = icmp eq i32** %9, null
  br i1 %10, label %33, label %11

11:                                               ; preds = %7
  %12 = getelementptr inbounds %class.LLNL_FEI_Elem_Block, %class.LLNL_FEI_Elem_Block* %0, i64 0, i32 1
  %13 = load i32, i32* %12, align 4, !tbaa !9
  %14 = icmp sgt i32 %13, 0
  br i1 %14, label %15, label %28

15:                                               ; preds = %11, %23
  %16 = phi i64 [ %24, %23 ], [ 0, %11 ]
  %17 = load i32**, i32*** %8, align 8, !tbaa !12
  %18 = getelementptr inbounds i32*, i32** %17, i64 %16
  %19 = load i32*, i32** %18, align 8, !tbaa !13
  %20 = icmp eq i32* %19, null
  br i1 %20, label %23, label %21

21:                                               ; preds = %15
  %22 = bitcast i32* %19 to i8*
  call void @_ZdaPv(i8* %22) #22
  br label %23

23:                                               ; preds = %15, %21
  %24 = add nuw nsw i64 %16, 1
  %25 = load i32, i32* %12, align 4, !tbaa !9
  %26 = sext i32 %25 to i64
  %27 = icmp slt i64 %24, %26
  br i1 %27, label %15, label %28, !llvm.loop !14

28:                                               ; preds = %23, %11
  %29 = load i32**, i32*** %8, align 8, !tbaa !12
  %30 = icmp eq i32** %29, null
  br i1 %30, label %33, label %31

31:                                               ; preds = %28
  %32 = bitcast i32** %29 to i8*
  call void @_ZdaPv(i8* %32) #22
  br label %33

33:                                               ; preds = %28, %31, %7
  %34 = getelementptr inbounds %class.LLNL_FEI_Elem_Block, %class.LLNL_FEI_Elem_Block* %0, i64 0, i32 7
  %35 = load double**, double*** %34, align 8, !tbaa !17
  %36 = icmp eq double** %35, null
  br i1 %36, label %59, label %37

37:                                               ; preds = %33
  %38 = getelementptr inbounds %class.LLNL_FEI_Elem_Block, %class.LLNL_FEI_Elem_Block* %0, i64 0, i32 1
  %39 = load i32, i32* %38, align 4, !tbaa !9
  %40 = icmp sgt i32 %39, 0
  br i1 %40, label %41, label %54

41:                                               ; preds = %37, %49
  %42 = phi i64 [ %50, %49 ], [ 0, %37 ]
  %43 = load double**, double*** %34, align 8, !tbaa !17
  %44 = getelementptr inbounds double*, double** %43, i64 %42
  %45 = load double*, double** %44, align 8, !tbaa !13
  %46 = icmp eq double* %45, null
  br i1 %46, label %49, label %47

47:                                               ; preds = %41
  %48 = bitcast double* %45 to i8*
  call void @_ZdaPv(i8* %48) #22
  br label %49

49:                                               ; preds = %41, %47
  %50 = add nuw nsw i64 %42, 1
  %51 = load i32, i32* %38, align 4, !tbaa !9
  %52 = sext i32 %51 to i64
  %53 = icmp slt i64 %50, %52
  br i1 %53, label %41, label %54, !llvm.loop !18

54:                                               ; preds = %49, %37
  %55 = load double**, double*** %34, align 8, !tbaa !17
  %56 = icmp eq double** %55, null
  br i1 %56, label %59, label %57

57:                                               ; preds = %54
  %58 = bitcast double** %55 to i8*
  call void @_ZdaPv(i8* %58) #22
  br label %59

59:                                               ; preds = %54, %57, %33
  %60 = getelementptr inbounds %class.LLNL_FEI_Elem_Block, %class.LLNL_FEI_Elem_Block* %0, i64 0, i32 8
  %61 = load double**, double*** %60, align 8, !tbaa !19
  %62 = icmp eq double** %61, null
  br i1 %62, label %85, label %63

63:                                               ; preds = %59
  %64 = getelementptr inbounds %class.LLNL_FEI_Elem_Block, %class.LLNL_FEI_Elem_Block* %0, i64 0, i32 1
  %65 = load i32, i32* %64, align 4, !tbaa !9
  %66 = icmp sgt i32 %65, 0
  br i1 %66, label %67, label %80

67:                                               ; preds = %63, %75
  %68 = phi i64 [ %76, %75 ], [ 0, %63 ]
  %69 = load double**, double*** %60, align 8, !tbaa !19
  %70 = getelementptr inbounds double*, double** %69, i64 %68
  %71 = load double*, double** %70, align 8, !tbaa !13
  %72 = icmp eq double* %71, null
  br i1 %72, label %75, label %73

73:                                               ; preds = %67
  %74 = bitcast double* %71 to i8*
  call void @_ZdaPv(i8* %74) #22
  br label %75

75:                                               ; preds = %67, %73
  %76 = add nuw nsw i64 %68, 1
  %77 = load i32, i32* %64, align 4, !tbaa !9
  %78 = sext i32 %77 to i64
  %79 = icmp slt i64 %76, %78
  br i1 %79, label %67, label %80, !llvm.loop !20

80:                                               ; preds = %75, %63
  %81 = load double**, double*** %60, align 8, !tbaa !19
  %82 = icmp eq double** %81, null
  br i1 %82, label %85, label %83

83:                                               ; preds = %80
  %84 = bitcast double** %81 to i8*
  call void @_ZdaPv(i8* %84) #22
  br label %85

85:                                               ; preds = %80, %83, %59
  %86 = getelementptr inbounds %class.LLNL_FEI_Elem_Block, %class.LLNL_FEI_Elem_Block* %0, i64 0, i32 9
  %87 = load double**, double*** %86, align 8, !tbaa !21
  %88 = icmp eq double** %87, null
  br i1 %88, label %111, label %89

89:                                               ; preds = %85
  %90 = getelementptr inbounds %class.LLNL_FEI_Elem_Block, %class.LLNL_FEI_Elem_Block* %0, i64 0, i32 1
  %91 = load i32, i32* %90, align 4, !tbaa !9
  %92 = icmp sgt i32 %91, 0
  br i1 %92, label %93, label %106

93:                                               ; preds = %89, %101
  %94 = phi i64 [ %102, %101 ], [ 0, %89 ]
  %95 = load double**, double*** %86, align 8, !tbaa !21
  %96 = getelementptr inbounds double*, double** %95, i64 %94
  %97 = load double*, double** %96, align 8, !tbaa !13
  %98 = icmp eq double* %97, null
  br i1 %98, label %101, label %99

99:                                               ; preds = %93
  %100 = bitcast double* %97 to i8*
  call void @_ZdaPv(i8* %100) #22
  br label %101

101:                                              ; preds = %93, %99
  %102 = add nuw nsw i64 %94, 1
  %103 = load i32, i32* %90, align 4, !tbaa !9
  %104 = sext i32 %103 to i64
  %105 = icmp slt i64 %102, %104
  br i1 %105, label %93, label %106, !llvm.loop !22

106:                                              ; preds = %101, %89
  %107 = load double**, double*** %86, align 8, !tbaa !21
  %108 = icmp eq double** %107, null
  br i1 %108, label %111, label %109

109:                                              ; preds = %106
  %110 = bitcast double** %107 to i8*
  call void @_ZdaPv(i8* %110) #22
  br label %111

111:                                              ; preds = %106, %109, %85
  %112 = getelementptr inbounds %class.LLNL_FEI_Elem_Block, %class.LLNL_FEI_Elem_Block* %0, i64 0, i32 5
  %113 = load i32*, i32** %112, align 8, !tbaa !23
  %114 = icmp eq i32* %113, null
  br i1 %114, label %117, label %115

115:                                              ; preds = %111
  %116 = bitcast i32* %113 to i8*
  call void @_ZdaPv(i8* %116) #22
  br label %117

117:                                              ; preds = %115, %111
  %118 = getelementptr inbounds %class.LLNL_FEI_Elem_Block, %class.LLNL_FEI_Elem_Block* %0, i64 0, i32 6
  %119 = load i32*, i32** %118, align 8, !tbaa !24
  %120 = icmp eq i32* %119, null
  br i1 %120, label %123, label %121

121:                                              ; preds = %117
  %122 = bitcast i32* %119 to i8*
  call void @_ZdaPv(i8* %122) #22
  br label %123

123:                                              ; preds = %121, %117
  %124 = getelementptr inbounds %class.LLNL_FEI_Elem_Block, %class.LLNL_FEI_Elem_Block* %0, i64 0, i32 12
  %125 = load double*, double** %124, align 8, !tbaa !25
  %126 = icmp eq double* %125, null
  br i1 %126, label %129, label %127

127:                                              ; preds = %123
  %128 = bitcast double* %125 to i8*
  call void @_ZdaPv(i8* %128) #22
  br label %129

129:                                              ; preds = %127, %123
  %130 = getelementptr inbounds %class.LLNL_FEI_Elem_Block, %class.LLNL_FEI_Elem_Block* %0, i64 0, i32 13
  %131 = load double*, double** %130, align 8, !tbaa !26
  %132 = icmp eq double* %131, null
  br i1 %132, label %135, label %133

133:                                              ; preds = %129
  %134 = bitcast double* %131 to i8*
  call void @_ZdaPv(i8* %134) #22
  br label %135

135:                                              ; preds = %133, %129
  ret void
}

; Function Attrs: argmemonly mustprogress nofree nosync nounwind willreturn
declare void @llvm.lifetime.start.p0i8(i64 immarg, i8* nocapture) #2

; Function Attrs: nobuiltin nounwind
declare dso_local void @_ZdaPv(i8*) local_unnamed_addr #3

; Function Attrs: argmemonly mustprogress nofree nosync nounwind willreturn
declare void @llvm.lifetime.end.p0i8(i64 immarg, i8* nocapture) #2

; Function Attrs: mustprogress uwtable
define dso_local i32 @_ZN19LLNL_FEI_Elem_Block10initializeEiii(%class.LLNL_FEI_Elem_Block* nocapture nonnull align 8 dereferenceable(96) %0, i32 %1, i32 %2, i32 %3) local_unnamed_addr #4 align 2 {
  %5 = getelementptr inbounds %class.LLNL_FEI_Elem_Block, %class.LLNL_FEI_Elem_Block* %0, i64 0, i32 3
  %6 = load i32*, i32** %5, align 8, !tbaa !11
  %7 = icmp eq i32* %6, null
  br i1 %7, label %10, label %8

8:                                                ; preds = %4
  %9 = bitcast i32* %6 to i8*
  call void @_ZdaPv(i8* %9) #22
  br label %10

10:                                               ; preds = %8, %4
  %11 = getelementptr inbounds %class.LLNL_FEI_Elem_Block, %class.LLNL_FEI_Elem_Block* %0, i64 0, i32 4
  %12 = load i32**, i32*** %11, align 8, !tbaa !12
  %13 = icmp eq i32** %12, null
  br i1 %13, label %36, label %14

14:                                               ; preds = %10
  %15 = getelementptr inbounds %class.LLNL_FEI_Elem_Block, %class.LLNL_FEI_Elem_Block* %0, i64 0, i32 1
  %16 = load i32, i32* %15, align 4, !tbaa !9
  %17 = icmp sgt i32 %16, 0
  br i1 %17, label %18, label %31

18:                                               ; preds = %14, %26
  %19 = phi i64 [ %27, %26 ], [ 0, %14 ]
  %20 = load i32**, i32*** %11, align 8, !tbaa !12
  %21 = getelementptr inbounds i32*, i32** %20, i64 %19
  %22 = load i32*, i32** %21, align 8, !tbaa !13
  %23 = icmp eq i32* %22, null
  br i1 %23, label %26, label %24

24:                                               ; preds = %18
  %25 = bitcast i32* %22 to i8*
  call void @_ZdaPv(i8* %25) #22
  br label %26

26:                                               ; preds = %18, %24
  %27 = add nuw nsw i64 %19, 1
  %28 = load i32, i32* %15, align 4, !tbaa !9
  %29 = sext i32 %28 to i64
  %30 = icmp slt i64 %27, %29
  br i1 %30, label %18, label %31, !llvm.loop !27

31:                                               ; preds = %26, %14
  %32 = load i32**, i32*** %11, align 8, !tbaa !12
  %33 = icmp eq i32** %32, null
  br i1 %33, label %36, label %34

34:                                               ; preds = %31
  %35 = bitcast i32** %32 to i8*
  call void @_ZdaPv(i8* %35) #22
  br label %36

36:                                               ; preds = %31, %34, %10
  %37 = getelementptr inbounds %class.LLNL_FEI_Elem_Block, %class.LLNL_FEI_Elem_Block* %0, i64 0, i32 7
  %38 = load double**, double*** %37, align 8, !tbaa !17
  %39 = icmp eq double** %38, null
  br i1 %39, label %62, label %40

40:                                               ; preds = %36
  %41 = getelementptr inbounds %class.LLNL_FEI_Elem_Block, %class.LLNL_FEI_Elem_Block* %0, i64 0, i32 1
  %42 = load i32, i32* %41, align 4, !tbaa !9
  %43 = icmp sgt i32 %42, 0
  br i1 %43, label %44, label %57

44:                                               ; preds = %40, %52
  %45 = phi i64 [ %53, %52 ], [ 0, %40 ]
  %46 = load double**, double*** %37, align 8, !tbaa !17
  %47 = getelementptr inbounds double*, double** %46, i64 %45
  %48 = load double*, double** %47, align 8, !tbaa !13
  %49 = icmp eq double* %48, null
  br i1 %49, label %52, label %50

50:                                               ; preds = %44
  %51 = bitcast double* %48 to i8*
  call void @_ZdaPv(i8* %51) #22
  br label %52

52:                                               ; preds = %44, %50
  %53 = add nuw nsw i64 %45, 1
  %54 = load i32, i32* %41, align 4, !tbaa !9
  %55 = sext i32 %54 to i64
  %56 = icmp slt i64 %53, %55
  br i1 %56, label %44, label %57, !llvm.loop !28

57:                                               ; preds = %52, %40
  %58 = load double**, double*** %37, align 8, !tbaa !17
  %59 = icmp eq double** %58, null
  br i1 %59, label %62, label %60

60:                                               ; preds = %57
  %61 = bitcast double** %58 to i8*
  call void @_ZdaPv(i8* %61) #22
  br label %62

62:                                               ; preds = %57, %60, %36
  %63 = getelementptr inbounds %class.LLNL_FEI_Elem_Block, %class.LLNL_FEI_Elem_Block* %0, i64 0, i32 8
  %64 = load double**, double*** %63, align 8, !tbaa !19
  %65 = icmp eq double** %64, null
  br i1 %65, label %88, label %66

66:                                               ; preds = %62
  %67 = getelementptr inbounds %class.LLNL_FEI_Elem_Block, %class.LLNL_FEI_Elem_Block* %0, i64 0, i32 1
  %68 = load i32, i32* %67, align 4, !tbaa !9
  %69 = icmp sgt i32 %68, 0
  br i1 %69, label %70, label %83

70:                                               ; preds = %66, %78
  %71 = phi i64 [ %79, %78 ], [ 0, %66 ]
  %72 = load double**, double*** %63, align 8, !tbaa !19
  %73 = getelementptr inbounds double*, double** %72, i64 %71
  %74 = load double*, double** %73, align 8, !tbaa !13
  %75 = icmp eq double* %74, null
  br i1 %75, label %78, label %76

76:                                               ; preds = %70
  %77 = bitcast double* %74 to i8*
  call void @_ZdaPv(i8* %77) #22
  br label %78

78:                                               ; preds = %70, %76
  %79 = add nuw nsw i64 %71, 1
  %80 = load i32, i32* %67, align 4, !tbaa !9
  %81 = sext i32 %80 to i64
  %82 = icmp slt i64 %79, %81
  br i1 %82, label %70, label %83, !llvm.loop !29

83:                                               ; preds = %78, %66
  %84 = load double**, double*** %63, align 8, !tbaa !19
  %85 = icmp eq double** %84, null
  br i1 %85, label %88, label %86

86:                                               ; preds = %83
  %87 = bitcast double** %84 to i8*
  call void @_ZdaPv(i8* %87) #22
  br label %88

88:                                               ; preds = %83, %86, %62
  %89 = getelementptr inbounds %class.LLNL_FEI_Elem_Block, %class.LLNL_FEI_Elem_Block* %0, i64 0, i32 9
  %90 = load double**, double*** %89, align 8, !tbaa !21
  %91 = icmp eq double** %90, null
  br i1 %91, label %114, label %92

92:                                               ; preds = %88
  %93 = getelementptr inbounds %class.LLNL_FEI_Elem_Block, %class.LLNL_FEI_Elem_Block* %0, i64 0, i32 1
  %94 = load i32, i32* %93, align 4, !tbaa !9
  %95 = icmp sgt i32 %94, 0
  br i1 %95, label %96, label %109

96:                                               ; preds = %92, %104
  %97 = phi i64 [ %105, %104 ], [ 0, %92 ]
  %98 = load double**, double*** %89, align 8, !tbaa !21
  %99 = getelementptr inbounds double*, double** %98, i64 %97
  %100 = load double*, double** %99, align 8, !tbaa !13
  %101 = icmp eq double* %100, null
  br i1 %101, label %104, label %102

102:                                              ; preds = %96
  %103 = bitcast double* %100 to i8*
  call void @_ZdaPv(i8* %103) #22
  br label %104

104:                                              ; preds = %96, %102
  %105 = add nuw nsw i64 %97, 1
  %106 = load i32, i32* %93, align 4, !tbaa !9
  %107 = sext i32 %106 to i64
  %108 = icmp slt i64 %105, %107
  br i1 %108, label %96, label %109, !llvm.loop !30

109:                                              ; preds = %104, %92
  %110 = load double**, double*** %89, align 8, !tbaa !21
  %111 = icmp eq double** %110, null
  br i1 %111, label %114, label %112

112:                                              ; preds = %109
  %113 = bitcast double** %110 to i8*
  call void @_ZdaPv(i8* %113) #22
  br label %114

114:                                              ; preds = %109, %112, %88
  %115 = getelementptr inbounds %class.LLNL_FEI_Elem_Block, %class.LLNL_FEI_Elem_Block* %0, i64 0, i32 1
  store i32 %1, i32* %115, align 4, !tbaa !9
  %116 = getelementptr inbounds %class.LLNL_FEI_Elem_Block, %class.LLNL_FEI_Elem_Block* %0, i64 0, i32 10
  store i32 %2, i32* %116, align 8, !tbaa !31
  %117 = getelementptr inbounds %class.LLNL_FEI_Elem_Block, %class.LLNL_FEI_Elem_Block* %0, i64 0, i32 2
  store i32 %3, i32* %117, align 8, !tbaa !10
  %118 = getelementptr inbounds %class.LLNL_FEI_Elem_Block, %class.LLNL_FEI_Elem_Block* %0, i64 0, i32 11
  store i32 0, i32* %118, align 4, !tbaa !32
  %119 = sext i32 %1 to i64
  %120 = call { i64, i1 } @llvm.umul.with.overflow.i64(i64 %119, i64 4)
  %121 = extractvalue { i64, i1 } %120, 1
  %122 = extractvalue { i64, i1 } %120, 0
  %123 = select i1 %121, i64 -1, i64 %122
  %124 = call noalias nonnull i8* @_Znam(i64 %123) #23
  %125 = bitcast i32** %5 to i8**
  store i8* %124, i8** %125, align 8, !tbaa !11
  %126 = call { i64, i1 } @llvm.umul.with.overflow.i64(i64 %119, i64 8)
  %127 = extractvalue { i64, i1 } %126, 1
  %128 = extractvalue { i64, i1 } %126, 0
  %129 = select i1 %127, i64 -1, i64 %128
  %130 = call noalias nonnull i8* @_Znam(i64 %129) #23
  %131 = bitcast i32*** %11 to i8**
  store i8* %130, i8** %131, align 8, !tbaa !12
  %132 = icmp sgt i32 %1, 0
  br i1 %132, label %133, label %141

133:                                              ; preds = %114
  %134 = zext i32 %1 to i64
  br label %135

135:                                              ; preds = %133, %135
  %136 = phi i64 [ 0, %133 ], [ %139, %135 ]
  %137 = load i32**, i32*** %11, align 8, !tbaa !12
  %138 = getelementptr inbounds i32*, i32** %137, i64 %136
  store i32* null, i32** %138, align 8, !tbaa !13
  %139 = add nuw nsw i64 %136, 1
  %140 = icmp eq i64 %139, %134
  br i1 %140, label %141, label %135, !llvm.loop !33

141:                                              ; preds = %135, %114
  %142 = call noalias nonnull i8* @_Znam(i64 %129) #23
  %143 = bitcast double*** %37 to i8**
  store i8* %142, i8** %143, align 8, !tbaa !17
  %144 = icmp sgt i32 %1, 0
  br i1 %144, label %145, label %153

145:                                              ; preds = %141
  %146 = zext i32 %1 to i64
  br label %147

147:                                              ; preds = %145, %147
  %148 = phi i64 [ 0, %145 ], [ %151, %147 ]
  %149 = load double**, double*** %37, align 8, !tbaa !17
  %150 = getelementptr inbounds double*, double** %149, i64 %148
  store double* null, double** %150, align 8, !tbaa !13
  %151 = add nuw nsw i64 %148, 1
  %152 = icmp eq i64 %151, %146
  br i1 %152, label %153, label %147, !llvm.loop !34

153:                                              ; preds = %147, %141
  %154 = call noalias nonnull i8* @_Znam(i64 %129) #23
  %155 = bitcast double*** %63 to i8**
  store i8* %154, i8** %155, align 8, !tbaa !19
  %156 = icmp sgt i32 %1, 0
  br i1 %156, label %157, label %165

157:                                              ; preds = %153
  %158 = zext i32 %1 to i64
  br label %159

159:                                              ; preds = %157, %159
  %160 = phi i64 [ 0, %157 ], [ %163, %159 ]
  %161 = load double**, double*** %63, align 8, !tbaa !19
  %162 = getelementptr inbounds double*, double** %161, i64 %160
  store double* null, double** %162, align 8, !tbaa !13
  %163 = add nuw nsw i64 %160, 1
  %164 = icmp eq i64 %163, %158
  br i1 %164, label %165, label %159, !llvm.loop !35

165:                                              ; preds = %159, %153
  %166 = call noalias nonnull i8* @_Znam(i64 %129) #23
  %167 = bitcast double*** %89 to i8**
  store i8* %166, i8** %167, align 8, !tbaa !21
  %168 = icmp sgt i32 %1, 0
  br i1 %168, label %169, label %177

169:                                              ; preds = %165
  %170 = zext i32 %1 to i64
  br label %171

171:                                              ; preds = %169, %171
  %172 = phi i64 [ 0, %169 ], [ %175, %171 ]
  %173 = load double**, double*** %89, align 8, !tbaa !21
  %174 = getelementptr inbounds double*, double** %173, i64 %172
  store double* null, double** %174, align 8, !tbaa !13
  %175 = add nuw nsw i64 %172, 1
  %176 = icmp eq i64 %175, %170
  br i1 %176, label %177, label %171, !llvm.loop !36

177:                                              ; preds = %171, %165
  ret i32 0
}

; Function Attrs: mustprogress nofree nosync nounwind readnone speculatable willreturn
declare { i64, i1 } @llvm.umul.with.overflow.i64(i64, i64) #5

; Function Attrs: nobuiltin allocsize(0)
declare dso_local nonnull i8* @_Znam(i64) local_unnamed_addr #6

; Function Attrs: mustprogress nounwind uwtable
define dso_local i32 @_ZN19LLNL_FEI_Elem_Block5resetEv(%class.LLNL_FEI_Elem_Block* nocapture nonnull align 8 dereferenceable(96) %0) local_unnamed_addr #7 align 2 {
  %2 = getelementptr inbounds %class.LLNL_FEI_Elem_Block, %class.LLNL_FEI_Elem_Block* %0, i64 0, i32 4
  %3 = load i32**, i32*** %2, align 8, !tbaa !12
  %4 = icmp eq i32** %3, null
  br i1 %4, label %24, label %5

5:                                                ; preds = %1
  %6 = getelementptr inbounds %class.LLNL_FEI_Elem_Block, %class.LLNL_FEI_Elem_Block* %0, i64 0, i32 1
  %7 = load i32, i32* %6, align 4, !tbaa !9
  %8 = icmp sgt i32 %7, 0
  br i1 %8, label %9, label %24

9:                                                ; preds = %5, %17
  %10 = phi i64 [ %20, %17 ], [ 0, %5 ]
  %11 = load i32**, i32*** %2, align 8, !tbaa !12
  %12 = getelementptr inbounds i32*, i32** %11, i64 %10
  %13 = load i32*, i32** %12, align 8, !tbaa !13
  %14 = icmp eq i32* %13, null
  br i1 %14, label %17, label %15

15:                                               ; preds = %9
  %16 = bitcast i32* %13 to i8*
  call void @_ZdaPv(i8* %16) #22
  br label %17

17:                                               ; preds = %15, %9
  %18 = load i32**, i32*** %2, align 8, !tbaa !12
  %19 = getelementptr inbounds i32*, i32** %18, i64 %10
  store i32* null, i32** %19, align 8, !tbaa !13
  %20 = add nuw nsw i64 %10, 1
  %21 = load i32, i32* %6, align 4, !tbaa !9
  %22 = sext i32 %21 to i64
  %23 = icmp slt i64 %20, %22
  br i1 %23, label %9, label %24, !llvm.loop !37

24:                                               ; preds = %17, %5, %1
  %25 = getelementptr inbounds %class.LLNL_FEI_Elem_Block, %class.LLNL_FEI_Elem_Block* %0, i64 0, i32 7
  %26 = load double**, double*** %25, align 8, !tbaa !17
  %27 = icmp eq double** %26, null
  br i1 %27, label %47, label %28

28:                                               ; preds = %24
  %29 = getelementptr inbounds %class.LLNL_FEI_Elem_Block, %class.LLNL_FEI_Elem_Block* %0, i64 0, i32 1
  %30 = load i32, i32* %29, align 4, !tbaa !9
  %31 = icmp sgt i32 %30, 0
  br i1 %31, label %32, label %47

32:                                               ; preds = %28, %40
  %33 = phi i64 [ %43, %40 ], [ 0, %28 ]
  %34 = load double**, double*** %25, align 8, !tbaa !17
  %35 = getelementptr inbounds double*, double** %34, i64 %33
  %36 = load double*, double** %35, align 8, !tbaa !13
  %37 = icmp eq double* %36, null
  br i1 %37, label %40, label %38

38:                                               ; preds = %32
  %39 = bitcast double* %36 to i8*
  call void @_ZdaPv(i8* %39) #22
  br label %40

40:                                               ; preds = %38, %32
  %41 = load double**, double*** %25, align 8, !tbaa !17
  %42 = getelementptr inbounds double*, double** %41, i64 %33
  store double* null, double** %42, align 8, !tbaa !13
  %43 = add nuw nsw i64 %33, 1
  %44 = load i32, i32* %29, align 4, !tbaa !9
  %45 = sext i32 %44 to i64
  %46 = icmp slt i64 %43, %45
  br i1 %46, label %32, label %47, !llvm.loop !38

47:                                               ; preds = %40, %28, %24
  %48 = getelementptr inbounds %class.LLNL_FEI_Elem_Block, %class.LLNL_FEI_Elem_Block* %0, i64 0, i32 8
  %49 = load double**, double*** %48, align 8, !tbaa !19
  %50 = icmp eq double** %49, null
  br i1 %50, label %70, label %51

51:                                               ; preds = %47
  %52 = getelementptr inbounds %class.LLNL_FEI_Elem_Block, %class.LLNL_FEI_Elem_Block* %0, i64 0, i32 1
  %53 = load i32, i32* %52, align 4, !tbaa !9
  %54 = icmp sgt i32 %53, 0
  br i1 %54, label %55, label %70

55:                                               ; preds = %51, %63
  %56 = phi i64 [ %66, %63 ], [ 0, %51 ]
  %57 = load double**, double*** %48, align 8, !tbaa !19
  %58 = getelementptr inbounds double*, double** %57, i64 %56
  %59 = load double*, double** %58, align 8, !tbaa !13
  %60 = icmp eq double* %59, null
  br i1 %60, label %63, label %61

61:                                               ; preds = %55
  %62 = bitcast double* %59 to i8*
  call void @_ZdaPv(i8* %62) #22
  br label %63

63:                                               ; preds = %61, %55
  %64 = load double**, double*** %48, align 8, !tbaa !19
  %65 = getelementptr inbounds double*, double** %64, i64 %56
  store double* null, double** %65, align 8, !tbaa !13
  %66 = add nuw nsw i64 %56, 1
  %67 = load i32, i32* %52, align 4, !tbaa !9
  %68 = sext i32 %67 to i64
  %69 = icmp slt i64 %66, %68
  br i1 %69, label %55, label %70, !llvm.loop !39

70:                                               ; preds = %63, %51, %47
  %71 = getelementptr inbounds %class.LLNL_FEI_Elem_Block, %class.LLNL_FEI_Elem_Block* %0, i64 0, i32 11
  store i32 0, i32* %71, align 4, !tbaa !32
  ret i32 0
}

; Function Attrs: mustprogress nofree norecurse nosync nounwind uwtable
define dso_local i32 @_ZN19LLNL_FEI_Elem_Block15resetRHSVectorsEd(%class.LLNL_FEI_Elem_Block* nocapture nonnull align 8 dereferenceable(96) %0, double %1) local_unnamed_addr #8 align 2 {
  %3 = getelementptr inbounds %class.LLNL_FEI_Elem_Block, %class.LLNL_FEI_Elem_Block* %0, i64 0, i32 10
  %4 = load i32, i32* %3, align 8, !tbaa !31
  %5 = getelementptr inbounds %class.LLNL_FEI_Elem_Block, %class.LLNL_FEI_Elem_Block* %0, i64 0, i32 2
  %6 = load i32, i32* %5, align 8, !tbaa !10
  %7 = getelementptr inbounds %class.LLNL_FEI_Elem_Block, %class.LLNL_FEI_Elem_Block* %0, i64 0, i32 8
  %8 = load double**, double*** %7, align 8, !tbaa !19
  %9 = icmp eq double** %8, null
  br i1 %9, label %33, label %10

10:                                               ; preds = %2
  %11 = mul nsw i32 %6, %4
  %12 = getelementptr inbounds %class.LLNL_FEI_Elem_Block, %class.LLNL_FEI_Elem_Block* %0, i64 0, i32 1
  %13 = load i32, i32* %12, align 4, !tbaa !9
  %14 = icmp sgt i32 %11, 0
  %15 = icmp sgt i32 %13, 0
  br i1 %15, label %16, label %33

16:                                               ; preds = %10
  %17 = mul i32 %6, %4
  %18 = zext i32 %13 to i64
  %19 = zext i32 %17 to i64
  br label %20

20:                                               ; preds = %16, %30
  %21 = phi i64 [ 0, %16 ], [ %31, %30 ]
  br i1 %14, label %22, label %30

22:                                               ; preds = %20
  %23 = getelementptr inbounds double*, double** %8, i64 %21
  %24 = load double*, double** %23, align 8, !tbaa !13
  br label %25

25:                                               ; preds = %22, %25
  %26 = phi i64 [ 0, %22 ], [ %28, %25 ]
  %27 = getelementptr inbounds double, double* %24, i64 %26
  store double %1, double* %27, align 8, !tbaa !40
  %28 = add nuw nsw i64 %26, 1
  %29 = icmp eq i64 %28, %19
  br i1 %29, label %30, label %25, !llvm.loop !42

30:                                               ; preds = %25, %20
  %31 = add nuw nsw i64 %21, 1
  %32 = icmp eq i64 %31, %18
  br i1 %32, label %33, label %20, !llvm.loop !43

33:                                               ; preds = %30, %10, %2
  %34 = getelementptr inbounds %class.LLNL_FEI_Elem_Block, %class.LLNL_FEI_Elem_Block* %0, i64 0, i32 11
  store i32 0, i32* %34, align 4, !tbaa !32
  ret i32 0
}

; Function Attrs: mustprogress nofree norecurse nosync nounwind uwtable
define dso_local i32 @_ZN19LLNL_FEI_Elem_Block16resetSolnVectorsEd(%class.LLNL_FEI_Elem_Block* nocapture nonnull align 8 dereferenceable(96) %0, double %1) local_unnamed_addr #8 align 2 {
  %3 = getelementptr inbounds %class.LLNL_FEI_Elem_Block, %class.LLNL_FEI_Elem_Block* %0, i64 0, i32 10
  %4 = load i32, i32* %3, align 8, !tbaa !31
  %5 = getelementptr inbounds %class.LLNL_FEI_Elem_Block, %class.LLNL_FEI_Elem_Block* %0, i64 0, i32 2
  %6 = load i32, i32* %5, align 8, !tbaa !10
  %7 = getelementptr inbounds %class.LLNL_FEI_Elem_Block, %class.LLNL_FEI_Elem_Block* %0, i64 0, i32 9
  %8 = load double**, double*** %7, align 8, !tbaa !21
  %9 = icmp eq double** %8, null
  br i1 %9, label %33, label %10

10:                                               ; preds = %2
  %11 = mul nsw i32 %6, %4
  %12 = getelementptr inbounds %class.LLNL_FEI_Elem_Block, %class.LLNL_FEI_Elem_Block* %0, i64 0, i32 1
  %13 = load i32, i32* %12, align 4, !tbaa !9
  %14 = icmp sgt i32 %11, 0
  %15 = icmp sgt i32 %13, 0
  br i1 %15, label %16, label %33

16:                                               ; preds = %10
  %17 = mul i32 %6, %4
  %18 = zext i32 %13 to i64
  %19 = zext i32 %17 to i64
  br label %20

20:                                               ; preds = %16, %30
  %21 = phi i64 [ 0, %16 ], [ %31, %30 ]
  br i1 %14, label %22, label %30

22:                                               ; preds = %20
  %23 = getelementptr inbounds double*, double** %8, i64 %21
  %24 = load double*, double** %23, align 8, !tbaa !13
  br label %25

25:                                               ; preds = %22, %25
  %26 = phi i64 [ 0, %22 ], [ %28, %25 ]
  %27 = getelementptr inbounds double, double* %24, i64 %26
  store double %1, double* %27, align 8, !tbaa !40
  %28 = add nuw nsw i64 %26, 1
  %29 = icmp eq i64 %28, %19
  br i1 %29, label %30, label %25, !llvm.loop !44

30:                                               ; preds = %25, %20
  %31 = add nuw nsw i64 %21, 1
  %32 = icmp eq i64 %31, %18
  br i1 %32, label %33, label %20, !llvm.loop !45

33:                                               ; preds = %30, %10, %2
  %34 = getelementptr inbounds %class.LLNL_FEI_Elem_Block, %class.LLNL_FEI_Elem_Block* %0, i64 0, i32 11
  store i32 0, i32* %34, align 4, !tbaa !32
  ret i32 0
}

; Function Attrs: mustprogress uwtable
define dso_local i32 @_ZN19LLNL_FEI_Elem_Block12loadElemInfoEiPiPPdS1_(%class.LLNL_FEI_Elem_Block* nocapture nonnull align 8 dereferenceable(96) %0, i32 %1, i32* nocapture readonly %2, double** nocapture readonly %3, double* nocapture readonly %4) local_unnamed_addr #4 align 2 {
  %6 = getelementptr inbounds %class.LLNL_FEI_Elem_Block, %class.LLNL_FEI_Elem_Block* %0, i64 0, i32 11
  %7 = load i32, i32* %6, align 4, !tbaa !32
  %8 = getelementptr inbounds %class.LLNL_FEI_Elem_Block, %class.LLNL_FEI_Elem_Block* %0, i64 0, i32 1
  %9 = load i32, i32* %8, align 4, !tbaa !9
  %10 = icmp slt i32 %7, %9
  br i1 %10, label %13, label %11

11:                                               ; preds = %5
  %12 = call i32 @puts(i8* nonnull dereferenceable(1) getelementptr inbounds ([61 x i8], [61 x i8]* @str, i64 0, i64 0))
  call void @exit(i32 1) #24
  unreachable

13:                                               ; preds = %5
  %14 = getelementptr inbounds %class.LLNL_FEI_Elem_Block, %class.LLNL_FEI_Elem_Block* %0, i64 0, i32 10
  %15 = load i32, i32* %14, align 8, !tbaa !31
  %16 = sext i32 %15 to i64
  %17 = call { i64, i1 } @llvm.umul.with.overflow.i64(i64 %16, i64 4)
  %18 = extractvalue { i64, i1 } %17, 1
  %19 = extractvalue { i64, i1 } %17, 0
  %20 = select i1 %18, i64 -1, i64 %19
  %21 = call noalias nonnull i8* @_Znam(i64 %20) #23
  %22 = getelementptr inbounds %class.LLNL_FEI_Elem_Block, %class.LLNL_FEI_Elem_Block* %0, i64 0, i32 4
  %23 = load i32**, i32*** %22, align 8, !tbaa !12
  %24 = sext i32 %7 to i64
  %25 = getelementptr inbounds i32*, i32** %23, i64 %24
  %26 = bitcast i32** %25 to i8**
  store i8* %21, i8** %26, align 8, !tbaa !13
  %27 = getelementptr inbounds %class.LLNL_FEI_Elem_Block, %class.LLNL_FEI_Elem_Block* %0, i64 0, i32 2
  %28 = load i32, i32* %27, align 8, !tbaa !10
  %29 = mul nsw i32 %28, %15
  %30 = mul nsw i32 %29, %29
  %31 = zext i32 %30 to i64
  %32 = shl nuw nsw i64 %31, 3
  %33 = call noalias nonnull i8* @_Znam(i64 %32) #23
  %34 = getelementptr inbounds %class.LLNL_FEI_Elem_Block, %class.LLNL_FEI_Elem_Block* %0, i64 0, i32 7
  %35 = load double**, double*** %34, align 8, !tbaa !17
  %36 = getelementptr inbounds double*, double** %35, i64 %24
  %37 = bitcast double** %36 to i8**
  store i8* %33, i8** %37, align 8, !tbaa !13
  %38 = sext i32 %29 to i64
  %39 = call { i64, i1 } @llvm.umul.with.overflow.i64(i64 %38, i64 8)
  %40 = extractvalue { i64, i1 } %39, 1
  %41 = extractvalue { i64, i1 } %39, 0
  %42 = select i1 %40, i64 -1, i64 %41
  %43 = call noalias nonnull i8* @_Znam(i64 %42) #23
  %44 = getelementptr inbounds %class.LLNL_FEI_Elem_Block, %class.LLNL_FEI_Elem_Block* %0, i64 0, i32 8
  %45 = load double**, double*** %44, align 8, !tbaa !19
  %46 = getelementptr inbounds double*, double** %45, i64 %24
  %47 = bitcast double** %46 to i8**
  store i8* %43, i8** %47, align 8, !tbaa !13
  %48 = getelementptr inbounds %class.LLNL_FEI_Elem_Block, %class.LLNL_FEI_Elem_Block* %0, i64 0, i32 9
  %49 = load double**, double*** %48, align 8, !tbaa !21
  %50 = getelementptr inbounds double*, double** %49, i64 %24
  %51 = load double*, double** %50, align 8, !tbaa !13
  %52 = icmp eq double* %51, null
  br i1 %52, label %55, label %53

53:                                               ; preds = %13
  %54 = bitcast double* %51 to i8*
  call void @_ZdaPv(i8* %54) #22
  br label %55

55:                                               ; preds = %53, %13
  %56 = call noalias nonnull i8* @_Znam(i64 %42) #23
  %57 = load double**, double*** %48, align 8, !tbaa !21
  %58 = load i32, i32* %6, align 4, !tbaa !32
  %59 = sext i32 %58 to i64
  %60 = getelementptr inbounds double*, double** %57, i64 %59
  %61 = bitcast double** %60 to i8**
  store i8* %56, i8** %61, align 8, !tbaa !13
  %62 = getelementptr inbounds %class.LLNL_FEI_Elem_Block, %class.LLNL_FEI_Elem_Block* %0, i64 0, i32 3
  %63 = load i32*, i32** %62, align 8, !tbaa !11
  %64 = getelementptr inbounds i32, i32* %63, i64 %59
  store i32 %1, i32* %64, align 4, !tbaa !46
  %65 = load i32**, i32*** %22, align 8
  %66 = load i32, i32* %14, align 8, !tbaa !31
  %67 = icmp sgt i32 %66, 0
  br i1 %67, label %78, label %68

68:                                               ; preds = %78, %55
  %69 = icmp sgt i32 %29, 0
  br i1 %69, label %70, label %91

70:                                               ; preds = %68
  %71 = load double**, double*** %44, align 8
  %72 = load i32, i32* %6, align 4
  %73 = sext i32 %72 to i64
  %74 = getelementptr inbounds double*, double** %71, i64 %73
  %75 = load double*, double** %74, align 8, !tbaa !13
  %76 = mul i32 %28, %15
  %77 = zext i32 %76 to i64
  br label %103

78:                                               ; preds = %55, %78
  %79 = phi i64 [ %87, %78 ], [ 0, %55 ]
  %80 = getelementptr inbounds i32, i32* %2, i64 %79
  %81 = load i32, i32* %80, align 4, !tbaa !46
  %82 = load i32, i32* %6, align 4, !tbaa !32
  %83 = sext i32 %82 to i64
  %84 = getelementptr inbounds i32*, i32** %65, i64 %83
  %85 = load i32*, i32** %84, align 8, !tbaa !13
  %86 = getelementptr inbounds i32, i32* %85, i64 %79
  store i32 %81, i32* %86, align 4, !tbaa !46
  %87 = add nuw nsw i64 %79, 1
  %88 = load i32, i32* %14, align 8, !tbaa !31
  %89 = sext i32 %88 to i64
  %90 = icmp slt i64 %87, %89
  br i1 %90, label %78, label %68, !llvm.loop !47

91:                                               ; preds = %103, %68
  %92 = icmp sgt i32 %29, 0
  br i1 %92, label %93, label %110

93:                                               ; preds = %91
  %94 = load double**, double*** %48, align 8
  %95 = load i32, i32* %6, align 4
  %96 = sext i32 %95 to i64
  %97 = getelementptr inbounds double*, double** %94, i64 %96
  %98 = bitcast double** %97 to i8**
  %99 = load i8*, i8** %98, align 8, !tbaa !13
  %100 = mul i32 %28, %15
  %101 = zext i32 %100 to i64
  %102 = shl nuw nsw i64 %101, 3
  call void @llvm.memset.p0i8.i64(i8* align 8 %99, i8 0, i64 %102, i1 false)
  br label %110

103:                                              ; preds = %70, %103
  %104 = phi i64 [ 0, %70 ], [ %108, %103 ]
  %105 = getelementptr inbounds double, double* %4, i64 %104
  %106 = load double, double* %105, align 8, !tbaa !40
  %107 = getelementptr inbounds double, double* %75, i64 %104
  store double %106, double* %107, align 8, !tbaa !40
  %108 = add nuw nsw i64 %104, 1
  %109 = icmp eq i64 %108, %77
  br i1 %109, label %91, label %103, !llvm.loop !48

110:                                              ; preds = %93, %91
  %111 = icmp sgt i32 %29, 0
  %112 = icmp sgt i32 %29, 0
  br i1 %112, label %113, label %128

113:                                              ; preds = %110
  %114 = mul i32 %28, %15
  %115 = zext i32 %114 to i64
  %116 = zext i32 %114 to i64
  br label %117

117:                                              ; preds = %113, %131
  %118 = phi i64 [ 0, %113 ], [ %132, %131 ]
  br i1 %111, label %119, label %131

119:                                              ; preds = %117
  %120 = load double**, double*** %34, align 8
  %121 = load i32, i32* %6, align 4
  %122 = sext i32 %121 to i64
  %123 = getelementptr inbounds double*, double** %120, i64 %122
  %124 = getelementptr inbounds double*, double** %3, i64 %118
  %125 = load double*, double** %124, align 8, !tbaa !13
  %126 = load double*, double** %123, align 8, !tbaa !13
  %127 = trunc i64 %118 to i32
  br label %134

128:                                              ; preds = %131, %110
  %129 = load i32, i32* %6, align 4, !tbaa !32
  %130 = add nsw i32 %129, 1
  store i32 %130, i32* %6, align 4, !tbaa !32
  ret i32 0

131:                                              ; preds = %134, %117
  %132 = add nuw nsw i64 %118, 1
  %133 = icmp eq i64 %132, %115
  br i1 %133, label %128, label %117, !llvm.loop !49

134:                                              ; preds = %119, %134
  %135 = phi i64 [ 0, %119 ], [ %143, %134 ]
  %136 = getelementptr inbounds double, double* %125, i64 %135
  %137 = load double, double* %136, align 8, !tbaa !40
  %138 = trunc i64 %135 to i32
  %139 = mul nsw i32 %29, %138
  %140 = add nsw i32 %139, %127
  %141 = sext i32 %140 to i64
  %142 = getelementptr inbounds double, double* %126, i64 %141
  store double %137, double* %142, align 8, !tbaa !40
  %143 = add nuw nsw i64 %135, 1
  %144 = icmp eq i64 %143, %116
  br i1 %144, label %131, label %134, !llvm.loop !50
}

; Function Attrs: nofree nounwind
declare dso_local noundef i32 @printf(i8* nocapture noundef readonly, ...) local_unnamed_addr #9

; Function Attrs: noreturn nounwind
declare dso_local void @exit(i32) local_unnamed_addr #10

; Function Attrs: mustprogress uwtable
define dso_local i32 @_ZN19LLNL_FEI_Elem_Block14loadElemMatrixEiPiPPd(%class.LLNL_FEI_Elem_Block* nocapture nonnull align 8 dereferenceable(96) %0, i32 %1, i32* nocapture readonly %2, double** nocapture readonly %3) local_unnamed_addr #4 align 2 {
  %5 = getelementptr inbounds %class.LLNL_FEI_Elem_Block, %class.LLNL_FEI_Elem_Block* %0, i64 0, i32 11
  %6 = load i32, i32* %5, align 4, !tbaa !32
  %7 = getelementptr inbounds %class.LLNL_FEI_Elem_Block, %class.LLNL_FEI_Elem_Block* %0, i64 0, i32 1
  %8 = load i32, i32* %7, align 4, !tbaa !9
  %9 = icmp slt i32 %6, %8
  br i1 %9, label %12, label %10

10:                                               ; preds = %4
  %11 = call i32 @puts(i8* nonnull dereferenceable(1) getelementptr inbounds ([62 x i8], [62 x i8]* @str.70, i64 0, i64 0))
  call void @exit(i32 1) #24
  unreachable

12:                                               ; preds = %4
  %13 = getelementptr inbounds %class.LLNL_FEI_Elem_Block, %class.LLNL_FEI_Elem_Block* %0, i64 0, i32 10
  %14 = load i32, i32* %13, align 8, !tbaa !31
  %15 = sext i32 %14 to i64
  %16 = call { i64, i1 } @llvm.umul.with.overflow.i64(i64 %15, i64 4)
  %17 = extractvalue { i64, i1 } %16, 1
  %18 = extractvalue { i64, i1 } %16, 0
  %19 = select i1 %17, i64 -1, i64 %18
  %20 = call noalias nonnull i8* @_Znam(i64 %19) #23
  %21 = getelementptr inbounds %class.LLNL_FEI_Elem_Block, %class.LLNL_FEI_Elem_Block* %0, i64 0, i32 4
  %22 = load i32**, i32*** %21, align 8, !tbaa !12
  %23 = sext i32 %6 to i64
  %24 = getelementptr inbounds i32*, i32** %22, i64 %23
  %25 = bitcast i32** %24 to i8**
  store i8* %20, i8** %25, align 8, !tbaa !13
  %26 = getelementptr inbounds %class.LLNL_FEI_Elem_Block, %class.LLNL_FEI_Elem_Block* %0, i64 0, i32 2
  %27 = load i32, i32* %26, align 8, !tbaa !10
  %28 = mul nsw i32 %27, %14
  %29 = mul nsw i32 %28, %28
  %30 = zext i32 %29 to i64
  %31 = shl nuw nsw i64 %30, 3
  %32 = call noalias nonnull i8* @_Znam(i64 %31) #23
  %33 = getelementptr inbounds %class.LLNL_FEI_Elem_Block, %class.LLNL_FEI_Elem_Block* %0, i64 0, i32 7
  %34 = load double**, double*** %33, align 8, !tbaa !17
  %35 = getelementptr inbounds double*, double** %34, i64 %23
  %36 = bitcast double** %35 to i8**
  store i8* %32, i8** %36, align 8, !tbaa !13
  %37 = getelementptr inbounds %class.LLNL_FEI_Elem_Block, %class.LLNL_FEI_Elem_Block* %0, i64 0, i32 9
  %38 = load double**, double*** %37, align 8, !tbaa !21
  %39 = getelementptr inbounds double*, double** %38, i64 %23
  %40 = load double*, double** %39, align 8, !tbaa !13
  %41 = icmp eq double* %40, null
  br i1 %41, label %44, label %42

42:                                               ; preds = %12
  %43 = bitcast double* %40 to i8*
  call void @_ZdaPv(i8* %43) #22
  br label %44

44:                                               ; preds = %42, %12
  %45 = sext i32 %28 to i64
  %46 = call { i64, i1 } @llvm.umul.with.overflow.i64(i64 %45, i64 8)
  %47 = extractvalue { i64, i1 } %46, 1
  %48 = extractvalue { i64, i1 } %46, 0
  %49 = select i1 %47, i64 -1, i64 %48
  %50 = call noalias nonnull i8* @_Znam(i64 %49) #23
  %51 = load double**, double*** %37, align 8, !tbaa !21
  %52 = load i32, i32* %5, align 4, !tbaa !32
  %53 = sext i32 %52 to i64
  %54 = getelementptr inbounds double*, double** %51, i64 %53
  %55 = bitcast double** %54 to i8**
  store i8* %50, i8** %55, align 8, !tbaa !13
  %56 = getelementptr inbounds %class.LLNL_FEI_Elem_Block, %class.LLNL_FEI_Elem_Block* %0, i64 0, i32 3
  %57 = load i32*, i32** %56, align 8, !tbaa !11
  %58 = getelementptr inbounds i32, i32* %57, i64 %53
  store i32 %1, i32* %58, align 4, !tbaa !46
  %59 = load i32**, i32*** %21, align 8
  %60 = load i32, i32* %13, align 8, !tbaa !31
  %61 = icmp sgt i32 %60, 0
  br i1 %61, label %74, label %62

62:                                               ; preds = %74, %44
  %63 = icmp sgt i32 %28, 0
  br i1 %63, label %64, label %87

64:                                               ; preds = %62
  %65 = load double**, double*** %37, align 8
  %66 = load i32, i32* %5, align 4
  %67 = sext i32 %66 to i64
  %68 = getelementptr inbounds double*, double** %65, i64 %67
  %69 = bitcast double** %68 to i8**
  %70 = load i8*, i8** %69, align 8, !tbaa !13
  %71 = mul i32 %27, %14
  %72 = zext i32 %71 to i64
  %73 = shl nuw nsw i64 %72, 3
  call void @llvm.memset.p0i8.i64(i8* align 8 %70, i8 0, i64 %73, i1 false)
  br label %87

74:                                               ; preds = %44, %74
  %75 = phi i64 [ %83, %74 ], [ 0, %44 ]
  %76 = getelementptr inbounds i32, i32* %2, i64 %75
  %77 = load i32, i32* %76, align 4, !tbaa !46
  %78 = load i32, i32* %5, align 4, !tbaa !32
  %79 = sext i32 %78 to i64
  %80 = getelementptr inbounds i32*, i32** %59, i64 %79
  %81 = load i32*, i32** %80, align 8, !tbaa !13
  %82 = getelementptr inbounds i32, i32* %81, i64 %75
  store i32 %77, i32* %82, align 4, !tbaa !46
  %83 = add nuw nsw i64 %75, 1
  %84 = load i32, i32* %13, align 8, !tbaa !31
  %85 = sext i32 %84 to i64
  %86 = icmp slt i64 %83, %85
  br i1 %86, label %74, label %62, !llvm.loop !51

87:                                               ; preds = %64, %62
  %88 = icmp sgt i32 %28, 0
  %89 = icmp sgt i32 %28, 0
  br i1 %89, label %90, label %105

90:                                               ; preds = %87
  %91 = mul i32 %27, %14
  %92 = zext i32 %91 to i64
  %93 = zext i32 %91 to i64
  br label %94

94:                                               ; preds = %90, %108
  %95 = phi i64 [ 0, %90 ], [ %109, %108 ]
  br i1 %88, label %96, label %108

96:                                               ; preds = %94
  %97 = load double**, double*** %33, align 8
  %98 = load i32, i32* %5, align 4
  %99 = sext i32 %98 to i64
  %100 = getelementptr inbounds double*, double** %97, i64 %99
  %101 = getelementptr inbounds double*, double** %3, i64 %95
  %102 = load double*, double** %101, align 8, !tbaa !13
  %103 = load double*, double** %100, align 8, !tbaa !13
  %104 = trunc i64 %95 to i32
  br label %111

105:                                              ; preds = %108, %87
  %106 = load i32, i32* %5, align 4, !tbaa !32
  %107 = add nsw i32 %106, 1
  store i32 %107, i32* %5, align 4, !tbaa !32
  ret i32 0

108:                                              ; preds = %111, %94
  %109 = add nuw nsw i64 %95, 1
  %110 = icmp eq i64 %109, %92
  br i1 %110, label %105, label %94, !llvm.loop !52

111:                                              ; preds = %96, %111
  %112 = phi i64 [ 0, %96 ], [ %120, %111 ]
  %113 = getelementptr inbounds double, double* %102, i64 %112
  %114 = load double, double* %113, align 8, !tbaa !40
  %115 = trunc i64 %112 to i32
  %116 = mul nsw i32 %28, %115
  %117 = add nsw i32 %116, %104
  %118 = sext i32 %117 to i64
  %119 = getelementptr inbounds double, double* %103, i64 %118
  store double %114, double* %119, align 8, !tbaa !40
  %120 = add nuw nsw i64 %112, 1
  %121 = icmp eq i64 %120, %93
  br i1 %121, label %108, label %111, !llvm.loop !53
}

; Function Attrs: mustprogress uwtable
define dso_local i32 @_ZN19LLNL_FEI_Elem_Block11loadElemRHSEiPd(%class.LLNL_FEI_Elem_Block* nocapture nonnull align 8 dereferenceable(96) %0, i32 %1, double* nocapture readonly %2) local_unnamed_addr #4 align 2 {
  %4 = getelementptr inbounds %class.LLNL_FEI_Elem_Block, %class.LLNL_FEI_Elem_Block* %0, i64 0, i32 10
  %5 = load i32, i32* %4, align 8, !tbaa !31
  %6 = getelementptr inbounds %class.LLNL_FEI_Elem_Block, %class.LLNL_FEI_Elem_Block* %0, i64 0, i32 2
  %7 = load i32, i32* %6, align 8, !tbaa !10
  %8 = mul nsw i32 %7, %5
  %9 = getelementptr inbounds %class.LLNL_FEI_Elem_Block, %class.LLNL_FEI_Elem_Block* %0, i64 0, i32 11
  %10 = load i32, i32* %9, align 4, !tbaa !32
  %11 = getelementptr inbounds %class.LLNL_FEI_Elem_Block, %class.LLNL_FEI_Elem_Block* %0, i64 0, i32 1
  %12 = load i32, i32* %11, align 4, !tbaa !9
  %13 = icmp slt i32 %10, %12
  br i1 %13, label %15, label %14

14:                                               ; preds = %3
  store i32 0, i32* %9, align 4, !tbaa !32
  br label %15

15:                                               ; preds = %14, %3
  %16 = icmp sgt i32 %12, 0
  br i1 %16, label %17, label %74

17:                                               ; preds = %15
  %18 = getelementptr inbounds %class.LLNL_FEI_Elem_Block, %class.LLNL_FEI_Elem_Block* %0, i64 0, i32 3
  %19 = load i32*, i32** %18, align 8, !tbaa !11
  %20 = load i32, i32* %9, align 4, !tbaa !32
  %21 = sext i32 %20 to i64
  %22 = getelementptr inbounds i32, i32* %19, i64 %21
  %23 = load i32, i32* %22, align 4, !tbaa !46
  %24 = icmp eq i32 %23, %1
  br i1 %24, label %74, label %25

25:                                               ; preds = %17
  %26 = getelementptr inbounds %class.LLNL_FEI_Elem_Block, %class.LLNL_FEI_Elem_Block* %0, i64 0, i32 5
  %27 = load i32*, i32** %26, align 8, !tbaa !23
  %28 = icmp eq i32* %27, null
  br i1 %28, label %29, label %70

29:                                               ; preds = %25
  %30 = sext i32 %12 to i64
  %31 = call { i64, i1 } @llvm.umul.with.overflow.i64(i64 %30, i64 4)
  %32 = extractvalue { i64, i1 } %31, 1
  %33 = extractvalue { i64, i1 } %31, 0
  %34 = select i1 %32, i64 -1, i64 %33
  %35 = call noalias nonnull i8* @_Znam(i64 %34) #23
  %36 = bitcast i32** %26 to i8**
  store i8* %35, i8** %36, align 8, !tbaa !23
  %37 = call noalias nonnull i8* @_Znam(i64 %34) #23
  %38 = getelementptr inbounds %class.LLNL_FEI_Elem_Block, %class.LLNL_FEI_Elem_Block* %0, i64 0, i32 6
  %39 = bitcast i32** %38 to i8**
  store i8* %37, i8** %39, align 8, !tbaa !24
  %40 = bitcast i8* %35 to i32*
  %41 = load i32, i32* %11, align 4, !tbaa !9
  %42 = icmp sgt i32 %41, 0
  br i1 %42, label %43, label %46

43:                                               ; preds = %29
  %44 = load i32, i32* %11, align 4, !tbaa !9
  %45 = sext i32 %44 to i64
  br label %50

46:                                               ; preds = %50, %29
  %47 = load i32*, i32** %38, align 8
  %48 = load i32, i32* %11, align 4, !tbaa !9
  %49 = icmp sgt i32 %48, 0
  br i1 %49, label %57, label %65

50:                                               ; preds = %43, %50
  %51 = phi i64 [ %55, %50 ], [ 0, %43 ]
  %52 = getelementptr inbounds i32, i32* %19, i64 %51
  %53 = load i32, i32* %52, align 4, !tbaa !46
  %54 = getelementptr inbounds i32, i32* %40, i64 %51
  store i32 %53, i32* %54, align 4, !tbaa !46
  %55 = add nuw nsw i64 %51, 1
  %56 = icmp slt i64 %55, %45
  br i1 %56, label %50, label %46, !llvm.loop !54

57:                                               ; preds = %46, %57
  %58 = phi i64 [ %61, %57 ], [ 0, %46 ]
  %59 = getelementptr inbounds i32, i32* %47, i64 %58
  %60 = trunc i64 %58 to i32
  store i32 %60, i32* %59, align 4, !tbaa !46
  %61 = add nuw nsw i64 %58, 1
  %62 = load i32, i32* %11, align 4, !tbaa !9
  %63 = sext i32 %62 to i64
  %64 = icmp slt i64 %61, %63
  br i1 %64, label %57, label %65, !llvm.loop !55

65:                                               ; preds = %57, %46
  %66 = phi i32 [ %48, %46 ], [ %62, %57 ]
  %67 = load i32*, i32** %26, align 8, !tbaa !23
  %68 = load i32*, i32** %38, align 8, !tbaa !24
  %69 = add nsw i32 %66, -1
  call void @_ZN12LLNL_FEI_Fei8IntSort2EPiS0_ii(i32* %67, i32* %68, i32 0, i32 %69)
  br label %70

70:                                               ; preds = %65, %25
  %71 = load i32*, i32** %26, align 8, !tbaa !23
  %72 = load i32, i32* %11, align 4, !tbaa !9
  %73 = call i32 @hypre_BinarySearch(i32* %71, i32 %1, i32 %72)
  store i32 %73, i32* %9, align 4, !tbaa !32
  br label %74

74:                                               ; preds = %70, %17, %15
  %75 = getelementptr inbounds %class.LLNL_FEI_Elem_Block, %class.LLNL_FEI_Elem_Block* %0, i64 0, i32 8
  %76 = load double**, double*** %75, align 8, !tbaa !19
  %77 = icmp eq double** %76, null
  br i1 %77, label %78, label %96

78:                                               ; preds = %74
  %79 = load i32, i32* %11, align 4, !tbaa !9
  %80 = sext i32 %79 to i64
  %81 = call { i64, i1 } @llvm.umul.with.overflow.i64(i64 %80, i64 8)
  %82 = extractvalue { i64, i1 } %81, 1
  %83 = extractvalue { i64, i1 } %81, 0
  %84 = select i1 %82, i64 -1, i64 %83
  %85 = call noalias nonnull i8* @_Znam(i64 %84) #23
  %86 = bitcast double*** %75 to i8**
  store i8* %85, i8** %86, align 8, !tbaa !19
  %87 = icmp sgt i32 %79, 0
  br i1 %87, label %88, label %96

88:                                               ; preds = %78
  %89 = zext i32 %79 to i64
  br label %90

90:                                               ; preds = %88, %90
  %91 = phi i64 [ 0, %88 ], [ %94, %90 ]
  %92 = load double**, double*** %75, align 8, !tbaa !19
  %93 = getelementptr inbounds double*, double** %92, i64 %91
  store double* null, double** %93, align 8, !tbaa !13
  %94 = add nuw nsw i64 %91, 1
  %95 = icmp eq i64 %94, %89
  br i1 %95, label %96, label %90, !llvm.loop !56

96:                                               ; preds = %90, %78, %74
  %97 = load double**, double*** %75, align 8, !tbaa !19
  %98 = load i32, i32* %9, align 4, !tbaa !32
  %99 = sext i32 %98 to i64
  %100 = getelementptr inbounds double*, double** %97, i64 %99
  %101 = load double*, double** %100, align 8, !tbaa !13
  %102 = icmp eq double* %101, null
  br i1 %102, label %103, label %111

103:                                              ; preds = %96
  %104 = sext i32 %8 to i64
  %105 = call { i64, i1 } @llvm.umul.with.overflow.i64(i64 %104, i64 8)
  %106 = extractvalue { i64, i1 } %105, 1
  %107 = extractvalue { i64, i1 } %105, 0
  %108 = select i1 %106, i64 -1, i64 %107
  %109 = call noalias nonnull i8* @_Znam(i64 %108) #23
  %110 = bitcast double** %100 to i8**
  store i8* %109, i8** %110, align 8, !tbaa !13
  br label %111

111:                                              ; preds = %103, %96
  %112 = icmp sgt i32 %8, 0
  br i1 %112, label %113, label %126

113:                                              ; preds = %111
  %114 = load double**, double*** %75, align 8
  %115 = getelementptr inbounds double*, double** %114, i64 %99
  %116 = load double*, double** %115, align 8, !tbaa !13
  %117 = mul i32 %7, %5
  %118 = zext i32 %117 to i64
  br label %119

119:                                              ; preds = %113, %119
  %120 = phi i64 [ 0, %113 ], [ %124, %119 ]
  %121 = getelementptr inbounds double, double* %2, i64 %120
  %122 = load double, double* %121, align 8, !tbaa !40
  %123 = getelementptr inbounds double, double* %116, i64 %120
  store double %122, double* %123, align 8, !tbaa !40
  %124 = add nuw nsw i64 %120, 1
  %125 = icmp eq i64 %124, %118
  br i1 %125, label %126, label %119, !llvm.loop !57

126:                                              ; preds = %119, %111
  %127 = add nsw i32 %98, 1
  store i32 %127, i32* %9, align 4, !tbaa !32
  ret i32 0
}

; Function Attrs: mustprogress nofree nosync nounwind uwtable
define dso_local void @_ZN12LLNL_FEI_Fei8IntSort2EPiS0_ii(i32* %0, i32* %1, i32 %2, i32 %3) local_unnamed_addr #11 align 2 {
  %5 = icmp slt i32 %2, %3
  br i1 %5, label %6, label %51

6:                                                ; preds = %4
  %7 = add nsw i32 %3, %2
  %8 = sdiv i32 %7, 2
  %9 = sext i32 %2 to i64
  %10 = getelementptr inbounds i32, i32* %0, i64 %9
  %11 = load i32, i32* %10, align 4, !tbaa !46
  %12 = sext i32 %8 to i64
  %13 = getelementptr inbounds i32, i32* %0, i64 %12
  %14 = load i32, i32* %13, align 4, !tbaa !46
  store i32 %14, i32* %10, align 4, !tbaa !46
  store i32 %11, i32* %13, align 4, !tbaa !46
  %15 = getelementptr inbounds i32, i32* %1, i64 %9
  %16 = load i32, i32* %15, align 4, !tbaa !46
  %17 = getelementptr inbounds i32, i32* %1, i64 %12
  %18 = load i32, i32* %17, align 4, !tbaa !46
  store i32 %18, i32* %15, align 4, !tbaa !46
  store i32 %16, i32* %17, align 4, !tbaa !46
  %19 = sext i32 %2 to i64
  %20 = sext i32 %3 to i64
  br label %21

21:                                               ; preds = %6, %38
  %22 = phi i64 [ %19, %6 ], [ %24, %38 ]
  %23 = phi i32 [ %2, %6 ], [ %39, %38 ]
  %24 = add nsw i64 %22, 1
  %25 = getelementptr inbounds i32, i32* %0, i64 %24
  %26 = load i32, i32* %25, align 4, !tbaa !46
  %27 = load i32, i32* %10, align 4, !tbaa !46
  %28 = icmp slt i32 %26, %27
  br i1 %28, label %29, label %38

29:                                               ; preds = %21
  %30 = add nsw i32 %23, 1
  %31 = sext i32 %30 to i64
  %32 = getelementptr inbounds i32, i32* %0, i64 %31
  %33 = load i32, i32* %32, align 4, !tbaa !46
  store i32 %26, i32* %32, align 4, !tbaa !46
  store i32 %33, i32* %25, align 4, !tbaa !46
  %34 = getelementptr inbounds i32, i32* %1, i64 %31
  %35 = load i32, i32* %34, align 4, !tbaa !46
  %36 = getelementptr inbounds i32, i32* %1, i64 %24
  %37 = load i32, i32* %36, align 4, !tbaa !46
  store i32 %37, i32* %34, align 4, !tbaa !46
  store i32 %35, i32* %36, align 4, !tbaa !46
  br label %38

38:                                               ; preds = %21, %29
  %39 = phi i32 [ %30, %29 ], [ %23, %21 ]
  %40 = icmp eq i64 %24, %20
  br i1 %40, label %41, label %21, !llvm.loop !58

41:                                               ; preds = %38
  %42 = load i32, i32* %10, align 4, !tbaa !46
  %43 = sext i32 %39 to i64
  %44 = getelementptr inbounds i32, i32* %0, i64 %43
  %45 = load i32, i32* %44, align 4, !tbaa !46
  store i32 %45, i32* %10, align 4, !tbaa !46
  store i32 %42, i32* %44, align 4, !tbaa !46
  %46 = load i32, i32* %15, align 4, !tbaa !46
  %47 = getelementptr inbounds i32, i32* %1, i64 %43
  %48 = load i32, i32* %47, align 4, !tbaa !46
  store i32 %48, i32* %15, align 4, !tbaa !46
  store i32 %46, i32* %47, align 4, !tbaa !46
  %49 = add nsw i32 %39, -1
  call void @_ZN12LLNL_FEI_Fei8IntSort2EPiS0_ii(i32* %0, i32* %1, i32 %2, i32 %49)
  %50 = add nsw i32 %39, 1
  call void @_ZN12LLNL_FEI_Fei8IntSort2EPiS0_ii(i32* %0, i32* %1, i32 %50, i32 %3)
  br label %51

51:                                               ; preds = %4, %41
  ret void
}

declare dso_local i32 @hypre_BinarySearch(i32*, i32, i32) local_unnamed_addr #12

; Function Attrs: mustprogress uwtable
define dso_local i32 @_ZN19LLNL_FEI_Elem_Block17checkLoadCompleteEv(%class.LLNL_FEI_Elem_Block* nocapture nonnull align 8 dereferenceable(96) %0) local_unnamed_addr #4 align 2 {
  %2 = getelementptr inbounds %class.LLNL_FEI_Elem_Block, %class.LLNL_FEI_Elem_Block* %0, i64 0, i32 11
  %3 = load i32, i32* %2, align 4, !tbaa !32
  %4 = getelementptr inbounds %class.LLNL_FEI_Elem_Block, %class.LLNL_FEI_Elem_Block* %0, i64 0, i32 1
  %5 = load i32, i32* %4, align 4, !tbaa !9
  %6 = icmp eq i32 %3, %5
  br i1 %6, label %7, label %34

7:                                                ; preds = %1
  %8 = getelementptr inbounds %class.LLNL_FEI_Elem_Block, %class.LLNL_FEI_Elem_Block* %0, i64 0, i32 12
  %9 = load double*, double** %8, align 8, !tbaa !25
  %10 = icmp eq double* %9, null
  br i1 %10, label %13, label %11

11:                                               ; preds = %7
  %12 = bitcast double* %9 to i8*
  call void @_ZdaPv(i8* %12) #22
  br label %13

13:                                               ; preds = %11, %7
  %14 = getelementptr inbounds %class.LLNL_FEI_Elem_Block, %class.LLNL_FEI_Elem_Block* %0, i64 0, i32 13
  %15 = load double*, double** %14, align 8, !tbaa !26
  %16 = icmp eq double* %15, null
  br i1 %16, label %19, label %17

17:                                               ; preds = %13
  %18 = bitcast double* %15 to i8*
  call void @_ZdaPv(i8* %18) #22
  br label %19

19:                                               ; preds = %17, %13
  %20 = getelementptr inbounds %class.LLNL_FEI_Elem_Block, %class.LLNL_FEI_Elem_Block* %0, i64 0, i32 10
  %21 = load i32, i32* %20, align 8, !tbaa !31
  %22 = getelementptr inbounds %class.LLNL_FEI_Elem_Block, %class.LLNL_FEI_Elem_Block* %0, i64 0, i32 2
  %23 = load i32, i32* %22, align 8, !tbaa !10
  %24 = mul nsw i32 %23, %21
  %25 = sext i32 %24 to i64
  %26 = call { i64, i1 } @llvm.umul.with.overflow.i64(i64 %25, i64 8)
  %27 = extractvalue { i64, i1 } %26, 1
  %28 = extractvalue { i64, i1 } %26, 0
  %29 = select i1 %27, i64 -1, i64 %28
  %30 = call noalias nonnull i8* @_Znam(i64 %29) #23
  %31 = bitcast double** %8 to i8**
  store i8* %30, i8** %31, align 8, !tbaa !25
  %32 = call noalias nonnull i8* @_Znam(i64 %29) #23
  %33 = bitcast double** %14 to i8**
  store i8* %32, i8** %33, align 8, !tbaa !26
  br label %34

34:                                               ; preds = %1, %19
  %35 = phi i32 [ 0, %19 ], [ 1, %1 ]
  ret i32 %35
}

; Function Attrs: uwtable
define dso_local void @_ZN12LLNL_FEI_FeiC2Ei(%class.LLNL_FEI_Fei* nonnull align 8 dereferenceable(312) %0, i32 %1) unnamed_addr #13 align 2 personality i8* bitcast (i32 (...)* @__gxx_personality_v0 to i8*) {
  %3 = getelementptr inbounds %class.LLNL_FEI_Fei, %class.LLNL_FEI_Fei* %0, i64 0, i32 0
  store i32 %1, i32* %3, align 8, !tbaa !59
  %4 = getelementptr inbounds %class.LLNL_FEI_Fei, %class.LLNL_FEI_Fei* %0, i64 0, i32 1
  %5 = call i32 @MPI_Comm_rank(i32 %1, i32* nonnull %4)
  %6 = getelementptr inbounds %class.LLNL_FEI_Fei, %class.LLNL_FEI_Fei* %0, i64 0, i32 2
  %7 = getelementptr inbounds %class.LLNL_FEI_Fei, %class.LLNL_FEI_Fei* %0, i64 0, i32 7
  %8 = bitcast i32* %6 to i8*
  call void @llvm.memset.p0i8.i64(i8* noundef nonnull align 8 dereferenceable(24) %8, i8 0, i64 24, i1 false)
  store i32 1, i32* %7, align 8, !tbaa !61
  %9 = getelementptr inbounds %class.LLNL_FEI_Fei, %class.LLNL_FEI_Fei* %0, i64 0, i32 8
  %10 = getelementptr inbounds %class.LLNL_FEI_Fei, %class.LLNL_FEI_Fei* %0, i64 0, i32 18
  store i32 0, i32* %10, align 8, !tbaa !62
  %11 = getelementptr inbounds %class.LLNL_FEI_Fei, %class.LLNL_FEI_Fei* %0, i64 0, i32 19
  %12 = getelementptr inbounds %class.LLNL_FEI_Fei, %class.LLNL_FEI_Fei* %0, i64 0, i32 15
  %13 = bitcast i32** %9 to i8*
  call void @llvm.memset.p0i8.i64(i8* noundef nonnull align 8 dereferenceable(48) %13, i8 0, i64 48, i1 false)
  %14 = bitcast i32** %11 to i8*
  call void @llvm.memset.p0i8.i64(i8* noundef nonnull align 8 dereferenceable(24) %14, i8 0, i64 24, i1 false)
  store i32 -1, i32* %12, align 8, !tbaa !63
  %15 = getelementptr inbounds %class.LLNL_FEI_Fei, %class.LLNL_FEI_Fei* %0, i64 0, i32 16
  %16 = getelementptr inbounds %class.LLNL_FEI_Fei, %class.LLNL_FEI_Fei* %0, i64 0, i32 22
  store i32 0, i32* %16, align 8, !tbaa !64
  %17 = getelementptr inbounds %class.LLNL_FEI_Fei, %class.LLNL_FEI_Fei* %0, i64 0, i32 23
  %18 = getelementptr inbounds %class.LLNL_FEI_Fei, %class.LLNL_FEI_Fei* %0, i64 0, i32 27
  %19 = bitcast double*** %15 to i8*
  call void @llvm.memset.p0i8.i64(i8* noundef nonnull align 8 dereferenceable(16) %19, i8 0, i64 16, i1 false)
  %20 = bitcast i32** %17 to i8*
  call void @llvm.memset.p0i8.i64(i8* noundef nonnull align 8 dereferenceable(28) %20, i8 0, i64 28, i1 false)
  %21 = bitcast i32** %18 to i8*
  call void @llvm.memset.p0i8.i64(i8* noundef nonnull align 8 dereferenceable(24) %21, i8 0, i64 24, i1 false)
  %22 = call noalias nonnull dereferenceable(216) i8* @_Znwm(i64 216) #23
  %23 = bitcast i8* %22 to %class.LLNL_FEI_Matrix*
  invoke void @_ZN15LLNL_FEI_MatrixC1Ei(%class.LLNL_FEI_Matrix* nonnull align 8 dereferenceable(216) %23, i32 %1)
          to label %24 unwind label %34

24:                                               ; preds = %2
  %25 = getelementptr inbounds %class.LLNL_FEI_Fei, %class.LLNL_FEI_Fei* %0, i64 0, i32 35
  %26 = bitcast %class.LLNL_FEI_Matrix** %25 to i8**
  store i8* %22, i8** %26, align 8, !tbaa !65
  %27 = getelementptr inbounds %class.LLNL_FEI_Fei, %class.LLNL_FEI_Fei* %0, i64 0, i32 36
  %28 = getelementptr inbounds %class.LLNL_FEI_Fei, %class.LLNL_FEI_Fei* %0, i64 0, i32 30
  store i32 0, i32* %28, align 8, !tbaa !66
  %29 = getelementptr inbounds %class.LLNL_FEI_Fei, %class.LLNL_FEI_Fei* %0, i64 0, i32 31
  %30 = getelementptr inbounds %class.LLNL_FEI_Fei, %class.LLNL_FEI_Fei* %0, i64 0, i32 39
  %31 = bitcast i32** %29 to i8*
  call void @llvm.memset.p0i8.i64(i8* noundef nonnull align 8 dereferenceable(32) %31, i8 0, i64 32, i1 false)
  %32 = bitcast double** %27 to i8*
  call void @llvm.memset.p0i8.i64(i8* noundef nonnull align 8 dereferenceable(20) %32, i8 0, i64 20, i1 false)
  %33 = bitcast double* %30 to i8*
  call void @llvm.memset.p0i8.i64(i8* noundef nonnull align 8 dereferenceable(16) %33, i8 0, i64 16, i1 false)
  ret void

34:                                               ; preds = %2
  %35 = landingpad { i8*, i32 }
          cleanup
  call void @_ZdlPv(i8* %22) #22
  resume { i8*, i32 } %35
}

declare dso_local i32 @MPI_Comm_rank(i32, i32*) local_unnamed_addr #12

; Function Attrs: nobuiltin allocsize(0)
declare dso_local nonnull i8* @_Znwm(i64) local_unnamed_addr #6

declare dso_local void @_ZN15LLNL_FEI_MatrixC1Ei(%class.LLNL_FEI_Matrix* nonnull align 8 dereferenceable(216), i32) unnamed_addr #12

declare dso_local i32 @__gxx_personality_v0(...)

; Function Attrs: nobuiltin nounwind
declare dso_local void @_ZdlPv(i8*) local_unnamed_addr #3

; Function Attrs: nounwind uwtable
define dso_local void @_ZN12LLNL_FEI_FeiD2Ev(%class.LLNL_FEI_Fei* nonnull align 8 dereferenceable(312) %0) unnamed_addr #1 align 2 personality i8* bitcast (i32 (...)* @__gxx_personality_v0 to i8*) {
  %2 = getelementptr inbounds %class.LLNL_FEI_Fei, %class.LLNL_FEI_Fei* %0, i64 0, i32 2
  %3 = load i32, i32* %2, align 8, !tbaa !67
  %4 = icmp sgt i32 %3, 2
  br i1 %4, label %5, label %12

5:                                                ; preds = %1
  %6 = getelementptr inbounds %class.LLNL_FEI_Fei, %class.LLNL_FEI_Fei* %0, i64 0, i32 1
  %7 = load i32, i32* %6, align 4, !tbaa !68
  %8 = call i32 (i8*, ...) @printf(i8* nonnull dereferenceable(1) getelementptr inbounds ([31 x i8], [31 x i8]* @.str.2, i64 0, i64 0), i32 %7)
  br label %12

9:                                                ; preds = %19
  %10 = landingpad { i8*, i32 }
          catch i8* null
  %11 = extractvalue { i8*, i32 } %10, 0
  call void @__clang_call_terminate(i8* %11) #24
  unreachable

12:                                               ; preds = %5, %1
  %13 = load i32, i32* %2, align 8, !tbaa !67
  %14 = icmp sgt i32 %13, 2
  br i1 %14, label %15, label %19

15:                                               ; preds = %12
  %16 = getelementptr inbounds %class.LLNL_FEI_Fei, %class.LLNL_FEI_Fei* %0, i64 0, i32 1
  %17 = load i32, i32* %16, align 4, !tbaa !68
  %18 = call i32 (i8*, ...) @printf(i8* nonnull dereferenceable(1) getelementptr inbounds ([43 x i8], [43 x i8]* @.str.23, i64 0, i64 0), i32 %17)
  br label %19

19:                                               ; preds = %15, %12
  %20 = invoke i32 @_ZN12LLNL_FEI_Fei11resetMatrixEd(%class.LLNL_FEI_Fei* nonnull align 8 dereferenceable(312) %0, double 0x4733426172C74D82)
          to label %21 unwind label %9

21:                                               ; preds = %19
  %22 = getelementptr inbounds %class.LLNL_FEI_Fei, %class.LLNL_FEI_Fei* %0, i64 0, i32 37
  %23 = load double*, double** %22, align 8, !tbaa !69
  %24 = icmp eq double* %23, null
  br i1 %24, label %27, label %25

25:                                               ; preds = %21
  %26 = bitcast double* %23 to i8*
  call void @_ZdaPv(i8* %26) #22
  br label %27

27:                                               ; preds = %25, %21
  store double* null, double** %22, align 8, !tbaa !69
  %28 = load i32, i32* %2, align 8, !tbaa !67
  %29 = icmp sgt i32 %28, 2
  br i1 %29, label %30, label %34

30:                                               ; preds = %27
  %31 = getelementptr inbounds %class.LLNL_FEI_Fei, %class.LLNL_FEI_Fei* %0, i64 0, i32 1
  %32 = load i32, i32* %31, align 4, !tbaa !68
  %33 = call i32 (i8*, ...) @printf(i8* nonnull dereferenceable(1) getelementptr inbounds ([39 x i8], [39 x i8]* @.str.24, i64 0, i64 0), i32 %32)
  br label %34

34:                                               ; preds = %30, %27
  %35 = getelementptr inbounds %class.LLNL_FEI_Fei, %class.LLNL_FEI_Fei* %0, i64 0, i32 35
  %36 = load %class.LLNL_FEI_Matrix*, %class.LLNL_FEI_Matrix** %35, align 8, !tbaa !65
  %37 = icmp eq %class.LLNL_FEI_Matrix* %36, null
  br i1 %37, label %40, label %38

38:                                               ; preds = %34
  call void @_ZN15LLNL_FEI_MatrixD1Ev(%class.LLNL_FEI_Matrix* nonnull align 8 dereferenceable(216) %36) #25
  %39 = bitcast %class.LLNL_FEI_Matrix* %36 to i8*
  call void @_ZdlPv(i8* %39) #22
  br label %40

40:                                               ; preds = %38, %34
  %41 = getelementptr inbounds %class.LLNL_FEI_Fei, %class.LLNL_FEI_Fei* %0, i64 0, i32 3
  %42 = getelementptr inbounds %class.LLNL_FEI_Fei, %class.LLNL_FEI_Fei* %0, i64 0, i32 4
  %43 = load i32, i32* %41, align 4, !tbaa !70
  %44 = icmp sgt i32 %43, 0
  br i1 %44, label %45, label %58

45:                                               ; preds = %40, %53
  %46 = phi i64 [ %54, %53 ], [ 0, %40 ]
  %47 = load %class.LLNL_FEI_Elem_Block**, %class.LLNL_FEI_Elem_Block*** %42, align 8, !tbaa !71
  %48 = getelementptr inbounds %class.LLNL_FEI_Elem_Block*, %class.LLNL_FEI_Elem_Block** %47, i64 %46
  %49 = load %class.LLNL_FEI_Elem_Block*, %class.LLNL_FEI_Elem_Block** %48, align 8, !tbaa !13
  %50 = icmp eq %class.LLNL_FEI_Elem_Block* %49, null
  br i1 %50, label %53, label %51

51:                                               ; preds = %45
  call void @_ZN19LLNL_FEI_Elem_BlockD2Ev(%class.LLNL_FEI_Elem_Block* nonnull align 8 dereferenceable(96) %49) #25
  %52 = bitcast %class.LLNL_FEI_Elem_Block* %49 to i8*
  call void @_ZdlPv(i8* %52) #22
  br label %53

53:                                               ; preds = %45, %51
  %54 = add nuw nsw i64 %46, 1
  %55 = load i32, i32* %41, align 4, !tbaa !70
  %56 = sext i32 %55 to i64
  %57 = icmp slt i64 %54, %56
  br i1 %57, label %45, label %58, !llvm.loop !72

58:                                               ; preds = %53, %40
  %59 = getelementptr inbounds %class.LLNL_FEI_Fei, %class.LLNL_FEI_Fei* %0, i64 0, i32 4
  %60 = load %class.LLNL_FEI_Elem_Block**, %class.LLNL_FEI_Elem_Block*** %59, align 8, !tbaa !71
  %61 = icmp eq %class.LLNL_FEI_Elem_Block** %60, null
  br i1 %61, label %64, label %62

62:                                               ; preds = %58
  %63 = bitcast %class.LLNL_FEI_Elem_Block** %60 to i8*
  call void @_ZdaPv(i8* %63) #22
  br label %64

64:                                               ; preds = %62, %58
  %65 = getelementptr inbounds %class.LLNL_FEI_Fei, %class.LLNL_FEI_Fei* %0, i64 0, i32 36
  %66 = load double*, double** %65, align 8, !tbaa !73
  %67 = icmp eq double* %66, null
  br i1 %67, label %70, label %68

68:                                               ; preds = %64
  %69 = bitcast double* %66 to i8*
  call void @_ZdaPv(i8* %69) #22
  br label %70

70:                                               ; preds = %68, %64
  ret void
}

; Function Attrs: mustprogress uwtable
define dso_local i32 @_ZN12LLNL_FEI_Fei11resetSystemEd(%class.LLNL_FEI_Fei* nonnull align 8 dereferenceable(312) %0, double %1) local_unnamed_addr #4 align 2 {
  %3 = getelementptr inbounds %class.LLNL_FEI_Fei, %class.LLNL_FEI_Fei* %0, i64 0, i32 2
  %4 = load i32, i32* %3, align 8, !tbaa !67
  %5 = icmp sgt i32 %4, 2
  br i1 %5, label %6, label %10

6:                                                ; preds = %2
  %7 = getelementptr inbounds %class.LLNL_FEI_Fei, %class.LLNL_FEI_Fei* %0, i64 0, i32 1
  %8 = load i32, i32* %7, align 4, !tbaa !68
  %9 = call i32 (i8*, ...) @printf(i8* nonnull dereferenceable(1) getelementptr inbounds ([43 x i8], [43 x i8]* @.str.23, i64 0, i64 0), i32 %8)
  br label %10

10:                                               ; preds = %6, %2
  %11 = call i32 @_ZN12LLNL_FEI_Fei11resetMatrixEd(%class.LLNL_FEI_Fei* nonnull align 8 dereferenceable(312) %0, double %1)
  %12 = getelementptr inbounds %class.LLNL_FEI_Fei, %class.LLNL_FEI_Fei* %0, i64 0, i32 37
  %13 = load double*, double** %12, align 8, !tbaa !69
  %14 = icmp eq double* %13, null
  br i1 %14, label %17, label %15

15:                                               ; preds = %10
  %16 = bitcast double* %13 to i8*
  call void @_ZdaPv(i8* %16) #22
  br label %17

17:                                               ; preds = %15, %10
  store double* null, double** %12, align 8, !tbaa !69
  %18 = load i32, i32* %3, align 8, !tbaa !67
  %19 = icmp sgt i32 %18, 2
  br i1 %19, label %20, label %24

20:                                               ; preds = %17
  %21 = getelementptr inbounds %class.LLNL_FEI_Fei, %class.LLNL_FEI_Fei* %0, i64 0, i32 1
  %22 = load i32, i32* %21, align 4, !tbaa !68
  %23 = call i32 (i8*, ...) @printf(i8* nonnull dereferenceable(1) getelementptr inbounds ([39 x i8], [39 x i8]* @.str.24, i64 0, i64 0), i32 %22)
  br label %24

24:                                               ; preds = %20, %17
  ret i32 0
}

; Function Attrs: nounwind
declare dso_local void @_ZN15LLNL_FEI_MatrixD1Ev(%class.LLNL_FEI_Matrix* nonnull align 8 dereferenceable(216)) unnamed_addr #14

; Function Attrs: noinline noreturn nounwind
define linkonce_odr hidden void @__clang_call_terminate(i8* %0) local_unnamed_addr #15 comdat {
  %2 = call i8* @__cxa_begin_catch(i8* %0) #25
  call void @_ZSt9terminatev() #24
  unreachable
}

declare dso_local i8* @__cxa_begin_catch(i8*) local_unnamed_addr

declare dso_local void @_ZSt9terminatev() local_unnamed_addr

; Function Attrs: mustprogress uwtable
define dso_local i32 @_ZN12LLNL_FEI_Fei10parametersEiPPc(%class.LLNL_FEI_Fei* nonnull align 8 dereferenceable(312) %0, i32 %1, i8** %2) local_unnamed_addr #4 align 2 {
  %4 = alloca [256 x i8], align 16
  %5 = getelementptr inbounds [256 x i8], [256 x i8]* %4, i64 0, i64 0
  call void @llvm.lifetime.start.p0i8(i64 256, i8* nonnull %5) #25
  %6 = getelementptr inbounds %class.LLNL_FEI_Fei, %class.LLNL_FEI_Fei* %0, i64 0, i32 2
  %7 = icmp sgt i32 %1, 0
  br i1 %7, label %8, label %40

8:                                                ; preds = %3
  %9 = zext i32 %1 to i64
  %10 = getelementptr inbounds %class.LLNL_FEI_Fei, %class.LLNL_FEI_Fei* %0, i64 0, i32 35
  br label %11

11:                                               ; preds = %8, %37
  %12 = phi i64 [ 0, %8 ], [ %38, %37 ]
  %13 = getelementptr inbounds i8*, i8** %2, i64 %12
  %14 = load i8*, i8** %13, align 8, !tbaa !13
  %15 = call i32 (i8*, i8*, ...) @__isoc99_sscanf(i8* %14, i8* getelementptr inbounds ([3 x i8], [3 x i8]* @.str.3, i64 0, i64 0), i8* nonnull %5) #25
  %16 = call i32 @bcmp(i8* noundef nonnull dereferenceable(12) %5, i8* noundef nonnull dereferenceable(12) getelementptr inbounds ([12 x i8], [12 x i8]* @.str.4, i64 0, i64 0), i64 12)
  %17 = icmp eq i32 %16, 0
  br i1 %17, label %18, label %28

18:                                               ; preds = %11
  %19 = load i8*, i8** %13, align 8, !tbaa !13
  %20 = call i32 (i8*, i8*, ...) @__isoc99_sscanf(i8* %19, i8* getelementptr inbounds ([6 x i8], [6 x i8]* @.str.5, i64 0, i64 0), i8* nonnull %5, i32* nonnull %6) #25
  %21 = load i32, i32* %6, align 8, !tbaa !67
  %22 = icmp slt i32 %21, 0
  br i1 %22, label %23, label %24

23:                                               ; preds = %18
  store i32 0, i32* %6, align 8, !tbaa !67
  br label %24

24:                                               ; preds = %23, %18
  %25 = load i32, i32* %6, align 8, !tbaa !67
  %26 = icmp sgt i32 %25, 4
  br i1 %26, label %27, label %34

27:                                               ; preds = %24
  store i32 4, i32* %6, align 8, !tbaa !67
  br label %34

28:                                               ; preds = %11
  %29 = call i32 @bcmp(i8* noundef nonnull dereferenceable(16) %5, i8* noundef nonnull dereferenceable(16) getelementptr inbounds ([16 x i8], [16 x i8]* @.str.6, i64 0, i64 0), i64 16)
  %30 = icmp eq i32 %29, 0
  br i1 %30, label %34, label %31

31:                                               ; preds = %28
  %32 = call i32 @bcmp(i8* noundef nonnull dereferenceable(9) %5, i8* noundef nonnull dereferenceable(9) getelementptr inbounds ([9 x i8], [9 x i8]* @.str.7, i64 0, i64 0), i64 9)
  %33 = icmp eq i32 %32, 0
  br i1 %33, label %34, label %37

34:                                               ; preds = %31, %28, %24, %27
  %35 = load %class.LLNL_FEI_Matrix*, %class.LLNL_FEI_Matrix** %10, align 8, !tbaa !65
  %36 = call i32 @_ZN15LLNL_FEI_Matrix10parametersEiPPc(%class.LLNL_FEI_Matrix* nonnull align 8 dereferenceable(216) %35, i32 1, i8** nonnull %13)
  br label %37

37:                                               ; preds = %34, %31
  %38 = add nuw nsw i64 %12, 1
  %39 = icmp eq i64 %38, %9
  br i1 %39, label %40, label %11, !llvm.loop !74

40:                                               ; preds = %37, %3
  call void @llvm.lifetime.end.p0i8(i64 256, i8* nonnull %5) #25
  ret i32 0
}

; Function Attrs: nofree nounwind
declare dso_local noundef i32 @__isoc99_sscanf(i8* nocapture noundef readonly, i8* nocapture noundef readonly, ...) local_unnamed_addr #9

declare dso_local i32 @_ZN15LLNL_FEI_Matrix10parametersEiPPc(%class.LLNL_FEI_Matrix* nonnull align 8 dereferenceable(216), i32, i8**) local_unnamed_addr #12

; Function Attrs: mustprogress nofree nounwind uwtable
define dso_local i32 @_ZN12LLNL_FEI_Fei10initFieldsEiPiS0_(%class.LLNL_FEI_Fei* nocapture nonnull align 8 dereferenceable(312) %0, i32 %1, i32* nocapture readonly %2, i32* nocapture readnone %3) local_unnamed_addr #16 align 2 {
  %5 = icmp eq i32 %1, 1
  br i1 %5, label %11, label %6

6:                                                ; preds = %4
  %7 = getelementptr inbounds %class.LLNL_FEI_Fei, %class.LLNL_FEI_Fei* %0, i64 0, i32 1
  %8 = load i32, i32* %7, align 4, !tbaa !68
  %9 = call i32 (i8*, ...) @printf(i8* nonnull dereferenceable(1) getelementptr inbounds ([57 x i8], [57 x i8]* @.str.8, i64 0, i64 0), i32 %8)
  %10 = call i32 @puts(i8* nonnull dereferenceable(1) getelementptr inbounds ([15 x i8], [15 x i8]* @str.71, i64 0, i64 0))
  br label %11

11:                                               ; preds = %4, %6
  %12 = phi i32 [ -1, %6 ], [ 0, %4 ]
  %13 = load i32, i32* %2, align 4, !tbaa !46
  %14 = getelementptr inbounds %class.LLNL_FEI_Fei, %class.LLNL_FEI_Fei* %0, i64 0, i32 7
  store i32 %13, i32* %14, align 8, !tbaa !61
  ret i32 %12
}

; Function Attrs: mustprogress uwtable
define dso_local i32 @_ZN12LLNL_FEI_Fei13initElemBlockEiiiPiPS0_iS0_i(%class.LLNL_FEI_Fei* nocapture nonnull align 8 dereferenceable(312) %0, i32 %1, i32 %2, i32 %3, i32* nocapture readonly %4, i32** nocapture readonly %5, i32 %6, i32* nocapture readonly %7, i32 %8) local_unnamed_addr #4 align 2 personality i8* bitcast (i32 (...)* @__gxx_personality_v0 to i8*) {
  %10 = getelementptr inbounds %class.LLNL_FEI_Fei, %class.LLNL_FEI_Fei* %0, i64 0, i32 2
  %11 = load i32, i32* %10, align 8, !tbaa !67
  %12 = icmp sgt i32 %11, 2
  br i1 %12, label %13, label %60

13:                                               ; preds = %9
  %14 = getelementptr inbounds %class.LLNL_FEI_Fei, %class.LLNL_FEI_Fei* %0, i64 0, i32 1
  %15 = load i32, i32* %14, align 4, !tbaa !68
  %16 = call i32 (i8*, ...) @printf(i8* nonnull dereferenceable(1) getelementptr inbounds ([46 x i8], [46 x i8]* @.str.10, i64 0, i64 0), i32 %15)
  %17 = call i32 (i8*, ...) @printf(i8* nonnull dereferenceable(1) getelementptr inbounds ([35 x i8], [35 x i8]* @.str.11, i64 0, i64 0), i32 %1)
  %18 = call i32 (i8*, ...) @printf(i8* nonnull dereferenceable(1) getelementptr inbounds ([35 x i8], [35 x i8]* @.str.12, i64 0, i64 0), i32 %2)
  %19 = call i32 (i8*, ...) @printf(i8* nonnull dereferenceable(1) getelementptr inbounds ([35 x i8], [35 x i8]* @.str.13, i64 0, i64 0), i32 %3)
  %20 = load i32, i32* %10, align 8, !tbaa !67
  %21 = icmp sgt i32 %20, 3
  br i1 %21, label %22, label %60

22:                                               ; preds = %13
  %23 = icmp sgt i32 %3, 0
  br i1 %23, label %24, label %26

24:                                               ; preds = %22
  %25 = zext i32 %3 to i64
  br label %30

26:                                               ; preds = %38, %22
  %27 = icmp sgt i32 %6, 0
  br i1 %27, label %28, label %60

28:                                               ; preds = %26
  %29 = zext i32 %6 to i64
  br label %52

30:                                               ; preds = %24, %38
  %31 = phi i64 [ 0, %24 ], [ %40, %38 ]
  %32 = trunc i64 %31 to i32
  %33 = call i32 (i8*, ...) @printf(i8* nonnull dereferenceable(1) getelementptr inbounds ([37 x i8], [37 x i8]* @.str.14, i64 0, i64 0), i32 %32)
  %34 = getelementptr inbounds i32, i32* %4, i64 %31
  %35 = getelementptr inbounds i32*, i32** %5, i64 %31
  %36 = load i32, i32* %34, align 4, !tbaa !46
  %37 = icmp sgt i32 %36, 0
  br i1 %37, label %42, label %38

38:                                               ; preds = %42, %30
  %39 = call i32 @putchar(i32 10)
  %40 = add nuw nsw i64 %31, 1
  %41 = icmp eq i64 %40, %25
  br i1 %41, label %26, label %30, !llvm.loop !75

42:                                               ; preds = %30, %42
  %43 = phi i64 [ %48, %42 ], [ 0, %30 ]
  %44 = load i32*, i32** %35, align 8, !tbaa !13
  %45 = getelementptr inbounds i32, i32* %44, i64 %43
  %46 = load i32, i32* %45, align 4, !tbaa !46
  %47 = call i32 (i8*, ...) @printf(i8* nonnull dereferenceable(1) getelementptr inbounds ([4 x i8], [4 x i8]* @.str.15, i64 0, i64 0), i32 %46)
  %48 = add nuw nsw i64 %43, 1
  %49 = load i32, i32* %34, align 4, !tbaa !46
  %50 = sext i32 %49 to i64
  %51 = icmp slt i64 %48, %50
  br i1 %51, label %42, label %38, !llvm.loop !76

52:                                               ; preds = %28, %52
  %53 = phi i64 [ 0, %28 ], [ %58, %52 ]
  %54 = getelementptr inbounds i32, i32* %7, i64 %53
  %55 = load i32, i32* %54, align 4, !tbaa !46
  %56 = trunc i64 %53 to i32
  %57 = call i32 (i8*, ...) @printf(i8* nonnull dereferenceable(1) getelementptr inbounds ([42 x i8], [42 x i8]* @.str.17, i64 0, i64 0), i32 %56, i32 %55)
  %58 = add nuw nsw i64 %53, 1
  %59 = icmp eq i64 %58, %29
  br i1 %59, label %60, label %52, !llvm.loop !77

60:                                               ; preds = %52, %26, %13, %9
  %61 = getelementptr inbounds %class.LLNL_FEI_Fei, %class.LLNL_FEI_Fei* %0, i64 0, i32 3
  %62 = load i32, i32* %61, align 4, !tbaa !70
  %63 = icmp eq i32 %62, 0
  br i1 %63, label %70, label %64

64:                                               ; preds = %60
  %65 = getelementptr inbounds %class.LLNL_FEI_Fei, %class.LLNL_FEI_Fei* %0, i64 0, i32 4
  %66 = load %class.LLNL_FEI_Elem_Block**, %class.LLNL_FEI_Elem_Block*** %65, align 8
  %67 = icmp sgt i32 %62, 0
  br i1 %67, label %68, label %85

68:                                               ; preds = %64
  %69 = zext i32 %62 to i64
  br label %99

70:                                               ; preds = %60
  %71 = call noalias nonnull dereferenceable(8) i8* @_Znam(i64 8) #23
  %72 = getelementptr inbounds %class.LLNL_FEI_Fei, %class.LLNL_FEI_Fei* %0, i64 0, i32 4
  %73 = bitcast %class.LLNL_FEI_Elem_Block*** %72 to i8**
  store i8* %71, i8** %73, align 8, !tbaa !71
  %74 = call noalias nonnull dereferenceable(96) i8* @_Znwm(i64 96) #23
  %75 = bitcast i8* %74 to %class.LLNL_FEI_Elem_Block*
  %76 = getelementptr inbounds %class.LLNL_FEI_Elem_Block, %class.LLNL_FEI_Elem_Block* %75, i64 0, i32 0
  store i32 %1, i32* %76, align 8, !tbaa !3
  %77 = getelementptr inbounds %class.LLNL_FEI_Elem_Block, %class.LLNL_FEI_Elem_Block* %75, i64 0, i32 1
  store i32 0, i32* %77, align 4, !tbaa !9
  %78 = getelementptr inbounds %class.LLNL_FEI_Elem_Block, %class.LLNL_FEI_Elem_Block* %75, i64 0, i32 2
  store i32 0, i32* %78, align 8, !tbaa !10
  %79 = getelementptr inbounds %class.LLNL_FEI_Elem_Block, %class.LLNL_FEI_Elem_Block* %75, i64 0, i32 3
  %80 = bitcast i32** %79 to i8*
  call void @llvm.memset.p0i8.i64(i8* noundef nonnull align 8 dereferenceable(80) %80, i8 0, i64 80, i1 false) #25
  %81 = bitcast %class.LLNL_FEI_Elem_Block*** %72 to i8***
  %82 = load i8**, i8*** %81, align 8, !tbaa !71
  store i8* %74, i8** %82, align 8, !tbaa !13
  store i32 1, i32* %61, align 4, !tbaa !70
  br label %135

83:                                               ; preds = %99
  %84 = icmp eq i64 %106, %69
  br i1 %84, label %85, label %99, !llvm.loop !78

85:                                               ; preds = %83, %64
  %86 = getelementptr inbounds %class.LLNL_FEI_Fei, %class.LLNL_FEI_Fei* %0, i64 0, i32 4
  %87 = load %class.LLNL_FEI_Elem_Block**, %class.LLNL_FEI_Elem_Block*** %86, align 8, !tbaa !71
  %88 = add nsw i32 %62, 1
  store i32 %88, i32* %61, align 4, !tbaa !70
  %89 = sext i32 %88 to i64
  %90 = call { i64, i1 } @llvm.umul.with.overflow.i64(i64 %89, i64 8)
  %91 = extractvalue { i64, i1 } %90, 1
  %92 = extractvalue { i64, i1 } %90, 0
  %93 = select i1 %91, i64 -1, i64 %92
  %94 = call noalias nonnull i8* @_Znam(i64 %93) #23
  %95 = bitcast %class.LLNL_FEI_Elem_Block*** %86 to i8**
  store i8* %94, i8** %95, align 8, !tbaa !71
  %96 = icmp sgt i32 %62, 0
  br i1 %96, label %97, label %112

97:                                               ; preds = %85
  %98 = zext i32 %62 to i64
  br label %125

99:                                               ; preds = %68, %83
  %100 = phi i64 [ 0, %68 ], [ %106, %83 ]
  %101 = getelementptr inbounds %class.LLNL_FEI_Elem_Block*, %class.LLNL_FEI_Elem_Block** %66, i64 %100
  %102 = load %class.LLNL_FEI_Elem_Block*, %class.LLNL_FEI_Elem_Block** %101, align 8, !tbaa !13
  %103 = getelementptr inbounds %class.LLNL_FEI_Elem_Block, %class.LLNL_FEI_Elem_Block* %102, i64 0, i32 0
  %104 = load i32, i32* %103, align 8, !tbaa !3
  %105 = icmp eq i32 %104, %1
  %106 = add nuw nsw i64 %100, 1
  br i1 %105, label %107, label %83

107:                                              ; preds = %99
  %108 = getelementptr inbounds %class.LLNL_FEI_Fei, %class.LLNL_FEI_Fei* %0, i64 0, i32 1
  %109 = load i32, i32* %108, align 4, !tbaa !68
  %110 = call i32 (i8*, ...) @printf(i8* nonnull dereferenceable(1) getelementptr inbounds ([43 x i8], [43 x i8]* @.str.18, i64 0, i64 0), i32 %109)
  %111 = call i32 @puts(i8* nonnull dereferenceable(1) getelementptr inbounds ([17 x i8], [17 x i8]* @str.72, i64 0, i64 0))
  call void @exit(i32 1) #24
  unreachable

112:                                              ; preds = %125, %85
  %113 = call noalias nonnull dereferenceable(96) i8* @_Znwm(i64 96) #23
  %114 = bitcast i8* %113 to %class.LLNL_FEI_Elem_Block*
  %115 = getelementptr inbounds %class.LLNL_FEI_Elem_Block, %class.LLNL_FEI_Elem_Block* %114, i64 0, i32 0
  store i32 %1, i32* %115, align 8, !tbaa !3
  %116 = getelementptr inbounds %class.LLNL_FEI_Elem_Block, %class.LLNL_FEI_Elem_Block* %114, i64 0, i32 1
  store i32 0, i32* %116, align 4, !tbaa !9
  %117 = getelementptr inbounds %class.LLNL_FEI_Elem_Block, %class.LLNL_FEI_Elem_Block* %114, i64 0, i32 2
  store i32 0, i32* %117, align 8, !tbaa !10
  %118 = getelementptr inbounds %class.LLNL_FEI_Elem_Block, %class.LLNL_FEI_Elem_Block* %114, i64 0, i32 3
  %119 = bitcast i32** %118 to i8*
  call void @llvm.memset.p0i8.i64(i8* noundef nonnull align 8 dereferenceable(80) %119, i8 0, i64 80, i1 false) #25
  %120 = load %class.LLNL_FEI_Elem_Block**, %class.LLNL_FEI_Elem_Block*** %86, align 8, !tbaa !71
  %121 = sext i32 %62 to i64
  %122 = getelementptr inbounds %class.LLNL_FEI_Elem_Block*, %class.LLNL_FEI_Elem_Block** %120, i64 %121
  %123 = bitcast %class.LLNL_FEI_Elem_Block** %122 to i8**
  store i8* %113, i8** %123, align 8, !tbaa !13
  %124 = icmp eq %class.LLNL_FEI_Elem_Block** %87, null
  br i1 %124, label %135, label %133

125:                                              ; preds = %97, %125
  %126 = phi i64 [ 0, %97 ], [ %131, %125 ]
  %127 = getelementptr inbounds %class.LLNL_FEI_Elem_Block*, %class.LLNL_FEI_Elem_Block** %87, i64 %126
  %128 = load %class.LLNL_FEI_Elem_Block*, %class.LLNL_FEI_Elem_Block** %127, align 8, !tbaa !13
  %129 = load %class.LLNL_FEI_Elem_Block**, %class.LLNL_FEI_Elem_Block*** %86, align 8, !tbaa !71
  %130 = getelementptr inbounds %class.LLNL_FEI_Elem_Block*, %class.LLNL_FEI_Elem_Block** %129, i64 %126
  store %class.LLNL_FEI_Elem_Block* %128, %class.LLNL_FEI_Elem_Block** %130, align 8, !tbaa !13
  %131 = add nuw nsw i64 %126, 1
  %132 = icmp eq i64 %131, %98
  br i1 %132, label %112, label %125, !llvm.loop !79

133:                                              ; preds = %112
  %134 = bitcast %class.LLNL_FEI_Elem_Block** %87 to i8*
  call void @_ZdaPv(i8* %134) #22
  br label %135

135:                                              ; preds = %112, %133, %70
  %136 = getelementptr inbounds %class.LLNL_FEI_Fei, %class.LLNL_FEI_Fei* %0, i64 0, i32 4
  %137 = load %class.LLNL_FEI_Elem_Block**, %class.LLNL_FEI_Elem_Block*** %136, align 8, !tbaa !71
  %138 = load i32, i32* %61, align 4, !tbaa !70
  %139 = add nsw i32 %138, -1
  %140 = sext i32 %139 to i64
  %141 = getelementptr inbounds %class.LLNL_FEI_Elem_Block*, %class.LLNL_FEI_Elem_Block** %137, i64 %140
  %142 = load %class.LLNL_FEI_Elem_Block*, %class.LLNL_FEI_Elem_Block** %141, align 8, !tbaa !13
  %143 = getelementptr inbounds %class.LLNL_FEI_Fei, %class.LLNL_FEI_Fei* %0, i64 0, i32 7
  %144 = load i32, i32* %143, align 8, !tbaa !61
  %145 = call i32 @_ZN19LLNL_FEI_Elem_Block10initializeEiii(%class.LLNL_FEI_Elem_Block* nonnull align 8 dereferenceable(96) %142, i32 %2, i32 %3, i32 %144)
  %146 = getelementptr inbounds %class.LLNL_FEI_Fei, %class.LLNL_FEI_Fei* %0, i64 0, i32 38
  store i32 0, i32* %146, align 8, !tbaa !80
  %147 = load i32, i32* %10, align 8, !tbaa !67
  %148 = icmp sgt i32 %147, 2
  br i1 %148, label %149, label %153

149:                                              ; preds = %135
  %150 = getelementptr inbounds %class.LLNL_FEI_Fei, %class.LLNL_FEI_Fei* %0, i64 0, i32 1
  %151 = load i32, i32* %150, align 4, !tbaa !68
  %152 = call i32 (i8*, ...) @printf(i8* nonnull dereferenceable(1) getelementptr inbounds ([41 x i8], [41 x i8]* @.str.20, i64 0, i64 0), i32 %151)
  br label %153

153:                                              ; preds = %149, %135
  ret i32 0
}

; Function Attrs: mustprogress uwtable
define dso_local i32 @_ZN12LLNL_FEI_Fei15initSharedNodesEiPiS0_PS0_(%class.LLNL_FEI_Fei* nocapture nonnull align 8 dereferenceable(312) %0, i32 %1, i32* nocapture readonly %2, i32* nocapture readonly %3, i32** nocapture readonly %4) local_unnamed_addr #4 align 2 {
  %6 = bitcast i32* %2 to i8*
  %7 = bitcast i32* %3 to i8*
  %8 = getelementptr inbounds %class.LLNL_FEI_Fei, %class.LLNL_FEI_Fei* %0, i64 0, i32 2
  %9 = load i32, i32* %8, align 8, !tbaa !67
  %10 = icmp sgt i32 %9, 2
  br i1 %10, label %11, label %15

11:                                               ; preds = %5
  %12 = getelementptr inbounds %class.LLNL_FEI_Fei, %class.LLNL_FEI_Fei* %0, i64 0, i32 1
  %13 = load i32, i32* %12, align 4, !tbaa !68
  %14 = call i32 (i8*, ...) @printf(i8* nonnull dereferenceable(1) getelementptr inbounds ([48 x i8], [48 x i8]* @.str.21, i64 0, i64 0), i32 %13)
  br label %15

15:                                               ; preds = %11, %5
  %16 = call double @MPI_Wtime()
  %17 = getelementptr inbounds %class.LLNL_FEI_Fei, %class.LLNL_FEI_Fei* %0, i64 0, i32 40
  store double %16, double* %17, align 8, !tbaa !81
  %18 = getelementptr inbounds %class.LLNL_FEI_Fei, %class.LLNL_FEI_Fei* %0, i64 0, i32 18
  %19 = load i32, i32* %18, align 8, !tbaa !62
  %20 = icmp sgt i32 %19, 0
  br i1 %20, label %21, label %173

21:                                               ; preds = %15
  %22 = add nsw i32 %19, %1
  %23 = getelementptr inbounds %class.LLNL_FEI_Fei, %class.LLNL_FEI_Fei* %0, i64 0, i32 19
  %24 = load i32*, i32** %23, align 8, !tbaa !82
  %25 = sext i32 %22 to i64
  %26 = call { i64, i1 } @llvm.umul.with.overflow.i64(i64 %25, i64 4)
  %27 = extractvalue { i64, i1 } %26, 1
  %28 = extractvalue { i64, i1 } %26, 0
  %29 = select i1 %27, i64 -1, i64 %28
  %30 = call noalias nonnull i8* @_Znam(i64 %29) #23
  %31 = bitcast i32** %23 to i8**
  store i8* %30, i8** %31, align 8, !tbaa !82
  %32 = bitcast i8* %30 to i32*
  %33 = load i32, i32* %18, align 8, !tbaa !62
  %34 = icmp sgt i32 %33, 0
  br i1 %34, label %35, label %38

35:                                               ; preds = %21
  %36 = load i32, i32* %18, align 8, !tbaa !62
  %37 = sext i32 %36 to i64
  br label %43

38:                                               ; preds = %43, %21
  %39 = load i32*, i32** %23, align 8
  %40 = icmp sgt i32 %1, 0
  br i1 %40, label %41, label %61

41:                                               ; preds = %38
  %42 = zext i32 %1 to i64
  br label %50

43:                                               ; preds = %35, %43
  %44 = phi i64 [ %48, %43 ], [ 0, %35 ]
  %45 = getelementptr inbounds i32, i32* %24, i64 %44
  %46 = load i32, i32* %45, align 4, !tbaa !46
  %47 = getelementptr inbounds i32, i32* %32, i64 %44
  store i32 %46, i32* %47, align 4, !tbaa !46
  %48 = add nuw nsw i64 %44, 1
  %49 = icmp slt i64 %48, %37
  br i1 %49, label %43, label %38, !llvm.loop !83

50:                                               ; preds = %41, %50
  %51 = phi i64 [ 0, %41 ], [ %59, %50 ]
  %52 = getelementptr inbounds i32, i32* %2, i64 %51
  %53 = load i32, i32* %52, align 4, !tbaa !46
  %54 = load i32, i32* %18, align 8, !tbaa !62
  %55 = trunc i64 %51 to i32
  %56 = add nsw i32 %54, %55
  %57 = sext i32 %56 to i64
  %58 = getelementptr inbounds i32, i32* %39, i64 %57
  store i32 %53, i32* %58, align 4, !tbaa !46
  %59 = add nuw nsw i64 %51, 1
  %60 = icmp eq i64 %59, %42
  br i1 %60, label %61, label %50, !llvm.loop !84

61:                                               ; preds = %50, %38
  %62 = getelementptr inbounds %class.LLNL_FEI_Fei, %class.LLNL_FEI_Fei* %0, i64 0, i32 20
  %63 = load i32*, i32** %62, align 8, !tbaa !85
  %64 = call noalias nonnull i8* @_Znam(i64 %29) #23
  %65 = bitcast i32** %62 to i8**
  store i8* %64, i8** %65, align 8, !tbaa !85
  %66 = bitcast i8* %64 to i32*
  %67 = load i32, i32* %18, align 8, !tbaa !62
  %68 = icmp sgt i32 %67, 0
  br i1 %68, label %69, label %72

69:                                               ; preds = %61
  %70 = load i32, i32* %18, align 8, !tbaa !62
  %71 = sext i32 %70 to i64
  br label %77

72:                                               ; preds = %77, %61
  %73 = load i32*, i32** %62, align 8
  %74 = icmp sgt i32 %1, 0
  br i1 %74, label %75, label %95

75:                                               ; preds = %72
  %76 = zext i32 %1 to i64
  br label %84

77:                                               ; preds = %69, %77
  %78 = phi i64 [ %82, %77 ], [ 0, %69 ]
  %79 = getelementptr inbounds i32, i32* %63, i64 %78
  %80 = load i32, i32* %79, align 4, !tbaa !46
  %81 = getelementptr inbounds i32, i32* %66, i64 %78
  store i32 %80, i32* %81, align 4, !tbaa !46
  %82 = add nuw nsw i64 %78, 1
  %83 = icmp slt i64 %82, %71
  br i1 %83, label %77, label %72, !llvm.loop !86

84:                                               ; preds = %75, %84
  %85 = phi i64 [ 0, %75 ], [ %93, %84 ]
  %86 = getelementptr inbounds i32, i32* %3, i64 %85
  %87 = load i32, i32* %86, align 4, !tbaa !46
  %88 = load i32, i32* %18, align 8, !tbaa !62
  %89 = trunc i64 %85 to i32
  %90 = add nsw i32 %88, %89
  %91 = sext i32 %90 to i64
  %92 = getelementptr inbounds i32, i32* %73, i64 %91
  store i32 %87, i32* %92, align 4, !tbaa !46
  %93 = add nuw nsw i64 %85, 1
  %94 = icmp eq i64 %93, %76
  br i1 %94, label %95, label %84, !llvm.loop !87

95:                                               ; preds = %84, %72
  %96 = getelementptr inbounds %class.LLNL_FEI_Fei, %class.LLNL_FEI_Fei* %0, i64 0, i32 21
  %97 = load i32**, i32*** %96, align 8, !tbaa !88
  %98 = call { i64, i1 } @llvm.umul.with.overflow.i64(i64 %25, i64 8)
  %99 = extractvalue { i64, i1 } %98, 1
  %100 = extractvalue { i64, i1 } %98, 0
  %101 = select i1 %99, i64 -1, i64 %100
  %102 = call noalias nonnull i8* @_Znam(i64 %101) #23
  %103 = bitcast i32*** %96 to i8**
  store i8* %102, i8** %103, align 8, !tbaa !88
  %104 = load i32, i32* %18, align 8, !tbaa !62
  %105 = icmp sgt i32 %104, 0
  br i1 %105, label %106, label %108

106:                                              ; preds = %95
  %107 = zext i32 %104 to i64
  br label %112

108:                                              ; preds = %112, %95
  %109 = icmp sgt i32 %1, 0
  br i1 %109, label %110, label %161

110:                                              ; preds = %108
  %111 = zext i32 %1 to i64
  br label %120

112:                                              ; preds = %106, %112
  %113 = phi i64 [ 0, %106 ], [ %118, %112 ]
  %114 = getelementptr inbounds i32*, i32** %97, i64 %113
  %115 = load i32*, i32** %114, align 8, !tbaa !13
  %116 = load i32**, i32*** %96, align 8, !tbaa !88
  %117 = getelementptr inbounds i32*, i32** %116, i64 %113
  store i32* %115, i32** %117, align 8, !tbaa !13
  %118 = add nuw nsw i64 %113, 1
  %119 = icmp eq i64 %118, %107
  br i1 %119, label %108, label %112, !llvm.loop !89

120:                                              ; preds = %110, %158
  %121 = phi i64 [ 0, %110 ], [ %159, %158 ]
  %122 = getelementptr inbounds i32, i32* %3, i64 %121
  %123 = load i32, i32* %122, align 4, !tbaa !46
  %124 = sext i32 %123 to i64
  %125 = call { i64, i1 } @llvm.umul.with.overflow.i64(i64 %124, i64 4)
  %126 = extractvalue { i64, i1 } %125, 1
  %127 = extractvalue { i64, i1 } %125, 0
  %128 = select i1 %126, i64 -1, i64 %127
  %129 = call noalias nonnull i8* @_Znam(i64 %128) #23
  %130 = load i32**, i32*** %96, align 8, !tbaa !88
  %131 = load i32, i32* %18, align 8, !tbaa !62
  %132 = trunc i64 %121 to i32
  %133 = add nsw i32 %131, %132
  %134 = sext i32 %133 to i64
  %135 = getelementptr inbounds i32*, i32** %130, i64 %134
  %136 = bitcast i32** %135 to i8**
  store i8* %129, i8** %136, align 8, !tbaa !13
  %137 = load i32**, i32*** %96, align 8
  %138 = load i32, i32* %122, align 4, !tbaa !46
  %139 = icmp sgt i32 %138, 0
  br i1 %139, label %140, label %158

140:                                              ; preds = %120
  %141 = getelementptr inbounds i32*, i32** %4, i64 %121
  %142 = load i32*, i32** %141, align 8, !tbaa !13
  %143 = trunc i64 %121 to i32
  br label %144

144:                                              ; preds = %140, %144
  %145 = phi i64 [ 0, %140 ], [ %154, %144 ]
  %146 = getelementptr inbounds i32, i32* %142, i64 %145
  %147 = load i32, i32* %146, align 4, !tbaa !46
  %148 = load i32, i32* %18, align 8, !tbaa !62
  %149 = add nsw i32 %148, %143
  %150 = sext i32 %149 to i64
  %151 = getelementptr inbounds i32*, i32** %137, i64 %150
  %152 = load i32*, i32** %151, align 8, !tbaa !13
  %153 = getelementptr inbounds i32, i32* %152, i64 %145
  store i32 %147, i32* %153, align 4, !tbaa !46
  %154 = add nuw nsw i64 %145, 1
  %155 = load i32, i32* %122, align 4, !tbaa !46
  %156 = sext i32 %155 to i64
  %157 = icmp slt i64 %154, %156
  br i1 %157, label %144, label %158, !llvm.loop !90

158:                                              ; preds = %144, %120
  %159 = add nuw nsw i64 %121, 1
  %160 = icmp eq i64 %159, %111
  br i1 %160, label %161, label %120, !llvm.loop !91

161:                                              ; preds = %158, %108
  store i32 %22, i32* %18, align 8, !tbaa !62
  %162 = icmp eq i32** %97, null
  br i1 %162, label %165, label %163

163:                                              ; preds = %161
  %164 = bitcast i32** %97 to i8*
  call void @_ZdaPv(i8* %164) #22
  br label %165

165:                                              ; preds = %163, %161
  %166 = icmp eq i32* %63, null
  br i1 %166, label %169, label %167

167:                                              ; preds = %165
  %168 = bitcast i32* %63 to i8*
  call void @_ZdaPv(i8* %168) #22
  br label %169

169:                                              ; preds = %167, %165
  %170 = icmp eq i32* %24, null
  br i1 %170, label %238, label %171

171:                                              ; preds = %169
  %172 = bitcast i32* %24 to i8*
  call void @_ZdaPv(i8* %172) #22
  br label %238

173:                                              ; preds = %15
  store i32 %1, i32* %18, align 8, !tbaa !62
  %174 = sext i32 %1 to i64
  %175 = call { i64, i1 } @llvm.umul.with.overflow.i64(i64 %174, i64 4)
  %176 = extractvalue { i64, i1 } %175, 1
  %177 = extractvalue { i64, i1 } %175, 0
  %178 = select i1 %176, i64 -1, i64 %177
  %179 = call noalias nonnull i8* @_Znam(i64 %178) #23
  %180 = getelementptr inbounds %class.LLNL_FEI_Fei, %class.LLNL_FEI_Fei* %0, i64 0, i32 19
  %181 = bitcast i32** %180 to i8**
  store i8* %179, i8** %181, align 8, !tbaa !82
  %182 = icmp sgt i32 %1, 0
  br i1 %182, label %183, label %186

183:                                              ; preds = %173
  %184 = zext i32 %1 to i64
  %185 = shl nuw nsw i64 %184, 2
  call void @llvm.memcpy.p0i8.p0i8.i64(i8* nonnull align 4 %179, i8* align 4 %6, i64 %185, i1 false)
  br label %186

186:                                              ; preds = %183, %173
  %187 = call noalias nonnull i8* @_Znam(i64 %178) #23
  %188 = getelementptr inbounds %class.LLNL_FEI_Fei, %class.LLNL_FEI_Fei* %0, i64 0, i32 20
  %189 = bitcast i32** %188 to i8**
  store i8* %187, i8** %189, align 8, !tbaa !85
  %190 = icmp sgt i32 %1, 0
  br i1 %190, label %191, label %194

191:                                              ; preds = %186
  %192 = zext i32 %1 to i64
  %193 = shl nuw nsw i64 %192, 2
  call void @llvm.memcpy.p0i8.p0i8.i64(i8* nonnull align 4 %187, i8* align 4 %7, i64 %193, i1 false)
  br label %194

194:                                              ; preds = %191, %186
  %195 = call { i64, i1 } @llvm.umul.with.overflow.i64(i64 %174, i64 8)
  %196 = extractvalue { i64, i1 } %195, 1
  %197 = extractvalue { i64, i1 } %195, 0
  %198 = select i1 %196, i64 -1, i64 %197
  %199 = call noalias nonnull i8* @_Znam(i64 %198) #23
  %200 = getelementptr inbounds %class.LLNL_FEI_Fei, %class.LLNL_FEI_Fei* %0, i64 0, i32 21
  %201 = bitcast i32*** %200 to i8**
  store i8* %199, i8** %201, align 8, !tbaa !88
  %202 = icmp sgt i32 %1, 0
  br i1 %202, label %203, label %238

203:                                              ; preds = %194
  %204 = zext i32 %1 to i64
  br label %205

205:                                              ; preds = %203, %235
  %206 = phi i64 [ 0, %203 ], [ %236, %235 ]
  %207 = getelementptr inbounds i32, i32* %3, i64 %206
  %208 = load i32, i32* %207, align 4, !tbaa !46
  %209 = sext i32 %208 to i64
  %210 = call { i64, i1 } @llvm.umul.with.overflow.i64(i64 %209, i64 4)
  %211 = extractvalue { i64, i1 } %210, 1
  %212 = extractvalue { i64, i1 } %210, 0
  %213 = select i1 %211, i64 -1, i64 %212
  %214 = call noalias nonnull i8* @_Znam(i64 %213) #23
  %215 = load i32**, i32*** %200, align 8, !tbaa !88
  %216 = getelementptr inbounds i32*, i32** %215, i64 %206
  %217 = bitcast i32** %216 to i8**
  store i8* %214, i8** %217, align 8, !tbaa !13
  %218 = load i32, i32* %207, align 4, !tbaa !46
  %219 = icmp sgt i32 %218, 0
  br i1 %219, label %220, label %235

220:                                              ; preds = %205
  %221 = load i32**, i32*** %200, align 8
  %222 = getelementptr inbounds i32*, i32** %221, i64 %206
  %223 = getelementptr inbounds i32*, i32** %4, i64 %206
  %224 = load i32*, i32** %223, align 8, !tbaa !13
  %225 = load i32*, i32** %222, align 8, !tbaa !13
  br label %226

226:                                              ; preds = %220, %226
  %227 = phi i64 [ 0, %220 ], [ %231, %226 ]
  %228 = getelementptr inbounds i32, i32* %224, i64 %227
  %229 = load i32, i32* %228, align 4, !tbaa !46
  %230 = getelementptr inbounds i32, i32* %225, i64 %227
  store i32 %229, i32* %230, align 4, !tbaa !46
  %231 = add nuw nsw i64 %227, 1
  %232 = load i32, i32* %207, align 4, !tbaa !46
  %233 = sext i32 %232 to i64
  %234 = icmp slt i64 %231, %233
  br i1 %234, label %226, label %235, !llvm.loop !92

235:                                              ; preds = %226, %205
  %236 = add nuw nsw i64 %206, 1
  %237 = icmp eq i64 %236, %204
  br i1 %237, label %238, label %205, !llvm.loop !93

238:                                              ; preds = %235, %194, %169, %171
  %239 = call double @MPI_Wtime()
  %240 = load double, double* %17, align 8, !tbaa !81
  %241 = fsub double %239, %240
  %242 = getelementptr inbounds %class.LLNL_FEI_Fei, %class.LLNL_FEI_Fei* %0, i64 0, i32 39
  %243 = load double, double* %242, align 8, !tbaa !94
  %244 = fadd double %243, %241
  store double %244, double* %242, align 8, !tbaa !94
  %245 = load i32, i32* %8, align 8, !tbaa !67
  %246 = icmp sgt i32 %245, 2
  br i1 %246, label %247, label %251

247:                                              ; preds = %238
  %248 = getelementptr inbounds %class.LLNL_FEI_Fei, %class.LLNL_FEI_Fei* %0, i64 0, i32 1
  %249 = load i32, i32* %248, align 4, !tbaa !68
  %250 = call i32 (i8*, ...) @printf(i8* nonnull dereferenceable(1) getelementptr inbounds ([44 x i8], [44 x i8]* @.str.22, i64 0, i64 0), i32 %249)
  br label %251

251:                                              ; preds = %247, %238
  ret i32 0
}

declare dso_local double @MPI_Wtime() local_unnamed_addr #12

; Function Attrs: mustprogress uwtable
define dso_local i32 @_ZN12LLNL_FEI_Fei11resetMatrixEd(%class.LLNL_FEI_Fei* nonnull align 8 dereferenceable(312) %0, double %1) local_unnamed_addr #4 align 2 personality i8* bitcast (i32 (...)* @__gxx_personality_v0 to i8*) {
  %3 = getelementptr inbounds %class.LLNL_FEI_Fei, %class.LLNL_FEI_Fei* %0, i64 0, i32 2
  %4 = load i32, i32* %3, align 8, !tbaa !67
  %5 = icmp sgt i32 %4, 2
  br i1 %5, label %6, label %10

6:                                                ; preds = %2
  %7 = getelementptr inbounds %class.LLNL_FEI_Fei, %class.LLNL_FEI_Fei* %0, i64 0, i32 1
  %8 = load i32, i32* %7, align 4, !tbaa !68
  %9 = call i32 (i8*, ...) @printf(i8* nonnull dereferenceable(1) getelementptr inbounds ([43 x i8], [43 x i8]* @.str.25, i64 0, i64 0), i32 %8)
  br label %10

10:                                               ; preds = %6, %2
  %11 = getelementptr inbounds %class.LLNL_FEI_Fei, %class.LLNL_FEI_Fei* %0, i64 0, i32 3
  %12 = getelementptr inbounds %class.LLNL_FEI_Fei, %class.LLNL_FEI_Fei* %0, i64 0, i32 4
  %13 = load i32, i32* %11, align 4, !tbaa !70
  %14 = icmp sgt i32 %13, 0
  br i1 %14, label %15, label %25

15:                                               ; preds = %10, %15
  %16 = phi i64 [ %21, %15 ], [ 0, %10 ]
  %17 = load %class.LLNL_FEI_Elem_Block**, %class.LLNL_FEI_Elem_Block*** %12, align 8, !tbaa !71
  %18 = getelementptr inbounds %class.LLNL_FEI_Elem_Block*, %class.LLNL_FEI_Elem_Block** %17, i64 %16
  %19 = load %class.LLNL_FEI_Elem_Block*, %class.LLNL_FEI_Elem_Block** %18, align 8, !tbaa !13
  %20 = call i32 @_ZN19LLNL_FEI_Elem_Block5resetEv(%class.LLNL_FEI_Elem_Block* nonnull align 8 dereferenceable(96) %19)
  %21 = add nuw nsw i64 %16, 1
  %22 = load i32, i32* %11, align 4, !tbaa !70
  %23 = sext i32 %22 to i64
  %24 = icmp slt i64 %21, %23
  br i1 %24, label %15, label %25, !llvm.loop !95

25:                                               ; preds = %15, %10
  %26 = getelementptr inbounds %class.LLNL_FEI_Fei, %class.LLNL_FEI_Fei* %0, i64 0, i32 5
  store i32 0, i32* %26, align 8, !tbaa !96
  %27 = getelementptr inbounds %class.LLNL_FEI_Fei, %class.LLNL_FEI_Fei* %0, i64 0, i32 6
  store i32 0, i32* %27, align 4, !tbaa !97
  %28 = getelementptr inbounds %class.LLNL_FEI_Fei, %class.LLNL_FEI_Fei* %0, i64 0, i32 8
  %29 = load i32*, i32** %28, align 8, !tbaa !98
  %30 = icmp eq i32* %29, null
  br i1 %30, label %33, label %31

31:                                               ; preds = %25
  %32 = bitcast i32* %29 to i8*
  call void @_ZdaPv(i8* %32) #22
  br label %33

33:                                               ; preds = %31, %25
  %34 = getelementptr inbounds %class.LLNL_FEI_Fei, %class.LLNL_FEI_Fei* %0, i64 0, i32 9
  %35 = load i32*, i32** %34, align 8, !tbaa !99
  %36 = icmp eq i32* %35, null
  br i1 %36, label %39, label %37

37:                                               ; preds = %33
  %38 = bitcast i32* %35 to i8*
  call void @_ZdaPv(i8* %38) #22
  br label %39

39:                                               ; preds = %37, %33
  %40 = getelementptr inbounds %class.LLNL_FEI_Fei, %class.LLNL_FEI_Fei* %0, i64 0, i32 10
  %41 = load i32*, i32** %40, align 8, !tbaa !100
  %42 = icmp eq i32* %41, null
  br i1 %42, label %45, label %43

43:                                               ; preds = %39
  %44 = bitcast i32* %41 to i8*
  call void @_ZdaPv(i8* %44) #22
  br label %45

45:                                               ; preds = %43, %39
  %46 = getelementptr inbounds %class.LLNL_FEI_Fei, %class.LLNL_FEI_Fei* %0, i64 0, i32 11
  %47 = load i32*, i32** %46, align 8, !tbaa !101
  %48 = icmp eq i32* %47, null
  br i1 %48, label %51, label %49

49:                                               ; preds = %45
  %50 = bitcast i32* %47 to i8*
  call void @_ZdaPv(i8* %50) #22
  br label %51

51:                                               ; preds = %49, %45
  %52 = getelementptr inbounds %class.LLNL_FEI_Fei, %class.LLNL_FEI_Fei* %0, i64 0, i32 23
  %53 = load i32*, i32** %52, align 8, !tbaa !102
  %54 = icmp eq i32* %53, null
  br i1 %54, label %57, label %55

55:                                               ; preds = %51
  %56 = bitcast i32* %53 to i8*
  call void @_ZdaPv(i8* %56) #22
  br label %57

57:                                               ; preds = %55, %51
  %58 = getelementptr inbounds %class.LLNL_FEI_Fei, %class.LLNL_FEI_Fei* %0, i64 0, i32 24
  %59 = load i32*, i32** %58, align 8, !tbaa !103
  %60 = icmp eq i32* %59, null
  br i1 %60, label %63, label %61

61:                                               ; preds = %57
  %62 = bitcast i32* %59 to i8*
  call void @_ZdaPv(i8* %62) #22
  br label %63

63:                                               ; preds = %61, %57
  %64 = getelementptr inbounds %class.LLNL_FEI_Fei, %class.LLNL_FEI_Fei* %0, i64 0, i32 25
  %65 = load i32*, i32** %64, align 8, !tbaa !104
  %66 = icmp eq i32* %65, null
  br i1 %66, label %69, label %67

67:                                               ; preds = %63
  %68 = bitcast i32* %65 to i8*
  call void @_ZdaPv(i8* %68) #22
  br label %69

69:                                               ; preds = %67, %63
  %70 = getelementptr inbounds %class.LLNL_FEI_Fei, %class.LLNL_FEI_Fei* %0, i64 0, i32 27
  %71 = load i32*, i32** %70, align 8, !tbaa !105
  %72 = icmp eq i32* %71, null
  br i1 %72, label %75, label %73

73:                                               ; preds = %69
  %74 = bitcast i32* %71 to i8*
  call void @_ZdaPv(i8* %74) #22
  br label %75

75:                                               ; preds = %73, %69
  %76 = getelementptr inbounds %class.LLNL_FEI_Fei, %class.LLNL_FEI_Fei* %0, i64 0, i32 28
  %77 = load i32*, i32** %76, align 8, !tbaa !106
  %78 = icmp eq i32* %77, null
  br i1 %78, label %81, label %79

79:                                               ; preds = %75
  %80 = bitcast i32* %77 to i8*
  call void @_ZdaPv(i8* %80) #22
  br label %81

81:                                               ; preds = %79, %75
  %82 = getelementptr inbounds %class.LLNL_FEI_Fei, %class.LLNL_FEI_Fei* %0, i64 0, i32 29
  %83 = load i32*, i32** %82, align 8, !tbaa !107
  %84 = icmp eq i32* %83, null
  br i1 %84, label %87, label %85

85:                                               ; preds = %81
  %86 = bitcast i32* %83 to i8*
  call void @_ZdaPv(i8* %86) #22
  br label %87

87:                                               ; preds = %85, %81
  %88 = getelementptr inbounds %class.LLNL_FEI_Fei, %class.LLNL_FEI_Fei* %0, i64 0, i32 35
  %89 = load %class.LLNL_FEI_Matrix*, %class.LLNL_FEI_Matrix** %88, align 8, !tbaa !65
  %90 = icmp eq %class.LLNL_FEI_Matrix* %89, null
  br i1 %90, label %93, label %91

91:                                               ; preds = %87
  call void @_ZN15LLNL_FEI_MatrixD1Ev(%class.LLNL_FEI_Matrix* nonnull align 8 dereferenceable(216) %89) #25
  %92 = bitcast %class.LLNL_FEI_Matrix* %89 to i8*
  call void @_ZdlPv(i8* %92) #22
  br label %93

93:                                               ; preds = %91, %87
  %94 = getelementptr inbounds %class.LLNL_FEI_Fei, %class.LLNL_FEI_Fei* %0, i64 0, i32 32
  %95 = load double**, double*** %94, align 8, !tbaa !108
  %96 = icmp eq double** %95, null
  br i1 %96, label %119, label %97

97:                                               ; preds = %93
  %98 = getelementptr inbounds %class.LLNL_FEI_Fei, %class.LLNL_FEI_Fei* %0, i64 0, i32 30
  %99 = load i32, i32* %98, align 8, !tbaa !66
  %100 = icmp sgt i32 %99, 0
  br i1 %100, label %101, label %114

101:                                              ; preds = %97, %109
  %102 = phi i64 [ %110, %109 ], [ 0, %97 ]
  %103 = load double**, double*** %94, align 8, !tbaa !108
  %104 = getelementptr inbounds double*, double** %103, i64 %102
  %105 = load double*, double** %104, align 8, !tbaa !13
  %106 = icmp eq double* %105, null
  br i1 %106, label %109, label %107

107:                                              ; preds = %101
  %108 = bitcast double* %105 to i8*
  call void @_ZdaPv(i8* %108) #22
  br label %109

109:                                              ; preds = %101, %107
  %110 = add nuw nsw i64 %102, 1
  %111 = load i32, i32* %98, align 8, !tbaa !66
  %112 = sext i32 %111 to i64
  %113 = icmp slt i64 %110, %112
  br i1 %113, label %101, label %114, !llvm.loop !109

114:                                              ; preds = %109, %97
  %115 = load double**, double*** %94, align 8, !tbaa !108
  %116 = icmp eq double** %115, null
  br i1 %116, label %119, label %117

117:                                              ; preds = %114
  %118 = bitcast double** %115 to i8*
  call void @_ZdaPv(i8* %118) #22
  br label %119

119:                                              ; preds = %114, %117, %93
  %120 = getelementptr inbounds %class.LLNL_FEI_Fei, %class.LLNL_FEI_Fei* %0, i64 0, i32 33
  %121 = load double**, double*** %120, align 8, !tbaa !110
  %122 = icmp eq double** %121, null
  br i1 %122, label %145, label %123

123:                                              ; preds = %119
  %124 = getelementptr inbounds %class.LLNL_FEI_Fei, %class.LLNL_FEI_Fei* %0, i64 0, i32 30
  %125 = load i32, i32* %124, align 8, !tbaa !66
  %126 = icmp sgt i32 %125, 0
  br i1 %126, label %127, label %140

127:                                              ; preds = %123, %135
  %128 = phi i64 [ %136, %135 ], [ 0, %123 ]
  %129 = load double**, double*** %120, align 8, !tbaa !110
  %130 = getelementptr inbounds double*, double** %129, i64 %128
  %131 = load double*, double** %130, align 8, !tbaa !13
  %132 = icmp eq double* %131, null
  br i1 %132, label %135, label %133

133:                                              ; preds = %127
  %134 = bitcast double* %131 to i8*
  call void @_ZdaPv(i8* %134) #22
  br label %135

135:                                              ; preds = %127, %133
  %136 = add nuw nsw i64 %128, 1
  %137 = load i32, i32* %124, align 8, !tbaa !66
  %138 = sext i32 %137 to i64
  %139 = icmp slt i64 %136, %138
  br i1 %139, label %127, label %140, !llvm.loop !111

140:                                              ; preds = %135, %123
  %141 = load double**, double*** %120, align 8, !tbaa !110
  %142 = icmp eq double** %141, null
  br i1 %142, label %145, label %143

143:                                              ; preds = %140
  %144 = bitcast double** %141 to i8*
  call void @_ZdaPv(i8* %144) #22
  br label %145

145:                                              ; preds = %140, %143, %119
  %146 = getelementptr inbounds %class.LLNL_FEI_Fei, %class.LLNL_FEI_Fei* %0, i64 0, i32 34
  %147 = load double**, double*** %146, align 8, !tbaa !112
  %148 = icmp eq double** %147, null
  br i1 %148, label %171, label %149

149:                                              ; preds = %145
  %150 = getelementptr inbounds %class.LLNL_FEI_Fei, %class.LLNL_FEI_Fei* %0, i64 0, i32 30
  %151 = load i32, i32* %150, align 8, !tbaa !66
  %152 = icmp sgt i32 %151, 0
  br i1 %152, label %153, label %166

153:                                              ; preds = %149, %161
  %154 = phi i64 [ %162, %161 ], [ 0, %149 ]
  %155 = load double**, double*** %146, align 8, !tbaa !112
  %156 = getelementptr inbounds double*, double** %155, i64 %154
  %157 = load double*, double** %156, align 8, !tbaa !13
  %158 = icmp eq double* %157, null
  br i1 %158, label %161, label %159

159:                                              ; preds = %153
  %160 = bitcast double* %157 to i8*
  call void @_ZdaPv(i8* %160) #22
  br label %161

161:                                              ; preds = %153, %159
  %162 = add nuw nsw i64 %154, 1
  %163 = load i32, i32* %150, align 8, !tbaa !66
  %164 = sext i32 %163 to i64
  %165 = icmp slt i64 %162, %164
  br i1 %165, label %153, label %166, !llvm.loop !113

166:                                              ; preds = %161, %149
  %167 = load double**, double*** %146, align 8, !tbaa !112
  %168 = icmp eq double** %167, null
  br i1 %168, label %171, label %169

169:                                              ; preds = %166
  %170 = bitcast double** %167 to i8*
  call void @_ZdaPv(i8* %170) #22
  br label %171

171:                                              ; preds = %166, %169, %145
  %172 = getelementptr inbounds %class.LLNL_FEI_Fei, %class.LLNL_FEI_Fei* %0, i64 0, i32 31
  %173 = load i32*, i32** %172, align 8, !tbaa !114
  %174 = icmp eq i32* %173, null
  br i1 %174, label %177, label %175

175:                                              ; preds = %171
  %176 = bitcast i32* %173 to i8*
  call void @_ZdaPv(i8* %176) #22
  br label %177

177:                                              ; preds = %175, %171
  %178 = fcmp oeq double %1, 0x4733426172C74D82
  br i1 %178, label %179, label %281

179:                                              ; preds = %177
  %180 = getelementptr inbounds %class.LLNL_FEI_Fei, %class.LLNL_FEI_Fei* %0, i64 0, i32 14
  %181 = load i32**, i32*** %180, align 8, !tbaa !115
  %182 = icmp eq i32** %181, null
  br i1 %182, label %205, label %183

183:                                              ; preds = %179
  %184 = getelementptr inbounds %class.LLNL_FEI_Fei, %class.LLNL_FEI_Fei* %0, i64 0, i32 12
  %185 = load i32, i32* %184, align 8, !tbaa !116
  %186 = icmp sgt i32 %185, 0
  br i1 %186, label %187, label %200

187:                                              ; preds = %183, %195
  %188 = phi i64 [ %196, %195 ], [ 0, %183 ]
  %189 = load i32**, i32*** %180, align 8, !tbaa !115
  %190 = getelementptr inbounds i32*, i32** %189, i64 %188
  %191 = load i32*, i32** %190, align 8, !tbaa !13
  %192 = icmp eq i32* %191, null
  br i1 %192, label %195, label %193

193:                                              ; preds = %187
  %194 = bitcast i32* %191 to i8*
  call void @_ZdaPv(i8* %194) #22
  br label %195

195:                                              ; preds = %187, %193
  %196 = add nuw nsw i64 %188, 1
  %197 = load i32, i32* %184, align 8, !tbaa !116
  %198 = sext i32 %197 to i64
  %199 = icmp slt i64 %196, %198
  br i1 %199, label %187, label %200, !llvm.loop !117

200:                                              ; preds = %195, %183
  %201 = load i32**, i32*** %180, align 8, !tbaa !115
  %202 = icmp eq i32** %201, null
  br i1 %202, label %205, label %203

203:                                              ; preds = %200
  %204 = bitcast i32** %201 to i8*
  call void @_ZdaPv(i8* %204) #22
  br label %205

205:                                              ; preds = %200, %203, %179
  %206 = getelementptr inbounds %class.LLNL_FEI_Fei, %class.LLNL_FEI_Fei* %0, i64 0, i32 16
  %207 = load double**, double*** %206, align 8, !tbaa !118
  %208 = icmp eq double** %207, null
  br i1 %208, label %231, label %209

209:                                              ; preds = %205
  %210 = getelementptr inbounds %class.LLNL_FEI_Fei, %class.LLNL_FEI_Fei* %0, i64 0, i32 12
  %211 = load i32, i32* %210, align 8, !tbaa !116
  %212 = icmp sgt i32 %211, 0
  br i1 %212, label %213, label %226

213:                                              ; preds = %209, %221
  %214 = phi i64 [ %222, %221 ], [ 0, %209 ]
  %215 = load double**, double*** %206, align 8, !tbaa !118
  %216 = getelementptr inbounds double*, double** %215, i64 %214
  %217 = load double*, double** %216, align 8, !tbaa !13
  %218 = icmp eq double* %217, null
  br i1 %218, label %221, label %219

219:                                              ; preds = %213
  %220 = bitcast double* %217 to i8*
  call void @_ZdaPv(i8* %220) #22
  br label %221

221:                                              ; preds = %213, %219
  %222 = add nuw nsw i64 %214, 1
  %223 = load i32, i32* %210, align 8, !tbaa !116
  %224 = sext i32 %223 to i64
  %225 = icmp slt i64 %222, %224
  br i1 %225, label %213, label %226, !llvm.loop !119

226:                                              ; preds = %221, %209
  %227 = load double**, double*** %206, align 8, !tbaa !118
  %228 = icmp eq double** %227, null
  br i1 %228, label %231, label %229

229:                                              ; preds = %226
  %230 = bitcast double** %227 to i8*
  call void @_ZdaPv(i8* %230) #22
  br label %231

231:                                              ; preds = %226, %229, %205
  %232 = getelementptr inbounds %class.LLNL_FEI_Fei, %class.LLNL_FEI_Fei* %0, i64 0, i32 17
  %233 = load double*, double** %232, align 8, !tbaa !120
  %234 = icmp eq double* %233, null
  br i1 %234, label %237, label %235

235:                                              ; preds = %231
  %236 = bitcast double* %233 to i8*
  call void @_ZdaPv(i8* %236) #22
  br label %237

237:                                              ; preds = %235, %231
  %238 = getelementptr inbounds %class.LLNL_FEI_Fei, %class.LLNL_FEI_Fei* %0, i64 0, i32 12
  %239 = getelementptr inbounds %class.LLNL_FEI_Fei, %class.LLNL_FEI_Fei* %0, i64 0, i32 19
  %240 = bitcast i32* %238 to i8*
  call void @llvm.memset.p0i8.i64(i8* noundef nonnull align 8 dereferenceable(16) %240, i8 0, i64 16, i1 false)
  %241 = bitcast double*** %206 to i8*
  call void @llvm.memset.p0i8.i64(i8* noundef nonnull align 8 dereferenceable(16) %241, i8 0, i64 16, i1 false)
  %242 = load i32*, i32** %239, align 8, !tbaa !82
  %243 = icmp eq i32* %242, null
  br i1 %243, label %246, label %244

244:                                              ; preds = %237
  %245 = bitcast i32* %242 to i8*
  call void @_ZdaPv(i8* %245) #22
  br label %246

246:                                              ; preds = %244, %237
  %247 = getelementptr inbounds %class.LLNL_FEI_Fei, %class.LLNL_FEI_Fei* %0, i64 0, i32 20
  %248 = load i32*, i32** %247, align 8, !tbaa !85
  %249 = icmp eq i32* %248, null
  br i1 %249, label %252, label %250

250:                                              ; preds = %246
  %251 = bitcast i32* %248 to i8*
  call void @_ZdaPv(i8* %251) #22
  br label %252

252:                                              ; preds = %250, %246
  %253 = getelementptr inbounds %class.LLNL_FEI_Fei, %class.LLNL_FEI_Fei* %0, i64 0, i32 21
  %254 = load i32**, i32*** %253, align 8, !tbaa !88
  %255 = icmp eq i32** %254, null
  br i1 %255, label %278, label %256

256:                                              ; preds = %252
  %257 = getelementptr inbounds %class.LLNL_FEI_Fei, %class.LLNL_FEI_Fei* %0, i64 0, i32 18
  %258 = load i32, i32* %257, align 8, !tbaa !62
  %259 = icmp sgt i32 %258, 0
  br i1 %259, label %260, label %273

260:                                              ; preds = %256, %268
  %261 = phi i64 [ %269, %268 ], [ 0, %256 ]
  %262 = load i32**, i32*** %253, align 8, !tbaa !88
  %263 = getelementptr inbounds i32*, i32** %262, i64 %261
  %264 = load i32*, i32** %263, align 8, !tbaa !13
  %265 = icmp eq i32* %264, null
  br i1 %265, label %268, label %266

266:                                              ; preds = %260
  %267 = bitcast i32* %264 to i8*
  call void @_ZdaPv(i8* %267) #22
  br label %268

268:                                              ; preds = %260, %266
  %269 = add nuw nsw i64 %261, 1
  %270 = load i32, i32* %257, align 8, !tbaa !62
  %271 = sext i32 %270 to i64
  %272 = icmp slt i64 %269, %271
  br i1 %272, label %260, label %273, !llvm.loop !121

273:                                              ; preds = %268, %256
  %274 = load i32**, i32*** %253, align 8, !tbaa !88
  %275 = icmp eq i32** %274, null
  br i1 %275, label %278, label %276

276:                                              ; preds = %273
  %277 = bitcast i32** %274 to i8*
  call void @_ZdaPv(i8* %277) #22
  br label %278

278:                                              ; preds = %273, %276, %252
  %279 = getelementptr inbounds %class.LLNL_FEI_Fei, %class.LLNL_FEI_Fei* %0, i64 0, i32 18
  store i32 0, i32* %279, align 8, !tbaa !62
  %280 = bitcast i32** %239 to i8*
  call void @llvm.memset.p0i8.i64(i8* noundef nonnull align 8 dereferenceable(24) %280, i8 0, i64 24, i1 false)
  br label %281

281:                                              ; preds = %177, %278
  %282 = getelementptr inbounds %class.LLNL_FEI_Fei, %class.LLNL_FEI_Fei* %0, i64 0, i32 22
  store i32 0, i32* %282, align 8, !tbaa !64
  %283 = bitcast i32** %28 to i8*
  call void @llvm.memset.p0i8.i64(i8* noundef nonnull align 8 dereferenceable(32) %283, i8 0, i64 32, i1 false)
  %284 = bitcast i32** %52 to i8*
  call void @llvm.memset.p0i8.i64(i8* noundef nonnull align 8 dereferenceable(28) %284, i8 0, i64 28, i1 false)
  %285 = bitcast i32** %70 to i8*
  call void @llvm.memset.p0i8.i64(i8* noundef nonnull align 8 dereferenceable(24) %285, i8 0, i64 24, i1 false)
  %286 = call noalias nonnull dereferenceable(216) i8* @_Znwm(i64 216) #23
  %287 = bitcast i8* %286 to %class.LLNL_FEI_Matrix*
  %288 = getelementptr inbounds %class.LLNL_FEI_Fei, %class.LLNL_FEI_Fei* %0, i64 0, i32 0
  %289 = load i32, i32* %288, align 8, !tbaa !59
  invoke void @_ZN15LLNL_FEI_MatrixC1Ei(%class.LLNL_FEI_Matrix* nonnull align 8 dereferenceable(216) %287, i32 %289)
          to label %290 unwind label %303

290:                                              ; preds = %281
  %291 = bitcast %class.LLNL_FEI_Matrix** %88 to i8**
  store i8* %286, i8** %291, align 8, !tbaa !65
  %292 = getelementptr inbounds %class.LLNL_FEI_Fei, %class.LLNL_FEI_Fei* %0, i64 0, i32 30
  store i32 0, i32* %292, align 8, !tbaa !66
  %293 = getelementptr inbounds %class.LLNL_FEI_Fei, %class.LLNL_FEI_Fei* %0, i64 0, i32 39
  %294 = getelementptr inbounds %class.LLNL_FEI_Fei, %class.LLNL_FEI_Fei* %0, i64 0, i32 38
  store i32 0, i32* %294, align 8, !tbaa !80
  %295 = bitcast i32** %172 to i8*
  call void @llvm.memset.p0i8.i64(i8* noundef nonnull align 8 dereferenceable(32) %295, i8 0, i64 32, i1 false)
  %296 = bitcast double* %293 to i8*
  call void @llvm.memset.p0i8.i64(i8* noundef nonnull align 8 dereferenceable(32) %296, i8 0, i64 32, i1 false)
  %297 = load i32, i32* %3, align 8, !tbaa !67
  %298 = icmp sgt i32 %297, 2
  br i1 %298, label %299, label %305

299:                                              ; preds = %290
  %300 = getelementptr inbounds %class.LLNL_FEI_Fei, %class.LLNL_FEI_Fei* %0, i64 0, i32 1
  %301 = load i32, i32* %300, align 4, !tbaa !68
  %302 = call i32 (i8*, ...) @printf(i8* nonnull dereferenceable(1) getelementptr inbounds ([39 x i8], [39 x i8]* @.str.26, i64 0, i64 0), i32 %301)
  br label %305

303:                                              ; preds = %281
  %304 = landingpad { i8*, i32 }
          cleanup
  call void @_ZdlPv(i8* %286) #22
  resume { i8*, i32 } %304

305:                                              ; preds = %299, %290
  ret i32 0
}

; Function Attrs: mustprogress nofree nounwind uwtable
define dso_local i32 @_ZN12LLNL_FEI_Fei14resetRHSVectorEd(%class.LLNL_FEI_Fei* nocapture nonnull readonly align 8 dereferenceable(312) %0, double %1) local_unnamed_addr #16 align 2 {
  %3 = getelementptr inbounds %class.LLNL_FEI_Fei, %class.LLNL_FEI_Fei* %0, i64 0, i32 2
  %4 = load i32, i32* %3, align 8, !tbaa !67
  %5 = icmp sgt i32 %4, 2
  br i1 %5, label %6, label %10

6:                                                ; preds = %2
  %7 = getelementptr inbounds %class.LLNL_FEI_Fei, %class.LLNL_FEI_Fei* %0, i64 0, i32 1
  %8 = load i32, i32* %7, align 4, !tbaa !68
  %9 = call i32 (i8*, ...) @printf(i8* nonnull dereferenceable(1) getelementptr inbounds ([46 x i8], [46 x i8]* @.str.27, i64 0, i64 0), i32 %8)
  br label %10

10:                                               ; preds = %6, %2
  %11 = getelementptr inbounds %class.LLNL_FEI_Fei, %class.LLNL_FEI_Fei* %0, i64 0, i32 3
  %12 = load i32, i32* %11, align 4, !tbaa !70
  %13 = getelementptr inbounds %class.LLNL_FEI_Fei, %class.LLNL_FEI_Fei* %0, i64 0, i32 4
  %14 = load %class.LLNL_FEI_Elem_Block**, %class.LLNL_FEI_Elem_Block*** %13, align 8
  %15 = icmp sgt i32 %12, 0
  br i1 %15, label %16, label %18

16:                                               ; preds = %10
  %17 = zext i32 %12 to i64
  br label %21

18:                                               ; preds = %54, %10
  %19 = load i32, i32* %3, align 8, !tbaa !67
  %20 = icmp sgt i32 %19, 2
  br i1 %20, label %58, label %62

21:                                               ; preds = %16, %54
  %22 = phi i64 [ 0, %16 ], [ %56, %54 ]
  %23 = getelementptr inbounds %class.LLNL_FEI_Elem_Block*, %class.LLNL_FEI_Elem_Block** %14, i64 %22
  %24 = load %class.LLNL_FEI_Elem_Block*, %class.LLNL_FEI_Elem_Block** %23, align 8, !tbaa !13
  %25 = getelementptr inbounds %class.LLNL_FEI_Elem_Block, %class.LLNL_FEI_Elem_Block* %24, i64 0, i32 8
  %26 = load double**, double*** %25, align 8, !tbaa !19
  %27 = icmp eq double** %26, null
  br i1 %27, label %54, label %28

28:                                               ; preds = %21
  %29 = getelementptr inbounds %class.LLNL_FEI_Elem_Block, %class.LLNL_FEI_Elem_Block* %24, i64 0, i32 2
  %30 = load i32, i32* %29, align 8, !tbaa !10
  %31 = getelementptr inbounds %class.LLNL_FEI_Elem_Block, %class.LLNL_FEI_Elem_Block* %24, i64 0, i32 10
  %32 = load i32, i32* %31, align 8, !tbaa !31
  %33 = mul i32 %32, %30
  %34 = getelementptr inbounds %class.LLNL_FEI_Elem_Block, %class.LLNL_FEI_Elem_Block* %24, i64 0, i32 1
  %35 = load i32, i32* %34, align 4, !tbaa !9
  %36 = icmp sgt i32 %33, 0
  %37 = icmp sgt i32 %35, 0
  br i1 %37, label %38, label %54

38:                                               ; preds = %28
  %39 = zext i32 %35 to i64
  %40 = zext i32 %33 to i64
  br label %41

41:                                               ; preds = %51, %38
  %42 = phi i64 [ 0, %38 ], [ %52, %51 ]
  br i1 %36, label %43, label %51

43:                                               ; preds = %41
  %44 = getelementptr inbounds double*, double** %26, i64 %42
  %45 = load double*, double** %44, align 8, !tbaa !13
  br label %46

46:                                               ; preds = %46, %43
  %47 = phi i64 [ 0, %43 ], [ %49, %46 ]
  %48 = getelementptr inbounds double, double* %45, i64 %47
  store double %1, double* %48, align 8, !tbaa !40
  %49 = add nuw nsw i64 %47, 1
  %50 = icmp eq i64 %49, %40
  br i1 %50, label %51, label %46, !llvm.loop !42

51:                                               ; preds = %46, %41
  %52 = add nuw nsw i64 %42, 1
  %53 = icmp eq i64 %52, %39
  br i1 %53, label %54, label %41, !llvm.loop !43

54:                                               ; preds = %51, %21, %28
  %55 = getelementptr inbounds %class.LLNL_FEI_Elem_Block, %class.LLNL_FEI_Elem_Block* %24, i64 0, i32 11
  store i32 0, i32* %55, align 4, !tbaa !32
  %56 = add nuw nsw i64 %22, 1
  %57 = icmp eq i64 %56, %17
  br i1 %57, label %18, label %21, !llvm.loop !122

58:                                               ; preds = %18
  %59 = getelementptr inbounds %class.LLNL_FEI_Fei, %class.LLNL_FEI_Fei* %0, i64 0, i32 1
  %60 = load i32, i32* %59, align 4, !tbaa !68
  %61 = call i32 (i8*, ...) @printf(i8* nonnull dereferenceable(1) getelementptr inbounds ([42 x i8], [42 x i8]* @.str.28, i64 0, i64 0), i32 %60)
  br label %62

62:                                               ; preds = %58, %18
  ret i32 0
}

; Function Attrs: mustprogress nofree nounwind uwtable
define dso_local i32 @_ZN12LLNL_FEI_Fei17resetInitialGuessEd(%class.LLNL_FEI_Fei* nocapture nonnull readonly align 8 dereferenceable(312) %0, double %1) local_unnamed_addr #16 align 2 {
  %3 = getelementptr inbounds %class.LLNL_FEI_Fei, %class.LLNL_FEI_Fei* %0, i64 0, i32 2
  %4 = load i32, i32* %3, align 8, !tbaa !67
  %5 = icmp sgt i32 %4, 2
  br i1 %5, label %6, label %10

6:                                                ; preds = %2
  %7 = getelementptr inbounds %class.LLNL_FEI_Fei, %class.LLNL_FEI_Fei* %0, i64 0, i32 1
  %8 = load i32, i32* %7, align 4, !tbaa !68
  %9 = call i32 (i8*, ...) @printf(i8* nonnull dereferenceable(1) getelementptr inbounds ([49 x i8], [49 x i8]* @.str.29, i64 0, i64 0), i32 %8)
  br label %10

10:                                               ; preds = %6, %2
  %11 = getelementptr inbounds %class.LLNL_FEI_Fei, %class.LLNL_FEI_Fei* %0, i64 0, i32 3
  %12 = load i32, i32* %11, align 4, !tbaa !70
  %13 = getelementptr inbounds %class.LLNL_FEI_Fei, %class.LLNL_FEI_Fei* %0, i64 0, i32 4
  %14 = load %class.LLNL_FEI_Elem_Block**, %class.LLNL_FEI_Elem_Block*** %13, align 8
  %15 = icmp sgt i32 %12, 0
  br i1 %15, label %16, label %18

16:                                               ; preds = %10
  %17 = zext i32 %12 to i64
  br label %21

18:                                               ; preds = %54, %10
  %19 = load i32, i32* %3, align 8, !tbaa !67
  %20 = icmp sgt i32 %19, 2
  br i1 %20, label %58, label %62

21:                                               ; preds = %16, %54
  %22 = phi i64 [ 0, %16 ], [ %56, %54 ]
  %23 = getelementptr inbounds %class.LLNL_FEI_Elem_Block*, %class.LLNL_FEI_Elem_Block** %14, i64 %22
  %24 = load %class.LLNL_FEI_Elem_Block*, %class.LLNL_FEI_Elem_Block** %23, align 8, !tbaa !13
  %25 = getelementptr inbounds %class.LLNL_FEI_Elem_Block, %class.LLNL_FEI_Elem_Block* %24, i64 0, i32 9
  %26 = load double**, double*** %25, align 8, !tbaa !21
  %27 = icmp eq double** %26, null
  br i1 %27, label %54, label %28

28:                                               ; preds = %21
  %29 = getelementptr inbounds %class.LLNL_FEI_Elem_Block, %class.LLNL_FEI_Elem_Block* %24, i64 0, i32 2
  %30 = load i32, i32* %29, align 8, !tbaa !10
  %31 = getelementptr inbounds %class.LLNL_FEI_Elem_Block, %class.LLNL_FEI_Elem_Block* %24, i64 0, i32 10
  %32 = load i32, i32* %31, align 8, !tbaa !31
  %33 = mul i32 %32, %30
  %34 = getelementptr inbounds %class.LLNL_FEI_Elem_Block, %class.LLNL_FEI_Elem_Block* %24, i64 0, i32 1
  %35 = load i32, i32* %34, align 4, !tbaa !9
  %36 = icmp sgt i32 %33, 0
  %37 = icmp sgt i32 %35, 0
  br i1 %37, label %38, label %54

38:                                               ; preds = %28
  %39 = zext i32 %35 to i64
  %40 = zext i32 %33 to i64
  br label %41

41:                                               ; preds = %51, %38
  %42 = phi i64 [ 0, %38 ], [ %52, %51 ]
  br i1 %36, label %43, label %51

43:                                               ; preds = %41
  %44 = getelementptr inbounds double*, double** %26, i64 %42
  %45 = load double*, double** %44, align 8, !tbaa !13
  br label %46

46:                                               ; preds = %46, %43
  %47 = phi i64 [ 0, %43 ], [ %49, %46 ]
  %48 = getelementptr inbounds double, double* %45, i64 %47
  store double %1, double* %48, align 8, !tbaa !40
  %49 = add nuw nsw i64 %47, 1
  %50 = icmp eq i64 %49, %40
  br i1 %50, label %51, label %46, !llvm.loop !44

51:                                               ; preds = %46, %41
  %52 = add nuw nsw i64 %42, 1
  %53 = icmp eq i64 %52, %39
  br i1 %53, label %54, label %41, !llvm.loop !45

54:                                               ; preds = %51, %21, %28
  %55 = getelementptr inbounds %class.LLNL_FEI_Elem_Block, %class.LLNL_FEI_Elem_Block* %24, i64 0, i32 11
  store i32 0, i32* %55, align 4, !tbaa !32
  %56 = add nuw nsw i64 %22, 1
  %57 = icmp eq i64 %56, %17
  br i1 %57, label %18, label %21, !llvm.loop !123

58:                                               ; preds = %18
  %59 = getelementptr inbounds %class.LLNL_FEI_Fei, %class.LLNL_FEI_Fei* %0, i64 0, i32 1
  %60 = load i32, i32* %59, align 4, !tbaa !68
  %61 = call i32 (i8*, ...) @printf(i8* nonnull dereferenceable(1) getelementptr inbounds ([50 x i8], [50 x i8]* @.str.30, i64 0, i64 0), i32 %60, double %1)
  br label %62

62:                                               ; preds = %58, %18
  ret i32 0
}

; Function Attrs: mustprogress uwtable
define dso_local i32 @_ZN12LLNL_FEI_Fei11loadNodeBCsEiPiiPPdS2_S2_(%class.LLNL_FEI_Fei* nocapture nonnull align 8 dereferenceable(312) %0, i32 %1, i32* nocapture readonly %2, i32 %3, double** nocapture readonly %4, double** nocapture readonly %5, double** nocapture readonly %6) local_unnamed_addr #4 align 2 {
  %8 = getelementptr inbounds %class.LLNL_FEI_Fei, %class.LLNL_FEI_Fei* %0, i64 0, i32 2
  %9 = load i32, i32* %8, align 8, !tbaa !67
  %10 = icmp sgt i32 %9, 2
  br i1 %10, label %11, label %15

11:                                               ; preds = %7
  %12 = getelementptr inbounds %class.LLNL_FEI_Fei, %class.LLNL_FEI_Fei* %0, i64 0, i32 1
  %13 = load i32, i32* %12, align 4, !tbaa !68
  %14 = call i32 (i8*, ...) @printf(i8* nonnull dereferenceable(1) getelementptr inbounds ([47 x i8], [47 x i8]* @.str.31, i64 0, i64 0), i32 %13, i32 %1)
  br label %15

15:                                               ; preds = %11, %7
  %16 = call double @MPI_Wtime()
  %17 = getelementptr inbounds %class.LLNL_FEI_Fei, %class.LLNL_FEI_Fei* %0, i64 0, i32 40
  store double %16, double* %17, align 8, !tbaa !81
  %18 = icmp sgt i32 %1, 0
  br i1 %18, label %19, label %238

19:                                               ; preds = %15
  %20 = getelementptr inbounds %class.LLNL_FEI_Fei, %class.LLNL_FEI_Fei* %0, i64 0, i32 30
  %21 = load i32, i32* %20, align 8, !tbaa !66
  %22 = icmp eq i32 %21, 0
  br i1 %22, label %23, label %107

23:                                               ; preds = %19
  store i32 %1, i32* %20, align 8, !tbaa !66
  %24 = sext i32 %1 to i64
  %25 = call { i64, i1 } @llvm.umul.with.overflow.i64(i64 %24, i64 4)
  %26 = extractvalue { i64, i1 } %25, 1
  %27 = extractvalue { i64, i1 } %25, 0
  %28 = select i1 %26, i64 -1, i64 %27
  %29 = call noalias nonnull i8* @_Znam(i64 %28) #23
  %30 = getelementptr inbounds %class.LLNL_FEI_Fei, %class.LLNL_FEI_Fei* %0, i64 0, i32 31
  %31 = bitcast i32** %30 to i8**
  store i8* %29, i8** %31, align 8, !tbaa !114
  %32 = call { i64, i1 } @llvm.umul.with.overflow.i64(i64 %24, i64 8)
  %33 = extractvalue { i64, i1 } %32, 1
  %34 = extractvalue { i64, i1 } %32, 0
  %35 = select i1 %33, i64 -1, i64 %34
  %36 = call noalias nonnull i8* @_Znam(i64 %35) #23
  %37 = getelementptr inbounds %class.LLNL_FEI_Fei, %class.LLNL_FEI_Fei* %0, i64 0, i32 32
  %38 = bitcast double*** %37 to i8**
  store i8* %36, i8** %38, align 8, !tbaa !108
  %39 = call noalias nonnull i8* @_Znam(i64 %35) #23
  %40 = getelementptr inbounds %class.LLNL_FEI_Fei, %class.LLNL_FEI_Fei* %0, i64 0, i32 33
  %41 = bitcast double*** %40 to i8**
  store i8* %39, i8** %41, align 8, !tbaa !110
  %42 = call noalias nonnull i8* @_Znam(i64 %35) #23
  %43 = getelementptr inbounds %class.LLNL_FEI_Fei, %class.LLNL_FEI_Fei* %0, i64 0, i32 34
  %44 = bitcast double*** %43 to i8**
  store i8* %42, i8** %44, align 8, !tbaa !112
  %45 = getelementptr inbounds %class.LLNL_FEI_Fei, %class.LLNL_FEI_Fei* %0, i64 0, i32 7
  %46 = icmp sgt i32 %1, 0
  br i1 %46, label %47, label %238

47:                                               ; preds = %23
  %48 = zext i32 %1 to i64
  br label %49

49:                                               ; preds = %47, %104
  %50 = phi i64 [ 0, %47 ], [ %105, %104 ]
  %51 = getelementptr inbounds i32, i32* %2, i64 %50
  %52 = load i32, i32* %51, align 4, !tbaa !46
  %53 = load i32*, i32** %30, align 8, !tbaa !114
  %54 = getelementptr inbounds i32, i32* %53, i64 %50
  store i32 %52, i32* %54, align 4, !tbaa !46
  %55 = load i32, i32* %45, align 8, !tbaa !61
  %56 = sext i32 %55 to i64
  %57 = call { i64, i1 } @llvm.umul.with.overflow.i64(i64 %56, i64 8)
  %58 = extractvalue { i64, i1 } %57, 1
  %59 = extractvalue { i64, i1 } %57, 0
  %60 = select i1 %58, i64 -1, i64 %59
  %61 = call noalias nonnull i8* @_Znam(i64 %60) #23
  %62 = load double**, double*** %37, align 8, !tbaa !108
  %63 = getelementptr inbounds double*, double** %62, i64 %50
  %64 = bitcast double** %63 to i8**
  store i8* %61, i8** %64, align 8, !tbaa !13
  %65 = call noalias nonnull i8* @_Znam(i64 %60) #23
  %66 = load double**, double*** %40, align 8, !tbaa !110
  %67 = getelementptr inbounds double*, double** %66, i64 %50
  %68 = bitcast double** %67 to i8**
  store i8* %65, i8** %68, align 8, !tbaa !13
  %69 = call noalias nonnull i8* @_Znam(i64 %60) #23
  %70 = load double**, double*** %43, align 8, !tbaa !112
  %71 = getelementptr inbounds double*, double** %70, i64 %50
  %72 = bitcast double** %71 to i8**
  store i8* %69, i8** %72, align 8, !tbaa !13
  %73 = icmp sgt i32 %55, 0
  br i1 %73, label %74, label %104

74:                                               ; preds = %49
  %75 = load double**, double*** %43, align 8
  %76 = getelementptr inbounds double*, double** %75, i64 %50
  %77 = getelementptr inbounds double*, double** %6, i64 %50
  %78 = load double**, double*** %40, align 8
  %79 = getelementptr inbounds double*, double** %78, i64 %50
  %80 = getelementptr inbounds double*, double** %5, i64 %50
  %81 = load double**, double*** %37, align 8
  %82 = getelementptr inbounds double*, double** %81, i64 %50
  %83 = getelementptr inbounds double*, double** %4, i64 %50
  %84 = load double*, double** %83, align 8, !tbaa !13
  %85 = load double*, double** %82, align 8, !tbaa !13
  %86 = load double*, double** %80, align 8, !tbaa !13
  %87 = load double*, double** %79, align 8, !tbaa !13
  %88 = load double*, double** %77, align 8, !tbaa !13
  %89 = load double*, double** %76, align 8, !tbaa !13
  %90 = zext i32 %55 to i64
  br label %91

91:                                               ; preds = %74, %91
  %92 = phi i64 [ 0, %74 ], [ %102, %91 ]
  %93 = getelementptr inbounds double, double* %84, i64 %92
  %94 = load double, double* %93, align 8, !tbaa !40
  %95 = getelementptr inbounds double, double* %85, i64 %92
  store double %94, double* %95, align 8, !tbaa !40
  %96 = getelementptr inbounds double, double* %86, i64 %92
  %97 = load double, double* %96, align 8, !tbaa !40
  %98 = getelementptr inbounds double, double* %87, i64 %92
  store double %97, double* %98, align 8, !tbaa !40
  %99 = getelementptr inbounds double, double* %88, i64 %92
  %100 = load double, double* %99, align 8, !tbaa !40
  %101 = getelementptr inbounds double, double* %89, i64 %92
  store double %100, double* %101, align 8, !tbaa !40
  %102 = add nuw nsw i64 %92, 1
  %103 = icmp eq i64 %102, %90
  br i1 %103, label %104, label %91, !llvm.loop !124

104:                                              ; preds = %91, %49
  %105 = add nuw nsw i64 %50, 1
  %106 = icmp eq i64 %105, %48
  br i1 %106, label %238, label %49, !llvm.loop !125

107:                                              ; preds = %19
  %108 = getelementptr inbounds %class.LLNL_FEI_Fei, %class.LLNL_FEI_Fei* %0, i64 0, i32 31
  %109 = load i32*, i32** %108, align 8, !tbaa !114
  %110 = getelementptr inbounds %class.LLNL_FEI_Fei, %class.LLNL_FEI_Fei* %0, i64 0, i32 32
  %111 = load double**, double*** %110, align 8, !tbaa !108
  %112 = getelementptr inbounds %class.LLNL_FEI_Fei, %class.LLNL_FEI_Fei* %0, i64 0, i32 33
  %113 = load double**, double*** %112, align 8, !tbaa !110
  %114 = getelementptr inbounds %class.LLNL_FEI_Fei, %class.LLNL_FEI_Fei* %0, i64 0, i32 34
  %115 = load double**, double*** %114, align 8, !tbaa !112
  %116 = add nsw i32 %21, %1
  store i32 %116, i32* %20, align 8, !tbaa !66
  %117 = sext i32 %116 to i64
  %118 = call { i64, i1 } @llvm.umul.with.overflow.i64(i64 %117, i64 4)
  %119 = extractvalue { i64, i1 } %118, 1
  %120 = extractvalue { i64, i1 } %118, 0
  %121 = select i1 %119, i64 -1, i64 %120
  %122 = call noalias nonnull i8* @_Znam(i64 %121) #23
  %123 = bitcast i32** %108 to i8**
  store i8* %122, i8** %123, align 8, !tbaa !114
  %124 = call { i64, i1 } @llvm.umul.with.overflow.i64(i64 %117, i64 8)
  %125 = extractvalue { i64, i1 } %124, 1
  %126 = extractvalue { i64, i1 } %124, 0
  %127 = select i1 %125, i64 -1, i64 %126
  %128 = call noalias nonnull i8* @_Znam(i64 %127) #23
  %129 = bitcast double*** %110 to i8**
  store i8* %128, i8** %129, align 8, !tbaa !108
  %130 = call noalias nonnull i8* @_Znam(i64 %127) #23
  %131 = bitcast double*** %112 to i8**
  store i8* %130, i8** %131, align 8, !tbaa !110
  %132 = call noalias nonnull i8* @_Znam(i64 %127) #23
  %133 = bitcast double*** %114 to i8**
  store i8* %132, i8** %133, align 8, !tbaa !112
  %134 = icmp sgt i32 %21, 0
  br i1 %134, label %135, label %157

135:                                              ; preds = %107
  %136 = zext i32 %21 to i64
  br label %137

137:                                              ; preds = %135, %137
  %138 = phi i64 [ 0, %135 ], [ %155, %137 ]
  %139 = getelementptr inbounds i32, i32* %109, i64 %138
  %140 = load i32, i32* %139, align 4, !tbaa !46
  %141 = load i32*, i32** %108, align 8, !tbaa !114
  %142 = getelementptr inbounds i32, i32* %141, i64 %138
  store i32 %140, i32* %142, align 4, !tbaa !46
  %143 = getelementptr inbounds double*, double** %111, i64 %138
  %144 = load double*, double** %143, align 8, !tbaa !13
  %145 = load double**, double*** %110, align 8, !tbaa !108
  %146 = getelementptr inbounds double*, double** %145, i64 %138
  store double* %144, double** %146, align 8, !tbaa !13
  %147 = getelementptr inbounds double*, double** %113, i64 %138
  %148 = load double*, double** %147, align 8, !tbaa !13
  %149 = load double**, double*** %112, align 8, !tbaa !110
  %150 = getelementptr inbounds double*, double** %149, i64 %138
  store double* %148, double** %150, align 8, !tbaa !13
  %151 = getelementptr inbounds double*, double** %115, i64 %138
  %152 = load double*, double** %151, align 8, !tbaa !13
  %153 = load double**, double*** %114, align 8, !tbaa !112
  %154 = getelementptr inbounds double*, double** %153, i64 %138
  store double* %152, double** %154, align 8, !tbaa !13
  %155 = add nuw nsw i64 %138, 1
  %156 = icmp eq i64 %155, %136
  br i1 %156, label %157, label %137, !llvm.loop !126

157:                                              ; preds = %137, %107
  %158 = icmp eq i32* %109, null
  br i1 %158, label %161, label %159

159:                                              ; preds = %157
  %160 = bitcast i32* %109 to i8*
  call void @_ZdaPv(i8* %160) #22
  br label %161

161:                                              ; preds = %159, %157
  %162 = icmp eq double** %111, null
  br i1 %162, label %165, label %163

163:                                              ; preds = %161
  %164 = bitcast double** %111 to i8*
  call void @_ZdaPv(i8* %164) #22
  br label %165

165:                                              ; preds = %163, %161
  %166 = icmp eq double** %113, null
  br i1 %166, label %169, label %167

167:                                              ; preds = %165
  %168 = bitcast double** %113 to i8*
  call void @_ZdaPv(i8* %168) #22
  br label %169

169:                                              ; preds = %167, %165
  %170 = icmp eq double** %115, null
  br i1 %170, label %173, label %171

171:                                              ; preds = %169
  %172 = bitcast double** %115 to i8*
  call void @_ZdaPv(i8* %172) #22
  br label %173

173:                                              ; preds = %171, %169
  %174 = getelementptr inbounds %class.LLNL_FEI_Fei, %class.LLNL_FEI_Fei* %0, i64 0, i32 7
  %175 = icmp sgt i32 %1, 0
  br i1 %175, label %176, label %238

176:                                              ; preds = %173
  %177 = sext i32 %21 to i64
  %178 = zext i32 %1 to i64
  br label %179

179:                                              ; preds = %176, %235
  %180 = phi i64 [ 0, %176 ], [ %236, %235 ]
  %181 = getelementptr inbounds i32, i32* %2, i64 %180
  %182 = load i32, i32* %181, align 4, !tbaa !46
  %183 = load i32*, i32** %108, align 8, !tbaa !114
  %184 = add nsw i64 %180, %177
  %185 = getelementptr inbounds i32, i32* %183, i64 %184
  store i32 %182, i32* %185, align 4, !tbaa !46
  %186 = load i32, i32* %174, align 8, !tbaa !61
  %187 = sext i32 %186 to i64
  %188 = call { i64, i1 } @llvm.umul.with.overflow.i64(i64 %187, i64 8)
  %189 = extractvalue { i64, i1 } %188, 1
  %190 = extractvalue { i64, i1 } %188, 0
  %191 = select i1 %189, i64 -1, i64 %190
  %192 = call noalias nonnull i8* @_Znam(i64 %191) #23
  %193 = load double**, double*** %110, align 8, !tbaa !108
  %194 = getelementptr inbounds double*, double** %193, i64 %184
  %195 = bitcast double** %194 to i8**
  store i8* %192, i8** %195, align 8, !tbaa !13
  %196 = call noalias nonnull i8* @_Znam(i64 %191) #23
  %197 = load double**, double*** %112, align 8, !tbaa !110
  %198 = getelementptr inbounds double*, double** %197, i64 %184
  %199 = bitcast double** %198 to i8**
  store i8* %196, i8** %199, align 8, !tbaa !13
  %200 = call noalias nonnull i8* @_Znam(i64 %191) #23
  %201 = load double**, double*** %114, align 8, !tbaa !112
  %202 = getelementptr inbounds double*, double** %201, i64 %184
  %203 = bitcast double** %202 to i8**
  store i8* %200, i8** %203, align 8, !tbaa !13
  %204 = icmp sgt i32 %186, 0
  br i1 %204, label %205, label %235

205:                                              ; preds = %179
  %206 = load double**, double*** %114, align 8
  %207 = getelementptr inbounds double*, double** %206, i64 %184
  %208 = getelementptr inbounds double*, double** %6, i64 %180
  %209 = load double**, double*** %112, align 8
  %210 = getelementptr inbounds double*, double** %209, i64 %184
  %211 = getelementptr inbounds double*, double** %5, i64 %180
  %212 = load double**, double*** %110, align 8
  %213 = getelementptr inbounds double*, double** %212, i64 %184
  %214 = getelementptr inbounds double*, double** %4, i64 %180
  %215 = load double*, double** %214, align 8, !tbaa !13
  %216 = load double*, double** %213, align 8, !tbaa !13
  %217 = load double*, double** %211, align 8, !tbaa !13
  %218 = load double*, double** %210, align 8, !tbaa !13
  %219 = load double*, double** %208, align 8, !tbaa !13
  %220 = load double*, double** %207, align 8, !tbaa !13
  %221 = zext i32 %186 to i64
  br label %222

222:                                              ; preds = %205, %222
  %223 = phi i64 [ 0, %205 ], [ %233, %222 ]
  %224 = getelementptr inbounds double, double* %215, i64 %223
  %225 = load double, double* %224, align 8, !tbaa !40
  %226 = getelementptr inbounds double, double* %216, i64 %223
  store double %225, double* %226, align 8, !tbaa !40
  %227 = getelementptr inbounds double, double* %217, i64 %223
  %228 = load double, double* %227, align 8, !tbaa !40
  %229 = getelementptr inbounds double, double* %218, i64 %223
  store double %228, double* %229, align 8, !tbaa !40
  %230 = getelementptr inbounds double, double* %219, i64 %223
  %231 = load double, double* %230, align 8, !tbaa !40
  %232 = getelementptr inbounds double, double* %220, i64 %223
  store double %231, double* %232, align 8, !tbaa !40
  %233 = add nuw nsw i64 %223, 1
  %234 = icmp eq i64 %233, %221
  br i1 %234, label %235, label %222, !llvm.loop !127

235:                                              ; preds = %222, %179
  %236 = add nuw nsw i64 %180, 1
  %237 = icmp eq i64 %236, %178
  br i1 %237, label %238, label %179, !llvm.loop !128

238:                                              ; preds = %235, %104, %173, %23, %15
  %239 = call double @MPI_Wtime()
  %240 = load double, double* %17, align 8, !tbaa !81
  %241 = fsub double %239, %240
  %242 = getelementptr inbounds %class.LLNL_FEI_Fei, %class.LLNL_FEI_Fei* %0, i64 0, i32 39
  %243 = load double, double* %242, align 8, !tbaa !94
  %244 = fadd double %243, %241
  store double %244, double* %242, align 8, !tbaa !94
  %245 = load i32, i32* %8, align 8, !tbaa !67
  %246 = icmp sgt i32 %245, 2
  br i1 %246, label %247, label %251

247:                                              ; preds = %238
  %248 = getelementptr inbounds %class.LLNL_FEI_Fei, %class.LLNL_FEI_Fei* %0, i64 0, i32 1
  %249 = load i32, i32* %248, align 4, !tbaa !68
  %250 = call i32 (i8*, ...) @printf(i8* nonnull dereferenceable(1) getelementptr inbounds ([39 x i8], [39 x i8]* @.str.32, i64 0, i64 0), i32 %249)
  br label %251

251:                                              ; preds = %247, %238
  ret i32 0
}

; Function Attrs: mustprogress uwtable
define dso_local i32 @_ZN12LLNL_FEI_Fei9sumInElemEiiPiPPdS1_i(%class.LLNL_FEI_Fei* nocapture nonnull align 8 dereferenceable(312) %0, i32 %1, i32 %2, i32* nocapture readonly %3, double** nocapture readonly %4, double* nocapture readonly %5, i32 %6) local_unnamed_addr #4 align 2 {
  %8 = getelementptr inbounds %class.LLNL_FEI_Fei, %class.LLNL_FEI_Fei* %0, i64 0, i32 3
  %9 = load i32, i32* %8, align 4, !tbaa !70
  %10 = icmp sgt i32 %9, 1
  br i1 %10, label %11, label %27

11:                                               ; preds = %7
  %12 = getelementptr inbounds %class.LLNL_FEI_Fei, %class.LLNL_FEI_Fei* %0, i64 0, i32 4
  %13 = load %class.LLNL_FEI_Elem_Block**, %class.LLNL_FEI_Elem_Block*** %12, align 8
  %14 = zext i32 %9 to i64
  br label %15

15:                                               ; preds = %11, %22
  %16 = phi i64 [ 0, %11 ], [ %23, %22 ]
  %17 = getelementptr inbounds %class.LLNL_FEI_Elem_Block*, %class.LLNL_FEI_Elem_Block** %13, i64 %16
  %18 = load %class.LLNL_FEI_Elem_Block*, %class.LLNL_FEI_Elem_Block** %17, align 8, !tbaa !13
  %19 = getelementptr inbounds %class.LLNL_FEI_Elem_Block, %class.LLNL_FEI_Elem_Block* %18, i64 0, i32 0
  %20 = load i32, i32* %19, align 8, !tbaa !3
  %21 = icmp eq i32 %20, %1
  br i1 %21, label %25, label %22

22:                                               ; preds = %15
  %23 = add nuw nsw i64 %16, 1
  %24 = icmp eq i64 %23, %14
  br i1 %24, label %27, label %15, !llvm.loop !129

25:                                               ; preds = %15
  %26 = trunc i64 %16 to i32
  br label %27

27:                                               ; preds = %25, %22, %7
  %28 = phi i32 [ 0, %7 ], [ %26, %25 ], [ %9, %22 ]
  %29 = getelementptr inbounds %class.LLNL_FEI_Fei, %class.LLNL_FEI_Fei* %0, i64 0, i32 4
  %30 = load %class.LLNL_FEI_Elem_Block**, %class.LLNL_FEI_Elem_Block*** %29, align 8, !tbaa !71
  %31 = zext i32 %28 to i64
  %32 = getelementptr inbounds %class.LLNL_FEI_Elem_Block*, %class.LLNL_FEI_Elem_Block** %30, i64 %31
  %33 = load %class.LLNL_FEI_Elem_Block*, %class.LLNL_FEI_Elem_Block** %32, align 8, !tbaa !13
  %34 = getelementptr inbounds %class.LLNL_FEI_Elem_Block, %class.LLNL_FEI_Elem_Block* %33, i64 0, i32 11
  %35 = load i32, i32* %34, align 4, !tbaa !32
  %36 = icmp eq i32 %35, 0
  br i1 %36, label %37, label %40

37:                                               ; preds = %27
  %38 = call double @MPI_Wtime()
  %39 = getelementptr inbounds %class.LLNL_FEI_Fei, %class.LLNL_FEI_Fei* %0, i64 0, i32 40
  store double %38, double* %39, align 8, !tbaa !81
  br label %40

40:                                               ; preds = %37, %27
  %41 = load %class.LLNL_FEI_Elem_Block**, %class.LLNL_FEI_Elem_Block*** %29, align 8, !tbaa !71
  %42 = getelementptr inbounds %class.LLNL_FEI_Elem_Block*, %class.LLNL_FEI_Elem_Block** %41, i64 %31
  %43 = load %class.LLNL_FEI_Elem_Block*, %class.LLNL_FEI_Elem_Block** %42, align 8, !tbaa !13
  %44 = call i32 @_ZN19LLNL_FEI_Elem_Block12loadElemInfoEiPiPPdS1_(%class.LLNL_FEI_Elem_Block* nonnull align 8 dereferenceable(96) %43, i32 %2, i32* %3, double** %4, double* %5)
  %45 = load %class.LLNL_FEI_Elem_Block**, %class.LLNL_FEI_Elem_Block*** %29, align 8, !tbaa !71
  %46 = getelementptr inbounds %class.LLNL_FEI_Elem_Block*, %class.LLNL_FEI_Elem_Block** %45, i64 %31
  %47 = load %class.LLNL_FEI_Elem_Block*, %class.LLNL_FEI_Elem_Block** %46, align 8, !tbaa !13
  %48 = getelementptr inbounds %class.LLNL_FEI_Elem_Block, %class.LLNL_FEI_Elem_Block* %47, i64 0, i32 11
  %49 = load i32, i32* %48, align 4, !tbaa !32
  %50 = getelementptr inbounds %class.LLNL_FEI_Elem_Block, %class.LLNL_FEI_Elem_Block* %47, i64 0, i32 1
  %51 = load i32, i32* %50, align 4, !tbaa !9
  %52 = icmp eq i32 %49, %51
  br i1 %52, label %53, label %61

53:                                               ; preds = %40
  %54 = call double @MPI_Wtime()
  %55 = getelementptr inbounds %class.LLNL_FEI_Fei, %class.LLNL_FEI_Fei* %0, i64 0, i32 40
  %56 = load double, double* %55, align 8, !tbaa !81
  %57 = fsub double %54, %56
  %58 = getelementptr inbounds %class.LLNL_FEI_Fei, %class.LLNL_FEI_Fei* %0, i64 0, i32 39
  %59 = load double, double* %58, align 8, !tbaa !94
  %60 = fadd double %59, %57
  store double %60, double* %58, align 8, !tbaa !94
  br label %61

61:                                               ; preds = %53, %40
  ret i32 0
}

; Function Attrs: mustprogress uwtable
define dso_local i32 @_ZN12LLNL_FEI_Fei15sumInElemMatrixEiiPiPPdi(%class.LLNL_FEI_Fei* nocapture nonnull align 8 dereferenceable(312) %0, i32 %1, i32 %2, i32* nocapture readonly %3, double** nocapture readonly %4, i32 %5) local_unnamed_addr #4 align 2 {
  %7 = getelementptr inbounds %class.LLNL_FEI_Fei, %class.LLNL_FEI_Fei* %0, i64 0, i32 3
  %8 = load i32, i32* %7, align 4, !tbaa !70
  %9 = icmp sgt i32 %8, 1
  br i1 %9, label %10, label %26

10:                                               ; preds = %6
  %11 = getelementptr inbounds %class.LLNL_FEI_Fei, %class.LLNL_FEI_Fei* %0, i64 0, i32 4
  %12 = load %class.LLNL_FEI_Elem_Block**, %class.LLNL_FEI_Elem_Block*** %11, align 8
  %13 = zext i32 %8 to i64
  br label %14

14:                                               ; preds = %10, %21
  %15 = phi i64 [ 0, %10 ], [ %22, %21 ]
  %16 = getelementptr inbounds %class.LLNL_FEI_Elem_Block*, %class.LLNL_FEI_Elem_Block** %12, i64 %15
  %17 = load %class.LLNL_FEI_Elem_Block*, %class.LLNL_FEI_Elem_Block** %16, align 8, !tbaa !13
  %18 = getelementptr inbounds %class.LLNL_FEI_Elem_Block, %class.LLNL_FEI_Elem_Block* %17, i64 0, i32 0
  %19 = load i32, i32* %18, align 8, !tbaa !3
  %20 = icmp eq i32 %19, %1
  br i1 %20, label %24, label %21

21:                                               ; preds = %14
  %22 = add nuw nsw i64 %15, 1
  %23 = icmp eq i64 %22, %13
  br i1 %23, label %26, label %14, !llvm.loop !130

24:                                               ; preds = %14
  %25 = trunc i64 %15 to i32
  br label %26

26:                                               ; preds = %24, %21, %6
  %27 = phi i32 [ 0, %6 ], [ %25, %24 ], [ %8, %21 ]
  %28 = getelementptr inbounds %class.LLNL_FEI_Fei, %class.LLNL_FEI_Fei* %0, i64 0, i32 4
  %29 = load %class.LLNL_FEI_Elem_Block**, %class.LLNL_FEI_Elem_Block*** %28, align 8, !tbaa !71
  %30 = zext i32 %27 to i64
  %31 = getelementptr inbounds %class.LLNL_FEI_Elem_Block*, %class.LLNL_FEI_Elem_Block** %29, i64 %30
  %32 = load %class.LLNL_FEI_Elem_Block*, %class.LLNL_FEI_Elem_Block** %31, align 8, !tbaa !13
  %33 = getelementptr inbounds %class.LLNL_FEI_Elem_Block, %class.LLNL_FEI_Elem_Block* %32, i64 0, i32 11
  %34 = load i32, i32* %33, align 4, !tbaa !32
  %35 = icmp eq i32 %34, 0
  br i1 %35, label %36, label %39

36:                                               ; preds = %26
  %37 = call double @MPI_Wtime()
  %38 = getelementptr inbounds %class.LLNL_FEI_Fei, %class.LLNL_FEI_Fei* %0, i64 0, i32 40
  store double %37, double* %38, align 8, !tbaa !81
  br label %39

39:                                               ; preds = %36, %26
  %40 = load %class.LLNL_FEI_Elem_Block**, %class.LLNL_FEI_Elem_Block*** %28, align 8, !tbaa !71
  %41 = getelementptr inbounds %class.LLNL_FEI_Elem_Block*, %class.LLNL_FEI_Elem_Block** %40, i64 %30
  %42 = load %class.LLNL_FEI_Elem_Block*, %class.LLNL_FEI_Elem_Block** %41, align 8, !tbaa !13
  %43 = call i32 @_ZN19LLNL_FEI_Elem_Block14loadElemMatrixEiPiPPd(%class.LLNL_FEI_Elem_Block* nonnull align 8 dereferenceable(96) %42, i32 %2, i32* %3, double** %4)
  %44 = load %class.LLNL_FEI_Elem_Block**, %class.LLNL_FEI_Elem_Block*** %28, align 8, !tbaa !71
  %45 = getelementptr inbounds %class.LLNL_FEI_Elem_Block*, %class.LLNL_FEI_Elem_Block** %44, i64 %30
  %46 = load %class.LLNL_FEI_Elem_Block*, %class.LLNL_FEI_Elem_Block** %45, align 8, !tbaa !13
  %47 = getelementptr inbounds %class.LLNL_FEI_Elem_Block, %class.LLNL_FEI_Elem_Block* %46, i64 0, i32 11
  %48 = load i32, i32* %47, align 4, !tbaa !32
  %49 = getelementptr inbounds %class.LLNL_FEI_Elem_Block, %class.LLNL_FEI_Elem_Block* %46, i64 0, i32 1
  %50 = load i32, i32* %49, align 4, !tbaa !9
  %51 = icmp eq i32 %48, %50
  br i1 %51, label %52, label %60

52:                                               ; preds = %39
  %53 = call double @MPI_Wtime()
  %54 = getelementptr inbounds %class.LLNL_FEI_Fei, %class.LLNL_FEI_Fei* %0, i64 0, i32 40
  %55 = load double, double* %54, align 8, !tbaa !81
  %56 = fsub double %53, %55
  %57 = getelementptr inbounds %class.LLNL_FEI_Fei, %class.LLNL_FEI_Fei* %0, i64 0, i32 39
  %58 = load double, double* %57, align 8, !tbaa !94
  %59 = fadd double %58, %56
  store double %59, double* %57, align 8, !tbaa !94
  br label %60

60:                                               ; preds = %52, %39
  ret i32 0
}

; Function Attrs: mustprogress uwtable
define dso_local i32 @_ZN12LLNL_FEI_Fei12sumInElemRHSEiiPiPd(%class.LLNL_FEI_Fei* nocapture nonnull readonly align 8 dereferenceable(312) %0, i32 %1, i32 %2, i32* nocapture readnone %3, double* nocapture readonly %4) local_unnamed_addr #4 align 2 {
  %6 = getelementptr inbounds %class.LLNL_FEI_Fei, %class.LLNL_FEI_Fei* %0, i64 0, i32 3
  %7 = load i32, i32* %6, align 4, !tbaa !70
  %8 = icmp sgt i32 %7, 1
  br i1 %8, label %9, label %25

9:                                                ; preds = %5
  %10 = getelementptr inbounds %class.LLNL_FEI_Fei, %class.LLNL_FEI_Fei* %0, i64 0, i32 4
  %11 = load %class.LLNL_FEI_Elem_Block**, %class.LLNL_FEI_Elem_Block*** %10, align 8
  %12 = zext i32 %7 to i64
  br label %13

13:                                               ; preds = %9, %20
  %14 = phi i64 [ 0, %9 ], [ %21, %20 ]
  %15 = getelementptr inbounds %class.LLNL_FEI_Elem_Block*, %class.LLNL_FEI_Elem_Block** %11, i64 %14
  %16 = load %class.LLNL_FEI_Elem_Block*, %class.LLNL_FEI_Elem_Block** %15, align 8, !tbaa !13
  %17 = getelementptr inbounds %class.LLNL_FEI_Elem_Block, %class.LLNL_FEI_Elem_Block* %16, i64 0, i32 0
  %18 = load i32, i32* %17, align 8, !tbaa !3
  %19 = icmp eq i32 %18, %1
  br i1 %19, label %23, label %20

20:                                               ; preds = %13
  %21 = add nuw nsw i64 %14, 1
  %22 = icmp eq i64 %21, %12
  br i1 %22, label %25, label %13, !llvm.loop !131

23:                                               ; preds = %13
  %24 = trunc i64 %14 to i32
  br label %25

25:                                               ; preds = %23, %20, %5
  %26 = phi i32 [ 0, %5 ], [ %24, %23 ], [ %7, %20 ]
  %27 = getelementptr inbounds %class.LLNL_FEI_Fei, %class.LLNL_FEI_Fei* %0, i64 0, i32 4
  %28 = load %class.LLNL_FEI_Elem_Block**, %class.LLNL_FEI_Elem_Block*** %27, align 8, !tbaa !71
  %29 = zext i32 %26 to i64
  %30 = getelementptr inbounds %class.LLNL_FEI_Elem_Block*, %class.LLNL_FEI_Elem_Block** %28, i64 %29
  %31 = load %class.LLNL_FEI_Elem_Block*, %class.LLNL_FEI_Elem_Block** %30, align 8, !tbaa !13
  %32 = call i32 @_ZN19LLNL_FEI_Elem_Block11loadElemRHSEiPd(%class.LLNL_FEI_Elem_Block* nonnull align 8 dereferenceable(96) %31, i32 %2, double* %4)
  ret i32 0
}

; Function Attrs: mustprogress uwtable
define dso_local i32 @_ZN12LLNL_FEI_Fei12loadCompleteEv(%class.LLNL_FEI_Fei* nonnull align 8 dereferenceable(312) %0) local_unnamed_addr #4 align 2 {
  %2 = alloca i32, align 4
  %3 = alloca i32, align 4
  %4 = alloca i32*, align 8
  %5 = alloca i32*, align 8
  %6 = alloca i32, align 4
  %7 = alloca i32*, align 8
  %8 = bitcast i32* %2 to i8*
  call void @llvm.lifetime.start.p0i8(i64 4, i8* nonnull %8) #25
  %9 = bitcast i32* %3 to i8*
  call void @llvm.lifetime.start.p0i8(i64 4, i8* nonnull %9) #25
  %10 = bitcast i32** %4 to i8*
  call void @llvm.lifetime.start.p0i8(i64 8, i8* nonnull %10) #25
  %11 = bitcast i32** %5 to i8*
  call void @llvm.lifetime.start.p0i8(i64 8, i8* nonnull %11) #25
  %12 = bitcast i32* %6 to i8*
  call void @llvm.lifetime.start.p0i8(i64 4, i8* nonnull %12) #25
  %13 = bitcast i32** %7 to i8*
  call void @llvm.lifetime.start.p0i8(i64 8, i8* nonnull %13) #25
  %14 = getelementptr inbounds %class.LLNL_FEI_Fei, %class.LLNL_FEI_Fei* %0, i64 0, i32 2
  %15 = load i32, i32* %14, align 8, !tbaa !67
  %16 = icmp sgt i32 %15, 2
  br i1 %16, label %17, label %21

17:                                               ; preds = %1
  %18 = getelementptr inbounds %class.LLNL_FEI_Fei, %class.LLNL_FEI_Fei* %0, i64 0, i32 1
  %19 = load i32, i32* %18, align 4, !tbaa !68
  %20 = call i32 (i8*, ...) @printf(i8* nonnull dereferenceable(1) getelementptr inbounds ([46 x i8], [46 x i8]* @.str.33, i64 0, i64 0), i32 %19)
  br label %21

21:                                               ; preds = %17, %1
  %22 = call double @MPI_Wtime()
  %23 = getelementptr inbounds %class.LLNL_FEI_Fei, %class.LLNL_FEI_Fei* %0, i64 0, i32 40
  store double %22, double* %23, align 8, !tbaa !81
  %24 = getelementptr inbounds %class.LLNL_FEI_Fei, %class.LLNL_FEI_Fei* %0, i64 0, i32 0
  %25 = load i32, i32* %24, align 8, !tbaa !59
  %26 = call i32 @MPI_Comm_size(i32 %25, i32* nonnull %2)
  %27 = getelementptr inbounds %class.LLNL_FEI_Fei, %class.LLNL_FEI_Fei* %0, i64 0, i32 3
  %28 = getelementptr inbounds %class.LLNL_FEI_Fei, %class.LLNL_FEI_Fei* %0, i64 0, i32 4
  %29 = load i32, i32* %27, align 4, !tbaa !70
  %30 = icmp sgt i32 %29, 0
  br i1 %30, label %31, label %73

31:                                               ; preds = %21, %68
  %32 = phi i64 [ %69, %68 ], [ 0, %21 ]
  %33 = load %class.LLNL_FEI_Elem_Block**, %class.LLNL_FEI_Elem_Block*** %28, align 8, !tbaa !71
  %34 = getelementptr inbounds %class.LLNL_FEI_Elem_Block*, %class.LLNL_FEI_Elem_Block** %33, i64 %32
  %35 = load %class.LLNL_FEI_Elem_Block*, %class.LLNL_FEI_Elem_Block** %34, align 8, !tbaa !13
  %36 = getelementptr inbounds %class.LLNL_FEI_Elem_Block, %class.LLNL_FEI_Elem_Block* %35, i64 0, i32 11
  %37 = load i32, i32* %36, align 4, !tbaa !32
  %38 = getelementptr inbounds %class.LLNL_FEI_Elem_Block, %class.LLNL_FEI_Elem_Block* %35, i64 0, i32 1
  %39 = load i32, i32* %38, align 4, !tbaa !9
  %40 = icmp eq i32 %37, %39
  br i1 %40, label %41, label %68

41:                                               ; preds = %31
  %42 = getelementptr inbounds %class.LLNL_FEI_Elem_Block, %class.LLNL_FEI_Elem_Block* %35, i64 0, i32 12
  %43 = load double*, double** %42, align 8, !tbaa !25
  %44 = icmp eq double* %43, null
  br i1 %44, label %47, label %45

45:                                               ; preds = %41
  %46 = bitcast double* %43 to i8*
  call void @_ZdaPv(i8* %46) #22
  br label %47

47:                                               ; preds = %45, %41
  %48 = getelementptr inbounds %class.LLNL_FEI_Elem_Block, %class.LLNL_FEI_Elem_Block* %35, i64 0, i32 13
  %49 = load double*, double** %48, align 8, !tbaa !26
  %50 = icmp eq double* %49, null
  br i1 %50, label %53, label %51

51:                                               ; preds = %47
  %52 = bitcast double* %49 to i8*
  call void @_ZdaPv(i8* %52) #22
  br label %53

53:                                               ; preds = %51, %47
  %54 = getelementptr inbounds %class.LLNL_FEI_Elem_Block, %class.LLNL_FEI_Elem_Block* %35, i64 0, i32 10
  %55 = load i32, i32* %54, align 8, !tbaa !31
  %56 = getelementptr inbounds %class.LLNL_FEI_Elem_Block, %class.LLNL_FEI_Elem_Block* %35, i64 0, i32 2
  %57 = load i32, i32* %56, align 8, !tbaa !10
  %58 = mul nsw i32 %57, %55
  %59 = sext i32 %58 to i64
  %60 = call { i64, i1 } @llvm.umul.with.overflow.i64(i64 %59, i64 8)
  %61 = extractvalue { i64, i1 } %60, 1
  %62 = extractvalue { i64, i1 } %60, 0
  %63 = select i1 %61, i64 -1, i64 %62
  %64 = call noalias nonnull i8* @_Znam(i64 %63) #23
  %65 = bitcast double** %42 to i8**
  store i8* %64, i8** %65, align 8, !tbaa !25
  %66 = call noalias nonnull i8* @_Znam(i64 %63) #23
  %67 = bitcast double** %48 to i8**
  store i8* %66, i8** %67, align 8, !tbaa !26
  br label %68

68:                                               ; preds = %31, %53
  %69 = add nuw nsw i64 %32, 1
  %70 = load i32, i32* %27, align 4, !tbaa !70
  %71 = sext i32 %70 to i64
  %72 = icmp slt i64 %69, %71
  br i1 %72, label %31, label %73, !llvm.loop !132

73:                                               ; preds = %68, %21
  %74 = getelementptr inbounds %class.LLNL_FEI_Fei, %class.LLNL_FEI_Fei* %0, i64 0, i32 3
  call void @_ZN12LLNL_FEI_Fei15sortSharedNodesEv(%class.LLNL_FEI_Fei* nonnull align 8 dereferenceable(312) %0)
  call void @_ZN12LLNL_FEI_Fei24composeOrderedNodeIDListEPPiS1_S0_S0_(%class.LLNL_FEI_Fei* nonnull align 8 dereferenceable(312) %0, i32** nonnull %4, i32** nonnull %5, i32* nonnull %3, i32* nonnull %6)
  %75 = load i32*, i32** %4, align 8, !tbaa !13
  %76 = load i32*, i32** %5, align 8, !tbaa !13
  %77 = load i32, i32* %3, align 4, !tbaa !46
  %78 = load i32, i32* %6, align 4, !tbaa !46
  call void @_ZN12LLNL_FEI_Fei19findSharedNodeProcsEPiS0_iiPS0_(%class.LLNL_FEI_Fei* nonnull align 8 dereferenceable(312) %0, i32* %75, i32* %76, i32 %77, i32 %78, i32** nonnull %7)
  %79 = getelementptr inbounds %class.LLNL_FEI_Fei, %class.LLNL_FEI_Fei* %0, i64 0, i32 5
  store i32 0, i32* %79, align 8, !tbaa !96
  %80 = icmp sgt i32 %77, 1
  br i1 %80, label %81, label %104

81:                                               ; preds = %73
  %82 = zext i32 %77 to i64
  br label %83

83:                                               ; preds = %81, %100
  %84 = phi i64 [ 1, %81 ], [ %102, %100 ]
  %85 = phi i32 [ 0, %81 ], [ %101, %100 ]
  %86 = getelementptr inbounds i32, i32* %75, i64 %84
  %87 = load i32, i32* %86, align 4, !tbaa !46
  %88 = add nsw i64 %84, -1
  %89 = getelementptr inbounds i32, i32* %75, i64 %88
  %90 = load i32, i32* %89, align 4, !tbaa !46
  %91 = icmp eq i32 %87, %90
  br i1 %91, label %100, label %92

92:                                               ; preds = %83
  %93 = add nsw i32 %85, 1
  %94 = getelementptr inbounds i32, i32* %76, i64 %84
  %95 = load i32, i32* %94, align 4, !tbaa !46
  %96 = icmp sgt i32 %95, -1
  br i1 %96, label %97, label %100

97:                                               ; preds = %92
  %98 = load i32, i32* %79, align 8, !tbaa !96
  %99 = add nsw i32 %98, 1
  store i32 %99, i32* %79, align 8, !tbaa !96
  br label %100

100:                                              ; preds = %83, %97, %92
  %101 = phi i32 [ %93, %97 ], [ %93, %92 ], [ %85, %83 ]
  %102 = add nuw nsw i64 %84, 1
  %103 = icmp eq i64 %102, %82
  br i1 %103, label %104, label %83, !llvm.loop !133

104:                                              ; preds = %100, %73
  %105 = phi i32 [ 0, %73 ], [ %101, %100 ]
  %106 = icmp sgt i32 %77, 0
  %107 = zext i1 %106 to i32
  %108 = add nsw i32 %105, %107
  br i1 %106, label %109, label %115

109:                                              ; preds = %104
  %110 = load i32, i32* %76, align 4, !tbaa !46
  %111 = icmp sgt i32 %110, -1
  br i1 %111, label %112, label %115

112:                                              ; preds = %109
  %113 = load i32, i32* %79, align 8, !tbaa !96
  %114 = add nsw i32 %113, 1
  store i32 %114, i32* %79, align 8, !tbaa !96
  br label %115

115:                                              ; preds = %112, %109, %104
  %116 = load i32, i32* %14, align 8, !tbaa !67
  %117 = icmp sgt i32 %116, 2
  br i1 %117, label %118, label %131

118:                                              ; preds = %115
  %119 = getelementptr inbounds %class.LLNL_FEI_Fei, %class.LLNL_FEI_Fei* %0, i64 0, i32 1
  %120 = load i32, i32* %119, align 4, !tbaa !68
  %121 = load i32, i32* %79, align 8, !tbaa !96
  %122 = call i32 (i8*, ...) @printf(i8* nonnull dereferenceable(1) getelementptr inbounds ([53 x i8], [53 x i8]* @.str.34, i64 0, i64 0), i32 %120, i32 %121)
  %123 = load i32, i32* %119, align 4, !tbaa !68
  %124 = load i32, i32* %79, align 8, !tbaa !96
  %125 = sub nsw i32 %108, %124
  %126 = call i32 (i8*, ...) @printf(i8* nonnull dereferenceable(1) getelementptr inbounds ([53 x i8], [53 x i8]* @.str.35, i64 0, i64 0), i32 %123, i32 %125)
  %127 = load i32, i32* %119, align 4, !tbaa !68
  %128 = getelementptr inbounds %class.LLNL_FEI_Fei, %class.LLNL_FEI_Fei* %0, i64 0, i32 12
  %129 = load i32, i32* %128, align 8, !tbaa !116
  %130 = call i32 (i8*, ...) @printf(i8* nonnull dereferenceable(1) getelementptr inbounds ([53 x i8], [53 x i8]* @.str.36, i64 0, i64 0), i32 %127, i32 %129)
  br label %131

131:                                              ; preds = %118, %115
  %132 = load i32, i32* %79, align 8, !tbaa !96
  %133 = sub nsw i32 %108, %132
  %134 = getelementptr inbounds %class.LLNL_FEI_Fei, %class.LLNL_FEI_Fei* %0, i64 0, i32 6
  store i32 %133, i32* %134, align 4, !tbaa !97
  %135 = sext i32 %108 to i64
  %136 = call { i64, i1 } @llvm.umul.with.overflow.i64(i64 %135, i64 4)
  %137 = extractvalue { i64, i1 } %136, 1
  %138 = extractvalue { i64, i1 } %136, 0
  %139 = select i1 %137, i64 -1, i64 %138
  %140 = call noalias nonnull i8* @_Znam(i64 %139) #23
  %141 = getelementptr inbounds %class.LLNL_FEI_Fei, %class.LLNL_FEI_Fei* %0, i64 0, i32 8
  %142 = bitcast i32** %141 to i8**
  store i8* %140, i8** %142, align 8, !tbaa !98
  %143 = bitcast i8* %140 to i32*
  %144 = icmp sgt i32 %77, 0
  br i1 %144, label %145, label %147

145:                                              ; preds = %131
  %146 = zext i32 %77 to i64
  br label %153

147:                                              ; preds = %172, %131
  %148 = phi i32 [ 0, %131 ], [ %174, %172 ]
  %149 = load i32*, i32** %141, align 8
  %150 = icmp sgt i32 %77, 0
  br i1 %150, label %151, label %201

151:                                              ; preds = %147
  %152 = zext i32 %77 to i64
  br label %177

153:                                              ; preds = %145, %172
  %154 = phi i64 [ 0, %145 ], [ %175, %172 ]
  %155 = phi i32 [ 0, %145 ], [ %174, %172 ]
  %156 = phi i32 [ -1, %145 ], [ %173, %172 ]
  %157 = getelementptr inbounds i32, i32* %76, i64 %154
  %158 = load i32, i32* %157, align 4, !tbaa !46
  %159 = icmp sgt i32 %158, -1
  br i1 %159, label %160, label %172

160:                                              ; preds = %153
  %161 = getelementptr inbounds i32, i32* %75, i64 %154
  %162 = load i32, i32* %161, align 4, !tbaa !46
  %163 = icmp eq i32 %162, %156
  br i1 %163, label %168, label %164

164:                                              ; preds = %160
  %165 = add nsw i32 %155, 1
  %166 = sext i32 %155 to i64
  %167 = getelementptr inbounds i32, i32* %143, i64 %166
  store i32 %162, i32* %167, align 4, !tbaa !46
  store i32 %155, i32* %161, align 4, !tbaa !46
  br label %172

168:                                              ; preds = %160
  br i1 %159, label %169, label %172

169:                                              ; preds = %168
  %170 = add nsw i32 %155, -1
  %171 = getelementptr inbounds i32, i32* %75, i64 %154
  store i32 %170, i32* %171, align 4, !tbaa !46
  br label %172

172:                                              ; preds = %153, %164, %169, %168
  %173 = phi i32 [ %162, %164 ], [ %156, %169 ], [ %156, %168 ], [ %156, %153 ]
  %174 = phi i32 [ %165, %164 ], [ %155, %169 ], [ %155, %168 ], [ %155, %153 ]
  %175 = add nuw nsw i64 %154, 1
  %176 = icmp eq i64 %175, %146
  br i1 %176, label %147, label %153, !llvm.loop !134

177:                                              ; preds = %151, %196
  %178 = phi i64 [ 0, %151 ], [ %199, %196 ]
  %179 = phi i32 [ %148, %151 ], [ %198, %196 ]
  %180 = phi i32 [ -1, %151 ], [ %197, %196 ]
  %181 = getelementptr inbounds i32, i32* %76, i64 %178
  %182 = load i32, i32* %181, align 4, !tbaa !46
  %183 = icmp slt i32 %182, 0
  br i1 %183, label %184, label %196

184:                                              ; preds = %177
  %185 = getelementptr inbounds i32, i32* %75, i64 %178
  %186 = load i32, i32* %185, align 4, !tbaa !46
  %187 = icmp eq i32 %186, %180
  br i1 %187, label %192, label %188

188:                                              ; preds = %184
  %189 = add nsw i32 %179, 1
  %190 = sext i32 %179 to i64
  %191 = getelementptr inbounds i32, i32* %149, i64 %190
  store i32 %186, i32* %191, align 4, !tbaa !46
  store i32 %179, i32* %185, align 4, !tbaa !46
  br label %196

192:                                              ; preds = %184
  br i1 %183, label %193, label %196

193:                                              ; preds = %192
  %194 = add nsw i32 %179, -1
  %195 = getelementptr inbounds i32, i32* %75, i64 %178
  store i32 %194, i32* %195, align 4, !tbaa !46
  br label %196

196:                                              ; preds = %177, %188, %193, %192
  %197 = phi i32 [ %186, %188 ], [ %180, %193 ], [ %180, %192 ], [ %180, %177 ]
  %198 = phi i32 [ %189, %188 ], [ %179, %193 ], [ %179, %192 ], [ %179, %177 ]
  %199 = add nuw nsw i64 %178, 1
  %200 = icmp eq i64 %199, %152
  br i1 %200, label %201, label %177, !llvm.loop !135

201:                                              ; preds = %196, %147
  br i1 %106, label %202, label %210

202:                                              ; preds = %201
  %203 = sext i32 %77 to i64
  %204 = call { i64, i1 } @llvm.umul.with.overflow.i64(i64 %203, i64 4)
  %205 = extractvalue { i64, i1 } %204, 1
  %206 = extractvalue { i64, i1 } %204, 0
  %207 = select i1 %205, i64 -1, i64 %206
  %208 = call noalias nonnull i8* @_Znam(i64 %207) #23
  %209 = bitcast i8* %208 to i32*
  br label %210

210:                                              ; preds = %202, %201
  %211 = phi i32* [ %209, %202 ], [ undef, %201 ]
  %212 = icmp sgt i32 %77, 0
  br i1 %212, label %213, label %215

213:                                              ; preds = %210
  %214 = zext i32 %77 to i64
  br label %219

215:                                              ; preds = %226, %210
  %216 = icmp sgt i32 %77, 0
  br i1 %216, label %217, label %247

217:                                              ; preds = %215
  %218 = zext i32 %77 to i64
  br label %229

219:                                              ; preds = %213, %226
  %220 = phi i64 [ 0, %213 ], [ %227, %226 ]
  %221 = getelementptr inbounds i32, i32* %76, i64 %220
  %222 = load i32, i32* %221, align 4, !tbaa !46
  %223 = icmp slt i32 %222, 0
  br i1 %223, label %224, label %226

224:                                              ; preds = %219
  %225 = xor i32 %222, -1
  store i32 %225, i32* %221, align 4, !tbaa !46
  br label %226

226:                                              ; preds = %219, %224
  %227 = add nuw nsw i64 %220, 1
  %228 = icmp eq i64 %227, %214
  br i1 %228, label %215, label %219, !llvm.loop !136

229:                                              ; preds = %217, %236
  %230 = phi i64 [ 0, %217 ], [ %241, %236 ]
  %231 = getelementptr inbounds i32, i32* %76, i64 %230
  %232 = load i32, i32* %231, align 4, !tbaa !46
  %233 = icmp sgt i32 %232, -1
  %234 = icmp slt i32 %232, %77
  %235 = select i1 %233, i1 %234, i1 false
  br i1 %235, label %236, label %243

236:                                              ; preds = %229
  %237 = getelementptr inbounds i32, i32* %75, i64 %230
  %238 = load i32, i32* %237, align 4, !tbaa !46
  %239 = sext i32 %232 to i64
  %240 = getelementptr inbounds i32, i32* %211, i64 %239
  store i32 %238, i32* %240, align 4, !tbaa !46
  %241 = add nuw nsw i64 %230, 1
  %242 = icmp eq i64 %241, %218
  br i1 %242, label %247, label %229, !llvm.loop !137

243:                                              ; preds = %229
  %244 = getelementptr inbounds %class.LLNL_FEI_Fei, %class.LLNL_FEI_Fei* %0, i64 0, i32 1
  %245 = load i32, i32* %244, align 4, !tbaa !68
  %246 = call i32 (i8*, ...) @printf(i8* nonnull dereferenceable(1) getelementptr inbounds ([43 x i8], [43 x i8]* @.str.37, i64 0, i64 0), i32 %245)
  call void @exit(i32 1) #24
  unreachable

247:                                              ; preds = %236, %215
  store i32 0, i32* %3, align 4, !tbaa !46
  %248 = getelementptr inbounds %class.LLNL_FEI_Fei, %class.LLNL_FEI_Fei* %0, i64 0, i32 4
  %249 = load %class.LLNL_FEI_Elem_Block**, %class.LLNL_FEI_Elem_Block*** %248, align 8
  %250 = load i32, i32* %74, align 4, !tbaa !70
  %251 = icmp sgt i32 %250, 0
  br i1 %251, label %252, label %296

252:                                              ; preds = %247, %290
  %253 = phi i64 [ %292, %290 ], [ 0, %247 ]
  %254 = phi i32 [ %291, %290 ], [ 0, %247 ]
  %255 = getelementptr inbounds %class.LLNL_FEI_Elem_Block*, %class.LLNL_FEI_Elem_Block** %249, i64 %253
  %256 = load %class.LLNL_FEI_Elem_Block*, %class.LLNL_FEI_Elem_Block** %255, align 8, !tbaa !13
  %257 = getelementptr inbounds %class.LLNL_FEI_Elem_Block, %class.LLNL_FEI_Elem_Block* %256, i64 0, i32 1
  %258 = load i32, i32* %257, align 4, !tbaa !9
  %259 = getelementptr inbounds %class.LLNL_FEI_Elem_Block, %class.LLNL_FEI_Elem_Block* %256, i64 0, i32 10
  %260 = load i32, i32* %259, align 8, !tbaa !31
  %261 = getelementptr inbounds %class.LLNL_FEI_Elem_Block, %class.LLNL_FEI_Elem_Block* %256, i64 0, i32 4
  %262 = load i32**, i32*** %261, align 8, !tbaa !12
  %263 = icmp sgt i32 %260, 0
  %264 = icmp sgt i32 %258, 0
  br i1 %264, label %265, label %290

265:                                              ; preds = %252
  %266 = zext i32 %258 to i64
  %267 = zext i32 %260 to i64
  br label %268

268:                                              ; preds = %265, %286
  %269 = phi i64 [ 0, %265 ], [ %288, %286 ]
  %270 = phi i32 [ %254, %265 ], [ %287, %286 ]
  br i1 %263, label %271, label %286

271:                                              ; preds = %268
  %272 = getelementptr inbounds i32*, i32** %262, i64 %269
  %273 = load i32*, i32** %272, align 8, !tbaa !13
  %274 = sext i32 %270 to i64
  br label %275

275:                                              ; preds = %271, %275
  %276 = phi i64 [ %274, %271 ], [ %278, %275 ]
  %277 = phi i64 [ 0, %271 ], [ %282, %275 ]
  %278 = add nsw i64 %276, 1
  %279 = getelementptr inbounds i32, i32* %211, i64 %276
  %280 = load i32, i32* %279, align 4, !tbaa !46
  %281 = getelementptr inbounds i32, i32* %273, i64 %277
  store i32 %280, i32* %281, align 4, !tbaa !46
  %282 = add nuw nsw i64 %277, 1
  %283 = icmp eq i64 %282, %267
  br i1 %283, label %284, label %275, !llvm.loop !138

284:                                              ; preds = %275
  %285 = trunc i64 %278 to i32
  br label %286

286:                                              ; preds = %284, %268
  %287 = phi i32 [ %270, %268 ], [ %285, %284 ]
  %288 = add nuw nsw i64 %269, 1
  %289 = icmp eq i64 %288, %266
  br i1 %289, label %290, label %268, !llvm.loop !139

290:                                              ; preds = %286, %252
  %291 = phi i32 [ %254, %252 ], [ %287, %286 ]
  %292 = add nuw nsw i64 %253, 1
  %293 = load i32, i32* %74, align 4, !tbaa !70
  %294 = sext i32 %293 to i64
  %295 = icmp slt i64 %292, %294
  br i1 %295, label %252, label %296, !llvm.loop !140

296:                                              ; preds = %290, %247
  %297 = phi i32 [ 0, %247 ], [ %291, %290 ]
  store i32 %297, i32* %3, align 4, !tbaa !46
  %298 = icmp sgt i32 %297, 0
  br i1 %298, label %299, label %311

299:                                              ; preds = %296
  %300 = icmp eq i32* %76, null
  br i1 %300, label %303, label %301

301:                                              ; preds = %299
  %302 = bitcast i32* %76 to i8*
  call void @_ZdaPv(i8* %302) #22
  br label %303

303:                                              ; preds = %301, %299
  %304 = icmp eq i32* %211, null
  br i1 %304, label %307, label %305

305:                                              ; preds = %303
  %306 = bitcast i32* %211 to i8*
  call void @_ZdaPv(i8* %306) #22
  br label %307

307:                                              ; preds = %305, %303
  %308 = icmp eq i32* %75, null
  br i1 %308, label %311, label %309

309:                                              ; preds = %307
  %310 = bitcast i32* %75 to i8*
  call void @_ZdaPv(i8* %310) #22
  br label %311

311:                                              ; preds = %307, %309, %296
  %312 = getelementptr inbounds %class.LLNL_FEI_Fei, %class.LLNL_FEI_Fei* %0, i64 0, i32 10
  %313 = load i32*, i32** %312, align 8, !tbaa !100
  %314 = icmp eq i32* %313, null
  br i1 %314, label %317, label %315

315:                                              ; preds = %311
  %316 = bitcast i32* %313 to i8*
  call void @_ZdaPv(i8* %316) #22
  br label %317

317:                                              ; preds = %315, %311
  %318 = getelementptr inbounds %class.LLNL_FEI_Fei, %class.LLNL_FEI_Fei* %0, i64 0, i32 11
  %319 = load i32*, i32** %318, align 8, !tbaa !101
  %320 = icmp eq i32* %319, null
  br i1 %320, label %323, label %321

321:                                              ; preds = %317
  %322 = bitcast i32* %319 to i8*
  call void @_ZdaPv(i8* %322) #22
  br label %323

323:                                              ; preds = %321, %317
  %324 = load i32, i32* %2, align 4, !tbaa !46
  %325 = add nsw i32 %324, 1
  %326 = sext i32 %325 to i64
  %327 = call { i64, i1 } @llvm.umul.with.overflow.i64(i64 %326, i64 4)
  %328 = extractvalue { i64, i1 } %327, 1
  %329 = extractvalue { i64, i1 } %327, 0
  %330 = select i1 %328, i64 -1, i64 %329
  %331 = call noalias nonnull i8* @_Znam(i64 %330) #23
  %332 = bitcast i32** %312 to i8**
  store i8* %331, i8** %332, align 8, !tbaa !100
  %333 = call noalias nonnull i8* @_Znam(i64 %330) #23
  %334 = bitcast i32** %318 to i8**
  store i8* %333, i8** %334, align 8, !tbaa !101
  %335 = call noalias nonnull dereferenceable(8) i8* @_Znam(i64 8) #23
  %336 = bitcast i8* %335 to i32*
  %337 = shl nsw i32 %324, 1
  %338 = sext i32 %337 to i64
  %339 = call { i64, i1 } @llvm.umul.with.overflow.i64(i64 %338, i64 4)
  %340 = extractvalue { i64, i1 } %339, 1
  %341 = extractvalue { i64, i1 } %339, 0
  %342 = select i1 %340, i64 -1, i64 %341
  %343 = call noalias nonnull i8* @_Znam(i64 %342) #23
  %344 = bitcast i8* %343 to i32*
  %345 = load i32, i32* %79, align 8, !tbaa !96
  store i32 %345, i32* %336, align 4, !tbaa !46
  %346 = getelementptr inbounds %class.LLNL_FEI_Fei, %class.LLNL_FEI_Fei* %0, i64 0, i32 12
  %347 = load i32, i32* %346, align 8, !tbaa !116
  %348 = getelementptr inbounds i32, i32* %336, i64 1
  store i32 %347, i32* %348, align 4, !tbaa !46
  %349 = load i32, i32* %24, align 8, !tbaa !59
  %350 = call i32 @MPI_Allgather(i8* nonnull %335, i32 2, i32 1275069445, i8* nonnull %343, i32 2, i32 1275069445, i32 %349)
  %351 = load i32*, i32** %312, align 8
  %352 = load i32, i32* %2, align 4, !tbaa !46
  %353 = icmp sgt i32 %352, 0
  br i1 %353, label %358, label %354

354:                                              ; preds = %358, %323
  %355 = load i32*, i32** %318, align 8
  %356 = load i32, i32* %2, align 4, !tbaa !46
  %357 = icmp sgt i32 %356, 0
  br i1 %357, label %374, label %368

358:                                              ; preds = %323, %358
  %359 = phi i64 [ %364, %358 ], [ 0, %323 ]
  %360 = shl nuw nsw i64 %359, 1
  %361 = getelementptr inbounds i32, i32* %344, i64 %360
  %362 = load i32, i32* %361, align 4, !tbaa !46
  %363 = getelementptr inbounds i32, i32* %351, i64 %359
  store i32 %362, i32* %363, align 4, !tbaa !46
  %364 = add nuw nsw i64 %359, 1
  %365 = load i32, i32* %2, align 4, !tbaa !46
  %366 = sext i32 %365 to i64
  %367 = icmp slt i64 %364, %366
  br i1 %367, label %358, label %354, !llvm.loop !141

368:                                              ; preds = %374, %354
  %369 = phi i32 [ %356, %354 ], [ %382, %374 ]
  %370 = load i32*, i32** %312, align 8
  %371 = icmp sgt i32 %369, 0
  br i1 %371, label %372, label %395

372:                                              ; preds = %368
  %373 = zext i32 %369 to i64
  br label %385

374:                                              ; preds = %354, %374
  %375 = phi i64 [ %381, %374 ], [ 0, %354 ]
  %376 = shl nuw nsw i64 %375, 1
  %377 = or i64 %376, 1
  %378 = getelementptr inbounds i32, i32* %344, i64 %377
  %379 = load i32, i32* %378, align 4, !tbaa !46
  %380 = getelementptr inbounds i32, i32* %355, i64 %375
  store i32 %379, i32* %380, align 4, !tbaa !46
  %381 = add nuw nsw i64 %375, 1
  %382 = load i32, i32* %2, align 4, !tbaa !46
  %383 = sext i32 %382 to i64
  %384 = icmp slt i64 %381, %383
  br i1 %384, label %374, label %368, !llvm.loop !142

385:                                              ; preds = %372, %385
  %386 = phi i64 [ %373, %372 ], [ %394, %385 ]
  %387 = phi i32 [ %369, %372 ], [ %388, %385 ]
  %388 = add nsw i32 %387, -1
  %389 = zext i32 %388 to i64
  %390 = getelementptr inbounds i32, i32* %370, i64 %389
  %391 = load i32, i32* %390, align 4, !tbaa !46
  %392 = getelementptr inbounds i32, i32* %370, i64 %386
  store i32 %391, i32* %392, align 4, !tbaa !46
  %393 = icmp sgt i64 %386, 1
  %394 = add nsw i64 %386, -1
  br i1 %393, label %385, label %395, !llvm.loop !143

395:                                              ; preds = %385, %368
  %396 = load i32*, i32** %312, align 8, !tbaa !100
  store i32 0, i32* %396, align 4, !tbaa !46
  %397 = load i32, i32* %2, align 4, !tbaa !46
  %398 = icmp slt i32 %397, 1
  br i1 %398, label %399, label %405

399:                                              ; preds = %405, %395
  %400 = phi i32 [ %397, %395 ], [ %414, %405 ]
  %401 = load i32*, i32** %318, align 8
  %402 = icmp sgt i32 %400, 0
  br i1 %402, label %403, label %427

403:                                              ; preds = %399
  %404 = zext i32 %400 to i64
  br label %417

405:                                              ; preds = %395, %405
  %406 = phi i64 [ %413, %405 ], [ 1, %395 ]
  %407 = add nsw i64 %406, -1
  %408 = getelementptr inbounds i32, i32* %396, i64 %407
  %409 = load i32, i32* %408, align 4, !tbaa !46
  %410 = getelementptr inbounds i32, i32* %396, i64 %406
  %411 = load i32, i32* %410, align 4, !tbaa !46
  %412 = add nsw i32 %411, %409
  store i32 %412, i32* %410, align 4, !tbaa !46
  %413 = add nuw nsw i64 %406, 1
  %414 = load i32, i32* %2, align 4, !tbaa !46
  %415 = sext i32 %414 to i64
  %416 = icmp slt i64 %406, %415
  br i1 %416, label %405, label %399, !llvm.loop !144

417:                                              ; preds = %403, %417
  %418 = phi i64 [ %404, %403 ], [ %426, %417 ]
  %419 = phi i32 [ %400, %403 ], [ %420, %417 ]
  %420 = add nsw i32 %419, -1
  %421 = zext i32 %420 to i64
  %422 = getelementptr inbounds i32, i32* %401, i64 %421
  %423 = load i32, i32* %422, align 4, !tbaa !46
  %424 = getelementptr inbounds i32, i32* %401, i64 %418
  store i32 %423, i32* %424, align 4, !tbaa !46
  %425 = icmp sgt i64 %418, 1
  %426 = add nsw i64 %418, -1
  br i1 %425, label %417, label %427, !llvm.loop !145

427:                                              ; preds = %417, %399
  %428 = load i32*, i32** %318, align 8, !tbaa !101
  store i32 0, i32* %428, align 4, !tbaa !46
  %429 = load i32, i32* %2, align 4, !tbaa !46
  %430 = icmp slt i32 %429, 1
  br i1 %430, label %443, label %431

431:                                              ; preds = %427, %431
  %432 = phi i64 [ %439, %431 ], [ 1, %427 ]
  %433 = add nsw i64 %432, -1
  %434 = getelementptr inbounds i32, i32* %428, i64 %433
  %435 = load i32, i32* %434, align 4, !tbaa !46
  %436 = getelementptr inbounds i32, i32* %428, i64 %432
  %437 = load i32, i32* %436, align 4, !tbaa !46
  %438 = add nsw i32 %437, %435
  store i32 %438, i32* %436, align 4, !tbaa !46
  %439 = add nuw nsw i64 %432, 1
  %440 = load i32, i32* %2, align 4, !tbaa !46
  %441 = sext i32 %440 to i64
  %442 = icmp slt i64 %432, %441
  br i1 %442, label %431, label %443, !llvm.loop !146

443:                                              ; preds = %431, %427
  call void @_ZdaPv(i8* %335) #22
  call void @_ZdaPv(i8* %343) #22
  %444 = load i32*, i32** %7, align 8, !tbaa !13
  call void @_ZN12LLNL_FEI_Fei16setupCommPatternEPi(%class.LLNL_FEI_Fei* nonnull align 8 dereferenceable(312) %0, i32* %444)
  %445 = icmp eq i32* %444, null
  br i1 %445, label %448, label %446

446:                                              ; preds = %443
  %447 = bitcast i32* %444 to i8*
  call void @_ZdaPv(i8* %447) #22
  br label %448

448:                                              ; preds = %446, %443
  call void @_ZN12LLNL_FEI_Fei23buildGlobalMatrixVectorEv(%class.LLNL_FEI_Fei* nonnull align 8 dereferenceable(312) %0)
  %449 = getelementptr inbounds %class.LLNL_FEI_Fei, %class.LLNL_FEI_Fei* %0, i64 0, i32 35
  %450 = load %class.LLNL_FEI_Matrix*, %class.LLNL_FEI_Matrix** %449, align 8, !tbaa !65
  %451 = call i32 @_ZN15LLNL_FEI_Matrix11setCompleteEv(%class.LLNL_FEI_Matrix* nonnull align 8 dereferenceable(216) %450)
  %452 = call double @MPI_Wtime()
  %453 = load double, double* %23, align 8, !tbaa !81
  %454 = fsub double %452, %453
  %455 = getelementptr inbounds %class.LLNL_FEI_Fei, %class.LLNL_FEI_Fei* %0, i64 0, i32 39
  %456 = load double, double* %455, align 8, !tbaa !94
  %457 = fadd double %456, %454
  store double %457, double* %455, align 8, !tbaa !94
  %458 = getelementptr inbounds %class.LLNL_FEI_Fei, %class.LLNL_FEI_Fei* %0, i64 0, i32 38
  store i32 1, i32* %458, align 8, !tbaa !80
  %459 = load i32, i32* %14, align 8, !tbaa !67
  %460 = icmp sgt i32 %459, 2
  br i1 %460, label %461, label %465

461:                                              ; preds = %448
  %462 = getelementptr inbounds %class.LLNL_FEI_Fei, %class.LLNL_FEI_Fei* %0, i64 0, i32 1
  %463 = load i32, i32* %462, align 4, !tbaa !68
  %464 = call i32 (i8*, ...) @printf(i8* nonnull dereferenceable(1) getelementptr inbounds ([41 x i8], [41 x i8]* @.str.38, i64 0, i64 0), i32 %463)
  br label %465

465:                                              ; preds = %461, %448
  call void @llvm.lifetime.end.p0i8(i64 8, i8* nonnull %13) #25
  call void @llvm.lifetime.end.p0i8(i64 4, i8* nonnull %12) #25
  call void @llvm.lifetime.end.p0i8(i64 8, i8* nonnull %11) #25
  call void @llvm.lifetime.end.p0i8(i64 8, i8* nonnull %10) #25
  call void @llvm.lifetime.end.p0i8(i64 4, i8* nonnull %9) #25
  call void @llvm.lifetime.end.p0i8(i64 4, i8* nonnull %8) #25
  ret i32 0
}

declare dso_local i32 @MPI_Comm_size(i32, i32*) local_unnamed_addr #12

; Function Attrs: mustprogress uwtable
define dso_local void @_ZN12LLNL_FEI_Fei15sortSharedNodesEv(%class.LLNL_FEI_Fei* nonnull align 8 dereferenceable(312) %0) local_unnamed_addr #4 align 2 {
  %2 = getelementptr inbounds %class.LLNL_FEI_Fei, %class.LLNL_FEI_Fei* %0, i64 0, i32 18
  %3 = load i32, i32* %2, align 8, !tbaa !62
  %4 = icmp sgt i32 %3, 0
  br i1 %4, label %5, label %234

5:                                                ; preds = %1
  %6 = sext i32 %3 to i64
  %7 = call { i64, i1 } @llvm.umul.with.overflow.i64(i64 %6, i64 4)
  %8 = extractvalue { i64, i1 } %7, 1
  %9 = extractvalue { i64, i1 } %7, 0
  %10 = select i1 %8, i64 -1, i64 %9
  %11 = call noalias nonnull i8* @_Znam(i64 %10) #23
  %12 = bitcast i8* %11 to i32*
  %13 = call noalias nonnull i8* @_Znam(i64 %10) #23
  %14 = call { i64, i1 } @llvm.umul.with.overflow.i64(i64 %6, i64 8)
  %15 = extractvalue { i64, i1 } %14, 1
  %16 = extractvalue { i64, i1 } %14, 0
  %17 = select i1 %15, i64 -1, i64 %16
  %18 = call noalias nonnull i8* @_Znam(i64 %17) #23
  %19 = zext i32 %3 to i64
  br label %20

20:                                               ; preds = %5, %20
  %21 = phi i64 [ 0, %5 ], [ %24, %20 ]
  %22 = getelementptr inbounds i32, i32* %12, i64 %21
  %23 = trunc i64 %21 to i32
  store i32 %23, i32* %22, align 4, !tbaa !46
  %24 = add nuw nsw i64 %21, 1
  %25 = icmp eq i64 %24, %19
  br i1 %25, label %26, label %20, !llvm.loop !147

26:                                               ; preds = %20
  %27 = bitcast i8* %13 to i32*
  %28 = bitcast i8* %18 to i32**
  %29 = getelementptr inbounds %class.LLNL_FEI_Fei, %class.LLNL_FEI_Fei* %0, i64 0, i32 19
  %30 = load i32*, i32** %29, align 8, !tbaa !82
  %31 = add nsw i32 %3, -1
  call void @_ZN12LLNL_FEI_Fei8IntSort2EPiS0_ii(i32* %30, i32* nonnull %12, i32 0, i32 %31)
  %32 = load i32, i32* %2, align 8, !tbaa !62
  %33 = getelementptr inbounds %class.LLNL_FEI_Fei, %class.LLNL_FEI_Fei* %0, i64 0, i32 21
  %34 = load i32**, i32*** %33, align 8
  %35 = getelementptr inbounds %class.LLNL_FEI_Fei, %class.LLNL_FEI_Fei* %0, i64 0, i32 20
  %36 = load i32*, i32** %35, align 8
  %37 = icmp sgt i32 %32, 0
  br i1 %37, label %38, label %40

38:                                               ; preds = %26
  %39 = zext i32 %32 to i64
  br label %45

40:                                               ; preds = %45, %26
  %41 = getelementptr inbounds %class.LLNL_FEI_Fei, %class.LLNL_FEI_Fei* %0, i64 0, i32 21
  %42 = getelementptr inbounds %class.LLNL_FEI_Fei, %class.LLNL_FEI_Fei* %0, i64 0, i32 20
  %43 = load i32, i32* %2, align 8, !tbaa !62
  %44 = icmp sgt i32 %43, 0
  br i1 %44, label %55, label %72

45:                                               ; preds = %38, %45
  %46 = phi i64 [ 0, %38 ], [ %53, %45 ]
  %47 = getelementptr inbounds i32*, i32** %34, i64 %46
  %48 = load i32*, i32** %47, align 8, !tbaa !13
  %49 = getelementptr inbounds i32*, i32** %28, i64 %46
  store i32* %48, i32** %49, align 8, !tbaa !13
  %50 = getelementptr inbounds i32, i32* %36, i64 %46
  %51 = load i32, i32* %50, align 4, !tbaa !46
  %52 = getelementptr inbounds i32, i32* %27, i64 %46
  store i32 %51, i32* %52, align 4, !tbaa !46
  %53 = add nuw nsw i64 %46, 1
  %54 = icmp eq i64 %53, %39
  br i1 %54, label %40, label %45, !llvm.loop !148

55:                                               ; preds = %40, %55
  %56 = phi i64 [ %68, %55 ], [ 0, %40 ]
  %57 = getelementptr inbounds i32, i32* %12, i64 %56
  %58 = load i32, i32* %57, align 4, !tbaa !46
  %59 = sext i32 %58 to i64
  %60 = getelementptr inbounds i32*, i32** %28, i64 %59
  %61 = load i32*, i32** %60, align 8, !tbaa !13
  %62 = load i32**, i32*** %41, align 8, !tbaa !88
  %63 = getelementptr inbounds i32*, i32** %62, i64 %56
  store i32* %61, i32** %63, align 8, !tbaa !13
  %64 = getelementptr inbounds i32, i32* %27, i64 %59
  %65 = load i32, i32* %64, align 4, !tbaa !46
  %66 = load i32*, i32** %42, align 8, !tbaa !85
  %67 = getelementptr inbounds i32, i32* %66, i64 %56
  store i32 %65, i32* %67, align 4, !tbaa !46
  %68 = add nuw nsw i64 %56, 1
  %69 = load i32, i32* %2, align 8, !tbaa !62
  %70 = sext i32 %69 to i64
  %71 = icmp slt i64 %68, %70
  br i1 %71, label %55, label %72, !llvm.loop !149

72:                                               ; preds = %55, %40
  call void @_ZdaPv(i8* %18) #22
  call void @_ZdaPv(i8* %13) #22
  call void @_ZdaPv(i8* %11) #22
  %73 = getelementptr inbounds %class.LLNL_FEI_Fei, %class.LLNL_FEI_Fei* %0, i64 0, i32 21
  %74 = getelementptr inbounds %class.LLNL_FEI_Fei, %class.LLNL_FEI_Fei* %0, i64 0, i32 20
  %75 = getelementptr inbounds %class.LLNL_FEI_Fei, %class.LLNL_FEI_Fei* %0, i64 0, i32 21
  %76 = getelementptr inbounds %class.LLNL_FEI_Fei, %class.LLNL_FEI_Fei* %0, i64 0, i32 20
  %77 = load i32, i32* %2, align 8, !tbaa !62
  %78 = icmp sgt i32 %77, 1
  br i1 %78, label %79, label %179

79:                                               ; preds = %72, %173
  %80 = phi i64 [ %175, %173 ], [ 1, %72 ]
  %81 = phi i32 [ %174, %173 ], [ 0, %72 ]
  %82 = load i32*, i32** %29, align 8, !tbaa !82
  %83 = getelementptr inbounds i32, i32* %82, i64 %80
  %84 = load i32, i32* %83, align 4, !tbaa !46
  %85 = sext i32 %81 to i64
  %86 = getelementptr inbounds i32, i32* %82, i64 %85
  %87 = load i32, i32* %86, align 4, !tbaa !46
  %88 = icmp eq i32 %84, %87
  br i1 %88, label %89, label %161

89:                                               ; preds = %79
  %90 = load i32**, i32*** %75, align 8, !tbaa !88
  %91 = getelementptr inbounds i32*, i32** %90, i64 %85
  %92 = load i32*, i32** %91, align 8, !tbaa !13
  %93 = load i32*, i32** %76, align 8, !tbaa !85
  %94 = getelementptr inbounds i32, i32* %93, i64 %85
  %95 = load i32, i32* %94, align 4, !tbaa !46
  %96 = getelementptr inbounds i32, i32* %93, i64 %80
  %97 = load i32, i32* %96, align 4, !tbaa !46
  %98 = add nsw i32 %97, %95
  %99 = sext i32 %98 to i64
  %100 = call { i64, i1 } @llvm.umul.with.overflow.i64(i64 %99, i64 4)
  %101 = extractvalue { i64, i1 } %100, 1
  %102 = extractvalue { i64, i1 } %100, 0
  %103 = select i1 %101, i64 -1, i64 %102
  %104 = call noalias nonnull i8* @_Znam(i64 %103) #23
  %105 = bitcast i32** %91 to i8**
  store i8* %104, i8** %105, align 8, !tbaa !13
  %106 = load i32*, i32** %76, align 8, !tbaa !85
  %107 = getelementptr inbounds i32, i32* %106, i64 %85
  %108 = load i32, i32* %107, align 4, !tbaa !46
  %109 = icmp sgt i32 %108, 0
  br i1 %109, label %110, label %114

110:                                              ; preds = %89
  %111 = load i32**, i32*** %75, align 8
  %112 = getelementptr inbounds i32*, i32** %111, i64 %85
  %113 = load i32*, i32** %112, align 8, !tbaa !13
  br label %125

114:                                              ; preds = %125, %89
  %115 = getelementptr inbounds i32, i32* %106, i64 %85
  %116 = getelementptr inbounds i32, i32* %106, i64 %80
  %117 = load i32**, i32*** %75, align 8
  %118 = load i32, i32* %116, align 4, !tbaa !46
  %119 = icmp sgt i32 %118, 0
  br i1 %119, label %120, label %147

120:                                              ; preds = %114
  %121 = getelementptr inbounds i32*, i32** %117, i64 %85
  %122 = getelementptr inbounds i32*, i32** %117, i64 %80
  %123 = load i32*, i32** %122, align 8, !tbaa !13
  %124 = load i32*, i32** %121, align 8, !tbaa !13
  br label %134

125:                                              ; preds = %110, %125
  %126 = phi i64 [ 0, %110 ], [ %130, %125 ]
  %127 = getelementptr inbounds i32, i32* %92, i64 %126
  %128 = load i32, i32* %127, align 4, !tbaa !46
  %129 = getelementptr inbounds i32, i32* %113, i64 %126
  store i32 %128, i32* %129, align 4, !tbaa !46
  %130 = add nuw nsw i64 %126, 1
  %131 = load i32, i32* %107, align 4, !tbaa !46
  %132 = sext i32 %131 to i64
  %133 = icmp slt i64 %130, %132
  br i1 %133, label %125, label %114, !llvm.loop !150

134:                                              ; preds = %120, %134
  %135 = phi i64 [ 0, %120 ], [ %143, %134 ]
  %136 = getelementptr inbounds i32, i32* %123, i64 %135
  %137 = load i32, i32* %136, align 4, !tbaa !46
  %138 = load i32, i32* %115, align 4, !tbaa !46
  %139 = trunc i64 %135 to i32
  %140 = add nsw i32 %138, %139
  %141 = sext i32 %140 to i64
  %142 = getelementptr inbounds i32, i32* %124, i64 %141
  store i32 %137, i32* %142, align 4, !tbaa !46
  %143 = add nuw nsw i64 %135, 1
  %144 = load i32, i32* %116, align 4, !tbaa !46
  %145 = sext i32 %144 to i64
  %146 = icmp slt i64 %143, %145
  br i1 %146, label %134, label %147, !llvm.loop !151

147:                                              ; preds = %134, %114
  %148 = phi i32 [ %118, %114 ], [ %144, %134 ]
  %149 = load i32, i32* %115, align 4, !tbaa !46
  %150 = add nsw i32 %149, %148
  store i32 %150, i32* %115, align 4, !tbaa !46
  %151 = icmp eq i32* %92, null
  br i1 %151, label %154, label %152

152:                                              ; preds = %147
  %153 = bitcast i32* %92 to i8*
  call void @_ZdaPv(i8* %153) #22
  br label %154

154:                                              ; preds = %152, %147
  %155 = load i32**, i32*** %75, align 8, !tbaa !88
  %156 = getelementptr inbounds i32*, i32** %155, i64 %80
  %157 = load i32*, i32** %156, align 8, !tbaa !13
  %158 = icmp eq i32* %157, null
  br i1 %158, label %173, label %159

159:                                              ; preds = %154
  %160 = bitcast i32* %157 to i8*
  call void @_ZdaPv(i8* %160) #22
  br label %173

161:                                              ; preds = %79
  %162 = add nsw i32 %81, 1
  %163 = sext i32 %162 to i64
  %164 = getelementptr inbounds i32, i32* %82, i64 %163
  store i32 %84, i32* %164, align 4, !tbaa !46
  %165 = load i32**, i32*** %73, align 8, !tbaa !88
  %166 = getelementptr inbounds i32*, i32** %165, i64 %80
  %167 = load i32*, i32** %166, align 8, !tbaa !13
  %168 = getelementptr inbounds i32*, i32** %165, i64 %163
  store i32* %167, i32** %168, align 8, !tbaa !13
  %169 = load i32*, i32** %74, align 8, !tbaa !85
  %170 = getelementptr inbounds i32, i32* %169, i64 %80
  %171 = load i32, i32* %170, align 4, !tbaa !46
  %172 = getelementptr inbounds i32, i32* %169, i64 %163
  store i32 %171, i32* %172, align 4, !tbaa !46
  br label %173

173:                                              ; preds = %161, %159, %154
  %174 = phi i32 [ %81, %154 ], [ %81, %159 ], [ %162, %161 ]
  %175 = add nuw nsw i64 %80, 1
  %176 = load i32, i32* %2, align 8, !tbaa !62
  %177 = sext i32 %176 to i64
  %178 = icmp slt i64 %175, %177
  br i1 %178, label %79, label %179, !llvm.loop !152

179:                                              ; preds = %173, %72
  %180 = phi i32 [ 0, %72 ], [ %174, %173 ]
  %181 = phi i32 [ %77, %72 ], [ %176, %173 ]
  %182 = icmp sgt i32 %181, 0
  br i1 %182, label %183, label %185

183:                                              ; preds = %179
  %184 = add nsw i32 %180, 1
  store i32 %184, i32* %2, align 8, !tbaa !62
  br label %185

185:                                              ; preds = %183, %179
  %186 = getelementptr inbounds %class.LLNL_FEI_Fei, %class.LLNL_FEI_Fei* %0, i64 0, i32 21
  %187 = getelementptr inbounds %class.LLNL_FEI_Fei, %class.LLNL_FEI_Fei* %0, i64 0, i32 20
  %188 = load i32, i32* %2, align 8, !tbaa !62
  %189 = icmp sgt i32 %188, 0
  br i1 %189, label %190, label %234

190:                                              ; preds = %185, %226
  %191 = phi i64 [ %230, %226 ], [ 0, %185 ]
  %192 = load i32**, i32*** %186, align 8, !tbaa !88
  %193 = getelementptr inbounds i32*, i32** %192, i64 %191
  %194 = load i32*, i32** %193, align 8, !tbaa !13
  %195 = load i32*, i32** %187, align 8, !tbaa !85
  %196 = getelementptr inbounds i32, i32* %195, i64 %191
  %197 = load i32, i32* %196, align 4, !tbaa !46
  %198 = add nsw i32 %197, -1
  call void @_ZN12LLNL_FEI_Fei7IntSortEPiii(%class.LLNL_FEI_Fei* nonnull align 8 dereferenceable(312) %0, i32* %194, i32 0, i32 %198)
  %199 = load i32*, i32** %187, align 8, !tbaa !85
  %200 = getelementptr inbounds i32, i32* %199, i64 %191
  %201 = load i32, i32* %200, align 4, !tbaa !46
  %202 = icmp sgt i32 %201, 1
  br i1 %202, label %203, label %226

203:                                              ; preds = %190
  %204 = load i32**, i32*** %186, align 8
  %205 = getelementptr inbounds i32*, i32** %204, i64 %191
  %206 = load i32*, i32** %205, align 8, !tbaa !13
  br label %207

207:                                              ; preds = %203, %220
  %208 = phi i64 [ 1, %203 ], [ %222, %220 ]
  %209 = phi i32 [ 0, %203 ], [ %221, %220 ]
  %210 = getelementptr inbounds i32, i32* %206, i64 %208
  %211 = load i32, i32* %210, align 4, !tbaa !46
  %212 = sext i32 %209 to i64
  %213 = getelementptr inbounds i32, i32* %206, i64 %212
  %214 = load i32, i32* %213, align 4, !tbaa !46
  %215 = icmp eq i32 %211, %214
  br i1 %215, label %220, label %216

216:                                              ; preds = %207
  %217 = add nsw i32 %209, 1
  %218 = sext i32 %217 to i64
  %219 = getelementptr inbounds i32, i32* %206, i64 %218
  store i32 %211, i32* %219, align 4, !tbaa !46
  br label %220

220:                                              ; preds = %207, %216
  %221 = phi i32 [ %217, %216 ], [ %209, %207 ]
  %222 = add nuw nsw i64 %208, 1
  %223 = load i32, i32* %200, align 4, !tbaa !46
  %224 = sext i32 %223 to i64
  %225 = icmp slt i64 %222, %224
  br i1 %225, label %207, label %226, !llvm.loop !153

226:                                              ; preds = %220, %190
  %227 = phi i32 [ 0, %190 ], [ %221, %220 ]
  %228 = getelementptr inbounds i32, i32* %199, i64 %191
  %229 = add nsw i32 %227, 1
  store i32 %229, i32* %228, align 4, !tbaa !46
  %230 = add nuw nsw i64 %191, 1
  %231 = load i32, i32* %2, align 8, !tbaa !62
  %232 = sext i32 %231 to i64
  %233 = icmp slt i64 %230, %232
  br i1 %233, label %190, label %234, !llvm.loop !154

234:                                              ; preds = %226, %185, %1
  ret void
}

; Function Attrs: mustprogress uwtable
define dso_local void @_ZN12LLNL_FEI_Fei24composeOrderedNodeIDListEPPiS1_S0_S0_(%class.LLNL_FEI_Fei* nocapture nonnull readonly align 8 dereferenceable(312) %0, i32** nocapture %1, i32** nocapture %2, i32* nocapture %3, i32* nocapture %4) local_unnamed_addr #4 align 2 {
  %6 = getelementptr inbounds %class.LLNL_FEI_Fei, %class.LLNL_FEI_Fei* %0, i64 0, i32 3
  %7 = load i32, i32* %6, align 4, !tbaa !70
  %8 = getelementptr inbounds %class.LLNL_FEI_Fei, %class.LLNL_FEI_Fei* %0, i64 0, i32 4
  %9 = load %class.LLNL_FEI_Elem_Block**, %class.LLNL_FEI_Elem_Block*** %8, align 8
  %10 = icmp sgt i32 %7, 0
  br i1 %10, label %11, label %26

11:                                               ; preds = %5
  %12 = zext i32 %7 to i64
  br label %13

13:                                               ; preds = %11, %13
  %14 = phi i64 [ 0, %11 ], [ %24, %13 ]
  %15 = phi i32 [ 0, %11 ], [ %23, %13 ]
  %16 = getelementptr inbounds %class.LLNL_FEI_Elem_Block*, %class.LLNL_FEI_Elem_Block** %9, i64 %14
  %17 = load %class.LLNL_FEI_Elem_Block*, %class.LLNL_FEI_Elem_Block** %16, align 8, !tbaa !13
  %18 = getelementptr inbounds %class.LLNL_FEI_Elem_Block, %class.LLNL_FEI_Elem_Block* %17, i64 0, i32 1
  %19 = load i32, i32* %18, align 4, !tbaa !9
  %20 = getelementptr inbounds %class.LLNL_FEI_Elem_Block, %class.LLNL_FEI_Elem_Block* %17, i64 0, i32 10
  %21 = load i32, i32* %20, align 8, !tbaa !31
  %22 = mul nsw i32 %21, %19
  %23 = add nsw i32 %22, %15
  %24 = add nuw nsw i64 %14, 1
  %25 = icmp eq i64 %24, %12
  br i1 %25, label %26, label %13, !llvm.loop !155

26:                                               ; preds = %13, %5
  %27 = phi i32 [ 0, %5 ], [ %23, %13 ]
  %28 = getelementptr inbounds %class.LLNL_FEI_Fei, %class.LLNL_FEI_Fei* %0, i64 0, i32 12
  %29 = load i32, i32* %28, align 8, !tbaa !116
  %30 = getelementptr inbounds %class.LLNL_FEI_Fei, %class.LLNL_FEI_Fei* %0, i64 0, i32 13
  %31 = load i32, i32* %30, align 4, !tbaa !156
  %32 = mul nsw i32 %31, %29
  %33 = add nsw i32 %32, %27
  %34 = icmp sgt i32 %33, 0
  br i1 %34, label %35, label %43

35:                                               ; preds = %26
  %36 = sext i32 %33 to i64
  %37 = call { i64, i1 } @llvm.umul.with.overflow.i64(i64 %36, i64 4)
  %38 = extractvalue { i64, i1 } %37, 1
  %39 = extractvalue { i64, i1 } %37, 0
  %40 = select i1 %38, i64 -1, i64 %39
  %41 = call noalias nonnull i8* @_Znam(i64 %40) #23
  %42 = bitcast i8* %41 to i32*
  br label %43

43:                                               ; preds = %35, %26
  %44 = phi i32* [ %42, %35 ], [ null, %26 ]
  %45 = getelementptr inbounds %class.LLNL_FEI_Fei, %class.LLNL_FEI_Fei* %0, i64 0, i32 4
  %46 = load %class.LLNL_FEI_Elem_Block**, %class.LLNL_FEI_Elem_Block*** %45, align 8
  %47 = icmp sgt i32 %7, 0
  br i1 %47, label %48, label %50

48:                                               ; preds = %43
  %49 = zext i32 %7 to i64
  br label %59

50:                                               ; preds = %97, %43
  %51 = phi i32 [ 0, %43 ], [ %98, %97 ]
  %52 = getelementptr inbounds %class.LLNL_FEI_Fei, %class.LLNL_FEI_Fei* %0, i64 0, i32 14
  %53 = load i32**, i32*** %52, align 8
  %54 = icmp sgt i32 %31, 0
  %55 = icmp sgt i32 %29, 0
  br i1 %55, label %56, label %123

56:                                               ; preds = %50
  %57 = zext i32 %29 to i64
  %58 = zext i32 %31 to i64
  br label %101

59:                                               ; preds = %48, %97
  %60 = phi i64 [ 0, %48 ], [ %99, %97 ]
  %61 = phi i32 [ 0, %48 ], [ %98, %97 ]
  %62 = getelementptr inbounds %class.LLNL_FEI_Elem_Block*, %class.LLNL_FEI_Elem_Block** %46, i64 %60
  %63 = load %class.LLNL_FEI_Elem_Block*, %class.LLNL_FEI_Elem_Block** %62, align 8, !tbaa !13
  %64 = getelementptr inbounds %class.LLNL_FEI_Elem_Block, %class.LLNL_FEI_Elem_Block* %63, i64 0, i32 1
  %65 = load i32, i32* %64, align 4, !tbaa !9
  %66 = getelementptr inbounds %class.LLNL_FEI_Elem_Block, %class.LLNL_FEI_Elem_Block* %63, i64 0, i32 10
  %67 = load i32, i32* %66, align 8, !tbaa !31
  %68 = getelementptr inbounds %class.LLNL_FEI_Elem_Block, %class.LLNL_FEI_Elem_Block* %63, i64 0, i32 4
  %69 = load i32**, i32*** %68, align 8, !tbaa !12
  %70 = icmp sgt i32 %67, 0
  %71 = icmp sgt i32 %65, 0
  br i1 %71, label %72, label %97

72:                                               ; preds = %59
  %73 = zext i32 %65 to i64
  %74 = zext i32 %67 to i64
  br label %75

75:                                               ; preds = %72, %93
  %76 = phi i64 [ 0, %72 ], [ %95, %93 ]
  %77 = phi i32 [ %61, %72 ], [ %94, %93 ]
  br i1 %70, label %78, label %93

78:                                               ; preds = %75
  %79 = getelementptr inbounds i32*, i32** %69, i64 %76
  %80 = load i32*, i32** %79, align 8, !tbaa !13
  %81 = sext i32 %77 to i64
  br label %82

82:                                               ; preds = %78, %82
  %83 = phi i64 [ 0, %78 ], [ %89, %82 ]
  %84 = phi i64 [ %81, %78 ], [ %87, %82 ]
  %85 = getelementptr inbounds i32, i32* %80, i64 %83
  %86 = load i32, i32* %85, align 4, !tbaa !46
  %87 = add nsw i64 %84, 1
  %88 = getelementptr inbounds i32, i32* %44, i64 %84
  store i32 %86, i32* %88, align 4, !tbaa !46
  %89 = add nuw nsw i64 %83, 1
  %90 = icmp eq i64 %89, %74
  br i1 %90, label %91, label %82, !llvm.loop !157

91:                                               ; preds = %82
  %92 = trunc i64 %87 to i32
  br label %93

93:                                               ; preds = %91, %75
  %94 = phi i32 [ %77, %75 ], [ %92, %91 ]
  %95 = add nuw nsw i64 %76, 1
  %96 = icmp eq i64 %95, %73
  br i1 %96, label %97, label %75, !llvm.loop !158

97:                                               ; preds = %93, %59
  %98 = phi i32 [ %61, %59 ], [ %94, %93 ]
  %99 = add nuw nsw i64 %60, 1
  %100 = icmp eq i64 %99, %49
  br i1 %100, label %50, label %59, !llvm.loop !159

101:                                              ; preds = %56, %119
  %102 = phi i64 [ 0, %56 ], [ %121, %119 ]
  %103 = phi i32 [ %51, %56 ], [ %120, %119 ]
  br i1 %54, label %104, label %119

104:                                              ; preds = %101
  %105 = getelementptr inbounds i32*, i32** %53, i64 %102
  %106 = load i32*, i32** %105, align 8, !tbaa !13
  %107 = sext i32 %103 to i64
  br label %108

108:                                              ; preds = %104, %108
  %109 = phi i64 [ 0, %104 ], [ %115, %108 ]
  %110 = phi i64 [ %107, %104 ], [ %113, %108 ]
  %111 = getelementptr inbounds i32, i32* %106, i64 %109
  %112 = load i32, i32* %111, align 4, !tbaa !46
  %113 = add nsw i64 %110, 1
  %114 = getelementptr inbounds i32, i32* %44, i64 %110
  store i32 %112, i32* %114, align 4, !tbaa !46
  %115 = add nuw nsw i64 %109, 1
  %116 = icmp eq i64 %115, %58
  br i1 %116, label %117, label %108, !llvm.loop !160

117:                                              ; preds = %108
  %118 = trunc i64 %113 to i32
  br label %119

119:                                              ; preds = %117, %101
  %120 = phi i32 [ %103, %101 ], [ %118, %117 ]
  %121 = add nuw nsw i64 %102, 1
  %122 = icmp eq i64 %121, %57
  br i1 %122, label %123, label %101, !llvm.loop !161

123:                                              ; preds = %119, %50
  %124 = phi i32 [ %51, %50 ], [ %120, %119 ]
  %125 = icmp sgt i32 %124, 0
  br i1 %125, label %126, label %134

126:                                              ; preds = %123
  %127 = sext i32 %124 to i64
  %128 = call { i64, i1 } @llvm.umul.with.overflow.i64(i64 %127, i64 4)
  %129 = extractvalue { i64, i1 } %128, 1
  %130 = extractvalue { i64, i1 } %128, 0
  %131 = select i1 %129, i64 -1, i64 %130
  %132 = call noalias nonnull i8* @_Znam(i64 %131) #23
  %133 = bitcast i8* %132 to i32*
  br label %134

134:                                              ; preds = %126, %123
  %135 = phi i32* [ %133, %126 ], [ null, %123 ]
  %136 = icmp sgt i32 %124, 0
  br i1 %136, label %137, label %145

137:                                              ; preds = %134
  %138 = zext i32 %124 to i64
  br label %139

139:                                              ; preds = %137, %139
  %140 = phi i64 [ 0, %137 ], [ %143, %139 ]
  %141 = getelementptr inbounds i32, i32* %135, i64 %140
  %142 = trunc i64 %140 to i32
  store i32 %142, i32* %141, align 4, !tbaa !46
  %143 = add nuw nsw i64 %140, 1
  %144 = icmp eq i64 %143, %138
  br i1 %144, label %145, label %139, !llvm.loop !162

145:                                              ; preds = %139, %134
  %146 = add nsw i32 %124, -1
  call void @_ZN12LLNL_FEI_Fei8IntSort2EPiS0_ii(i32* %44, i32* %135, i32 0, i32 %146)
  store i32* %44, i32** %1, align 8, !tbaa !13
  store i32* %135, i32** %2, align 8, !tbaa !13
  store i32 %124, i32* %3, align 4, !tbaa !46
  store i32 %32, i32* %4, align 4, !tbaa !46
  ret void
}

; Function Attrs: mustprogress uwtable
define dso_local void @_ZN12LLNL_FEI_Fei19findSharedNodeProcsEPiS0_iiPS0_(%class.LLNL_FEI_Fei* nonnull readonly align 8 dereferenceable(312) %0, i32* %1, i32* nocapture %2, i32 %3, i32 %4, i32** nocapture %5) local_unnamed_addr #4 align 2 {
  %7 = alloca i32, align 4
  %8 = bitcast i32* %7 to i8*
  call void @llvm.lifetime.start.p0i8(i64 4, i8* nonnull %8) #25
  %9 = getelementptr inbounds %class.LLNL_FEI_Fei, %class.LLNL_FEI_Fei* %0, i64 0, i32 0
  %10 = load i32, i32* %9, align 8, !tbaa !59
  %11 = call i32 @MPI_Comm_size(i32 %10, i32* nonnull %7)
  %12 = getelementptr inbounds %class.LLNL_FEI_Fei, %class.LLNL_FEI_Fei* %0, i64 0, i32 18
  %13 = load i32, i32* %12, align 8, !tbaa !62
  %14 = icmp eq i32 %13, 0
  br i1 %14, label %15, label %16

15:                                               ; preds = %6
  store i32* null, i32** %5, align 8, !tbaa !13
  br label %180

16:                                               ; preds = %6
  %17 = sext i32 %13 to i64
  %18 = call { i64, i1 } @llvm.umul.with.overflow.i64(i64 %17, i64 4)
  %19 = extractvalue { i64, i1 } %18, 1
  %20 = extractvalue { i64, i1 } %18, 0
  %21 = select i1 %19, i64 -1, i64 %20
  %22 = call noalias nonnull i8* @_Znam(i64 %21) #23
  %23 = bitcast i8* %22 to i32*
  %24 = call noalias nonnull i8* @_Znam(i64 %21) #23
  %25 = bitcast i8* %24 to i32*
  %26 = sub nsw i32 %3, %4
  %27 = getelementptr inbounds %class.LLNL_FEI_Fei, %class.LLNL_FEI_Fei* %0, i64 0, i32 19
  %28 = getelementptr inbounds %class.LLNL_FEI_Fei, %class.LLNL_FEI_Fei* %0, i64 0, i32 21
  %29 = getelementptr inbounds %class.LLNL_FEI_Fei, %class.LLNL_FEI_Fei* %0, i64 0, i32 1
  %30 = load i32, i32* %12, align 8, !tbaa !62
  %31 = icmp sgt i32 %30, 0
  br i1 %31, label %32, label %116

32:                                               ; preds = %16, %109
  %33 = phi i64 [ %112, %109 ], [ 0, %16 ]
  %34 = load i32*, i32** %27, align 8, !tbaa !82
  %35 = getelementptr inbounds i32, i32* %34, i64 %33
  %36 = load i32, i32* %35, align 4, !tbaa !46
  %37 = call i32 @hypre_BinarySearch(i32* %1, i32 %36, i32 %3)
  %38 = getelementptr inbounds i32, i32* %25, i64 %33
  store i32 -1, i32* %38, align 4, !tbaa !46
  %39 = load i32**, i32*** %28, align 8, !tbaa !88
  %40 = getelementptr inbounds i32*, i32** %39, i64 %33
  %41 = load i32*, i32** %40, align 8, !tbaa !13
  %42 = load i32, i32* %41, align 4, !tbaa !46
  %43 = icmp sgt i32 %37, -1
  br i1 %43, label %44, label %107

44:                                               ; preds = %32
  %45 = icmp eq i32 %37, 0
  br i1 %45, label %67, label %46

46:                                               ; preds = %44
  %47 = sext i32 %37 to i64
  br label %48

48:                                               ; preds = %46, %58
  %49 = phi i64 [ %47, %46 ], [ %51, %58 ]
  %50 = phi i32 [ %37, %46 ], [ %65, %58 ]
  %51 = add nsw i64 %49, -1
  %52 = getelementptr inbounds i32, i32* %1, i64 %51
  %53 = load i32, i32* %52, align 4, !tbaa !46
  %54 = sext i32 %50 to i64
  %55 = getelementptr inbounds i32, i32* %1, i64 %54
  %56 = load i32, i32* %55, align 4, !tbaa !46
  %57 = icmp eq i32 %53, %56
  br i1 %57, label %58, label %67

58:                                               ; preds = %48
  %59 = getelementptr inbounds i32, i32* %2, i64 %51
  %60 = load i32, i32* %59, align 4, !tbaa !46
  %61 = getelementptr inbounds i32, i32* %2, i64 %54
  %62 = load i32, i32* %61, align 4, !tbaa !46
  %63 = icmp slt i32 %60, %62
  %64 = trunc i64 %51 to i32
  %65 = select i1 %63, i32 %64, i32 %50
  %66 = icmp sgt i64 %49, 1
  br i1 %66, label %48, label %67, !llvm.loop !163

67:                                               ; preds = %58, %48, %44
  %68 = phi i32 [ %37, %44 ], [ %65, %58 ], [ %50, %48 ]
  %69 = add nsw i32 %68, 1
  %70 = icmp slt i32 %69, %3
  br i1 %70, label %71, label %94

71:                                               ; preds = %67
  %72 = add i32 %68, 1
  %73 = sext i32 %72 to i64
  br label %74

74:                                               ; preds = %71, %83
  %75 = phi i64 [ %73, %71 ], [ %91, %83 ]
  %76 = phi i32 [ %68, %71 ], [ %90, %83 ]
  %77 = getelementptr inbounds i32, i32* %1, i64 %75
  %78 = load i32, i32* %77, align 4, !tbaa !46
  %79 = sext i32 %76 to i64
  %80 = getelementptr inbounds i32, i32* %1, i64 %79
  %81 = load i32, i32* %80, align 4, !tbaa !46
  %82 = icmp eq i32 %78, %81
  br i1 %82, label %83, label %94

83:                                               ; preds = %74
  %84 = getelementptr inbounds i32, i32* %2, i64 %75
  %85 = load i32, i32* %84, align 4, !tbaa !46
  %86 = getelementptr inbounds i32, i32* %2, i64 %79
  %87 = load i32, i32* %86, align 4, !tbaa !46
  %88 = icmp slt i32 %85, %87
  %89 = trunc i64 %75 to i32
  %90 = select i1 %88, i32 %89, i32 %76
  %91 = add nsw i64 %75, 1
  %92 = trunc i64 %91 to i32
  %93 = icmp eq i32 %92, %3
  br i1 %93, label %94, label %74, !llvm.loop !164

94:                                               ; preds = %83, %74, %67
  %95 = phi i32 [ %68, %67 ], [ %90, %83 ], [ %76, %74 ]
  store i32 %95, i32* %38, align 4, !tbaa !46
  %96 = sext i32 %95 to i64
  %97 = getelementptr inbounds i32, i32* %2, i64 %96
  %98 = load i32, i32* %97, align 4, !tbaa !46
  %99 = icmp slt i32 %98, %26
  %100 = load i32, i32* %29, align 4
  %101 = icmp slt i32 %100, %42
  %102 = select i1 %99, i1 %101, i1 false
  %103 = select i1 %102, i32 %100, i32 %42
  %104 = load i32, i32* %7, align 4
  %105 = select i1 %99, i32 0, i32 %104
  %106 = add nsw i32 %103, %105
  br label %109

107:                                              ; preds = %32
  %108 = xor i32 %42, -1
  br label %109

109:                                              ; preds = %94, %107
  %110 = phi i32 [ %106, %94 ], [ %108, %107 ]
  %111 = getelementptr inbounds i32, i32* %23, i64 %33
  store i32 %110, i32* %111, align 4, !tbaa !46
  %112 = add nuw nsw i64 %33, 1
  %113 = load i32, i32* %12, align 8, !tbaa !62
  %114 = sext i32 %113 to i64
  %115 = icmp slt i64 %112, %114
  br i1 %115, label %32, label %116, !llvm.loop !165

116:                                              ; preds = %109, %16
  call void @_ZN12LLNL_FEI_Fei20findSharedNodeOwnersEPi(%class.LLNL_FEI_Fei* nonnull align 8 dereferenceable(312) %0, i32* nonnull %23)
  %117 = getelementptr inbounds %class.LLNL_FEI_Fei, %class.LLNL_FEI_Fei* %0, i64 0, i32 1
  %118 = load i32, i32* %12, align 8, !tbaa !62
  %119 = icmp sgt i32 %118, 0
  br i1 %119, label %120, label %178

120:                                              ; preds = %116, %173
  %121 = phi i64 [ %174, %173 ], [ 0, %116 ]
  %122 = getelementptr inbounds i32, i32* %23, i64 %121
  %123 = load i32, i32* %122, align 4, !tbaa !46
  %124 = load i32, i32* %117, align 4, !tbaa !68
  %125 = icmp eq i32 %123, %124
  br i1 %125, label %173, label %126

126:                                              ; preds = %120
  %127 = getelementptr inbounds i32, i32* %25, i64 %121
  %128 = load i32, i32* %127, align 4, !tbaa !46
  %129 = icmp sgt i32 %128, -1
  br i1 %129, label %130, label %173

130:                                              ; preds = %126
  %131 = sext i32 %128 to i64
  %132 = getelementptr inbounds i32, i32* %2, i64 %131
  %133 = load i32, i32* %132, align 4, !tbaa !46
  %134 = icmp sgt i32 %133, -1
  br i1 %134, label %135, label %173

135:                                              ; preds = %130
  %136 = getelementptr inbounds i32, i32* %1, i64 %131
  %137 = icmp sgt i32 %128, 0
  br i1 %137, label %138, label %150

138:                                              ; preds = %135, %145
  %139 = phi i64 [ %140, %145 ], [ %131, %135 ]
  %140 = add nsw i64 %139, -1
  %141 = getelementptr inbounds i32, i32* %1, i64 %140
  %142 = load i32, i32* %141, align 4, !tbaa !46
  %143 = load i32, i32* %136, align 4, !tbaa !46
  %144 = icmp eq i32 %142, %143
  br i1 %144, label %145, label %150

145:                                              ; preds = %138
  %146 = getelementptr inbounds i32, i32* %2, i64 %140
  %147 = load i32, i32* %146, align 4, !tbaa !46
  %148 = xor i32 %147, -1
  store i32 %148, i32* %146, align 4, !tbaa !46
  %149 = icmp sgt i64 %139, 1
  br i1 %149, label %138, label %150, !llvm.loop !166

150:                                              ; preds = %145, %138, %135
  %151 = getelementptr inbounds i32, i32* %1, i64 %131
  %152 = add nsw i32 %128, 1
  %153 = icmp slt i32 %152, %3
  br i1 %153, label %154, label %170

154:                                              ; preds = %150
  %155 = add i32 %128, 1
  %156 = sext i32 %155 to i64
  br label %157

157:                                              ; preds = %154, %163
  %158 = phi i64 [ %156, %154 ], [ %167, %163 ]
  %159 = getelementptr inbounds i32, i32* %1, i64 %158
  %160 = load i32, i32* %159, align 4, !tbaa !46
  %161 = load i32, i32* %151, align 4, !tbaa !46
  %162 = icmp eq i32 %160, %161
  br i1 %162, label %163, label %170

163:                                              ; preds = %157
  %164 = getelementptr inbounds i32, i32* %2, i64 %158
  %165 = load i32, i32* %164, align 4, !tbaa !46
  %166 = xor i32 %165, -1
  store i32 %166, i32* %164, align 4, !tbaa !46
  %167 = add nsw i64 %158, 1
  %168 = trunc i64 %167 to i32
  %169 = icmp eq i32 %168, %3
  br i1 %169, label %170, label %157, !llvm.loop !167

170:                                              ; preds = %163, %157, %150
  %171 = load i32, i32* %132, align 4, !tbaa !46
  %172 = xor i32 %171, -1
  store i32 %172, i32* %132, align 4, !tbaa !46
  br label %173

173:                                              ; preds = %120, %170, %130, %126
  %174 = add nuw nsw i64 %121, 1
  %175 = load i32, i32* %12, align 8, !tbaa !62
  %176 = sext i32 %175 to i64
  %177 = icmp slt i64 %174, %176
  br i1 %177, label %120, label %178, !llvm.loop !168

178:                                              ; preds = %173, %116
  call void @_ZdaPv(i8* %24) #22
  %179 = bitcast i32** %5 to i8**
  store i8* %22, i8** %179, align 8, !tbaa !13
  br label %180

180:                                              ; preds = %178, %15
  call void @llvm.lifetime.end.p0i8(i64 4, i8* nonnull %8) #25
  ret void
}

declare dso_local i32 @MPI_Allgather(i8*, i32, i32, i8*, i32, i32, i32) local_unnamed_addr #12

; Function Attrs: mustprogress uwtable
define dso_local void @_ZN12LLNL_FEI_Fei16setupCommPatternEPi(%class.LLNL_FEI_Fei* nonnull align 8 dereferenceable(312) %0, i32* nocapture readonly %1) local_unnamed_addr #4 align 2 {
  %3 = alloca %struct.MPI_Status, align 4
  %4 = bitcast %struct.MPI_Status* %3 to i8*
  call void @llvm.lifetime.start.p0i8(i64 20, i8* nonnull %4) #25
  %5 = getelementptr inbounds %class.LLNL_FEI_Fei, %class.LLNL_FEI_Fei* %0, i64 0, i32 6
  %6 = load i32, i32* %5, align 4, !tbaa !97
  %7 = icmp sgt i32 %6, 0
  br i1 %7, label %8, label %16

8:                                                ; preds = %2
  %9 = sext i32 %6 to i64
  %10 = call { i64, i1 } @llvm.umul.with.overflow.i64(i64 %9, i64 4)
  %11 = extractvalue { i64, i1 } %10, 1
  %12 = extractvalue { i64, i1 } %10, 0
  %13 = select i1 %11, i64 -1, i64 %12
  %14 = call noalias nonnull i8* @_Znam(i64 %13) #23
  %15 = bitcast i8* %14 to i32*
  br label %16

16:                                               ; preds = %8, %2
  %17 = phi i32* [ %15, %8 ], [ null, %2 ]
  br i1 %7, label %18, label %26

18:                                               ; preds = %16
  %19 = sext i32 %6 to i64
  %20 = call { i64, i1 } @llvm.umul.with.overflow.i64(i64 %19, i64 4)
  %21 = extractvalue { i64, i1 } %20, 1
  %22 = extractvalue { i64, i1 } %20, 0
  %23 = select i1 %21, i64 -1, i64 %22
  %24 = call noalias nonnull i8* @_Znam(i64 %23) #23
  %25 = bitcast i8* %24 to i32*
  br label %26

26:                                               ; preds = %18, %16
  %27 = phi i32* [ %25, %18 ], [ null, %16 ]
  %28 = bitcast i32* %27 to i8*
  %29 = getelementptr inbounds %class.LLNL_FEI_Fei, %class.LLNL_FEI_Fei* %0, i64 0, i32 18
  %30 = load i32, i32* %29, align 8, !tbaa !62
  %31 = icmp sgt i32 %30, 0
  br i1 %31, label %32, label %40

32:                                               ; preds = %26
  %33 = sext i32 %30 to i64
  %34 = call { i64, i1 } @llvm.umul.with.overflow.i64(i64 %33, i64 4)
  %35 = extractvalue { i64, i1 } %34, 1
  %36 = extractvalue { i64, i1 } %34, 0
  %37 = select i1 %35, i64 -1, i64 %36
  %38 = call noalias nonnull i8* @_Znam(i64 %37) #23
  %39 = bitcast i8* %38 to i32*
  br label %40

40:                                               ; preds = %32, %26
  %41 = phi i32* [ %39, %32 ], [ null, %26 ]
  %42 = getelementptr inbounds %class.LLNL_FEI_Fei, %class.LLNL_FEI_Fei* %0, i64 0, i32 10
  %43 = load i32*, i32** %42, align 8, !tbaa !100
  %44 = getelementptr inbounds %class.LLNL_FEI_Fei, %class.LLNL_FEI_Fei* %0, i64 0, i32 1
  %45 = load i32, i32* %44, align 4, !tbaa !68
  %46 = sext i32 %45 to i64
  %47 = getelementptr inbounds i32, i32* %43, i64 %46
  %48 = load i32, i32* %47, align 4, !tbaa !46
  %49 = getelementptr inbounds %class.LLNL_FEI_Fei, %class.LLNL_FEI_Fei* %0, i64 0, i32 19
  %50 = getelementptr inbounds %class.LLNL_FEI_Fei, %class.LLNL_FEI_Fei* %0, i64 0, i32 8
  %51 = getelementptr inbounds %class.LLNL_FEI_Fei, %class.LLNL_FEI_Fei* %0, i64 0, i32 5
  %52 = getelementptr inbounds %class.LLNL_FEI_Fei, %class.LLNL_FEI_Fei* %0, i64 0, i32 8
  %53 = getelementptr inbounds %class.LLNL_FEI_Fei, %class.LLNL_FEI_Fei* %0, i64 0, i32 5
  %54 = load i32, i32* %29, align 8, !tbaa !62
  %55 = icmp sgt i32 %54, 0
  br i1 %55, label %56, label %92

56:                                               ; preds = %40, %87
  %57 = phi i64 [ %88, %87 ], [ 0, %40 ]
  %58 = load i32*, i32** %49, align 8, !tbaa !82
  %59 = getelementptr inbounds i32, i32* %58, i64 %57
  %60 = load i32, i32* %59, align 4, !tbaa !46
  %61 = load i32, i32* %5, align 4, !tbaa !97
  %62 = icmp sgt i32 %61, 0
  br i1 %62, label %63, label %69

63:                                               ; preds = %56
  %64 = load i32*, i32** %50, align 8, !tbaa !98
  %65 = load i32, i32* %51, align 8, !tbaa !96
  %66 = sext i32 %65 to i64
  %67 = getelementptr inbounds i32, i32* %64, i64 %66
  %68 = call i32 @hypre_BinarySearch(i32* %67, i32 %60, i32 %61)
  br label %69

69:                                               ; preds = %63, %56
  %70 = phi i32 [ %68, %63 ], [ -1, %56 ]
  %71 = icmp sgt i32 %70, -1
  br i1 %71, label %72, label %79

72:                                               ; preds = %69
  %73 = getelementptr inbounds i32, i32* %41, i64 %57
  store i32 1, i32* %73, align 4, !tbaa !46
  %74 = getelementptr inbounds i32, i32* %1, i64 %57
  %75 = load i32, i32* %74, align 4, !tbaa !46
  %76 = sext i32 %70 to i64
  %77 = getelementptr inbounds i32, i32* %17, i64 %76
  store i32 %75, i32* %77, align 4, !tbaa !46
  %78 = getelementptr inbounds i32, i32* %27, i64 %76
  store i32 %75, i32* %78, align 4, !tbaa !46
  br label %87

79:                                               ; preds = %69
  %80 = load i32*, i32** %52, align 8, !tbaa !98
  %81 = load i32, i32* %53, align 8, !tbaa !96
  %82 = call i32 @hypre_BinarySearch(i32* %80, i32 %60, i32 %81)
  %83 = icmp sgt i32 %82, -1
  %84 = getelementptr inbounds i32, i32* %41, i64 %57
  br i1 %83, label %85, label %86

85:                                               ; preds = %79
  store i32 0, i32* %84, align 4, !tbaa !46
  br label %87

86:                                               ; preds = %79
  store i32 -1, i32* %84, align 4, !tbaa !46
  br label %87

87:                                               ; preds = %72, %86, %85
  %88 = add nuw nsw i64 %57, 1
  %89 = load i32, i32* %29, align 8, !tbaa !62
  %90 = sext i32 %89 to i64
  %91 = icmp slt i64 %88, %90
  br i1 %91, label %56, label %92, !llvm.loop !169

92:                                               ; preds = %87, %40
  %93 = load i32, i32* %5, align 4, !tbaa !97
  %94 = icmp sgt i32 %93, 0
  br i1 %94, label %95, label %97

95:                                               ; preds = %92
  %96 = add nsw i32 %93, -1
  call void @_ZN12LLNL_FEI_Fei7IntSortEPiii(%class.LLNL_FEI_Fei* nonnull align 8 dereferenceable(312) %0, i32* %27, i32 0, i32 %96)
  br label %97

97:                                               ; preds = %95, %92
  %98 = load i32, i32* %5, align 4, !tbaa !97
  %99 = icmp sgt i32 %98, 0
  %100 = zext i1 %99 to i32
  %101 = icmp sgt i32 %98, 1
  br i1 %101, label %102, label %122

102:                                              ; preds = %97
  %103 = zext i32 %98 to i64
  br label %104

104:                                              ; preds = %102, %118
  %105 = phi i64 [ 1, %102 ], [ %120, %118 ]
  %106 = phi i32 [ %100, %102 ], [ %119, %118 ]
  %107 = getelementptr inbounds i32, i32* %27, i64 %105
  %108 = load i32, i32* %107, align 4, !tbaa !46
  %109 = add nsw i32 %106, -1
  %110 = sext i32 %109 to i64
  %111 = getelementptr inbounds i32, i32* %27, i64 %110
  %112 = load i32, i32* %111, align 4, !tbaa !46
  %113 = icmp eq i32 %108, %112
  br i1 %113, label %118, label %114

114:                                              ; preds = %104
  %115 = add nsw i32 %106, 1
  %116 = sext i32 %106 to i64
  %117 = getelementptr inbounds i32, i32* %27, i64 %116
  store i32 %108, i32* %117, align 4, !tbaa !46
  br label %118

118:                                              ; preds = %104, %114
  %119 = phi i32 [ %115, %114 ], [ %106, %104 ]
  %120 = add nuw nsw i64 %105, 1
  %121 = icmp eq i64 %120, %103
  br i1 %121, label %122, label %104, !llvm.loop !170

122:                                              ; preds = %118, %97
  %123 = phi i32 [ %100, %97 ], [ %119, %118 ]
  %124 = icmp sgt i32 %123, 0
  br i1 %124, label %125, label %193

125:                                              ; preds = %122
  %126 = sext i32 %123 to i64
  %127 = call { i64, i1 } @llvm.umul.with.overflow.i64(i64 %126, i64 4)
  %128 = extractvalue { i64, i1 } %127, 1
  %129 = extractvalue { i64, i1 } %127, 0
  %130 = select i1 %128, i64 -1, i64 %129
  %131 = call noalias nonnull i8* @_Znam(i64 %130) #23
  %132 = zext i32 %123 to i64
  %133 = shl nuw nsw i64 %132, 2
  call void @llvm.memcpy.p0i8.p0i8.i64(i8* nonnull align 4 %131, i8* align 4 %28, i64 %133, i1 false)
  %134 = bitcast i8* %131 to i32*
  %135 = call noalias nonnull i8* @_Znam(i64 %130) #23
  %136 = bitcast i8* %135 to i32*
  %137 = zext i32 %123 to i64
  %138 = shl nuw nsw i64 %137, 2
  call void @llvm.memset.p0i8.i64(i8* nonnull align 4 %135, i8 0, i64 %138, i1 false)
  %139 = getelementptr inbounds %class.LLNL_FEI_Fei, %class.LLNL_FEI_Fei* %0, i64 0, i32 19
  %140 = getelementptr inbounds %class.LLNL_FEI_Fei, %class.LLNL_FEI_Fei* %0, i64 0, i32 8
  %141 = getelementptr inbounds %class.LLNL_FEI_Fei, %class.LLNL_FEI_Fei* %0, i64 0, i32 5
  %142 = load i32, i32* %29, align 8, !tbaa !62
  %143 = icmp sgt i32 %142, 0
  br i1 %143, label %148, label %144

144:                                              ; preds = %171, %125
  %145 = icmp sgt i32 %123, 0
  br i1 %145, label %146, label %184

146:                                              ; preds = %144
  %147 = zext i32 %123 to i64
  br label %176

148:                                              ; preds = %125, %171
  %149 = phi i64 [ %172, %171 ], [ 0, %125 ]
  %150 = getelementptr inbounds i32, i32* %41, i64 %149
  %151 = load i32, i32* %150, align 4, !tbaa !46
  %152 = icmp eq i32 %151, 1
  br i1 %152, label %153, label %171

153:                                              ; preds = %148
  %154 = load i32*, i32** %139, align 8, !tbaa !82
  %155 = getelementptr inbounds i32, i32* %154, i64 %149
  %156 = load i32, i32* %155, align 4, !tbaa !46
  %157 = load i32*, i32** %140, align 8, !tbaa !98
  %158 = load i32, i32* %141, align 8, !tbaa !96
  %159 = sext i32 %158 to i64
  %160 = getelementptr inbounds i32, i32* %157, i64 %159
  %161 = load i32, i32* %5, align 4, !tbaa !97
  %162 = call i32 @hypre_BinarySearch(i32* %160, i32 %156, i32 %161)
  %163 = sext i32 %162 to i64
  %164 = getelementptr inbounds i32, i32* %17, i64 %163
  %165 = load i32, i32* %164, align 4, !tbaa !46
  %166 = call i32 @hypre_BinarySearch(i32* nonnull %134, i32 %165, i32 %123)
  %167 = sext i32 %166 to i64
  %168 = getelementptr inbounds i32, i32* %136, i64 %167
  %169 = load i32, i32* %168, align 4, !tbaa !46
  %170 = add nsw i32 %169, 1
  store i32 %170, i32* %168, align 4, !tbaa !46
  br label %171

171:                                              ; preds = %148, %153
  %172 = add nuw nsw i64 %149, 1
  %173 = load i32, i32* %29, align 8, !tbaa !62
  %174 = sext i32 %173 to i64
  %175 = icmp slt i64 %172, %174
  br i1 %175, label %148, label %144, !llvm.loop !171

176:                                              ; preds = %146, %176
  %177 = phi i64 [ 0, %146 ], [ %182, %176 ]
  %178 = phi i32 [ 0, %146 ], [ %181, %176 ]
  %179 = getelementptr inbounds i32, i32* %136, i64 %177
  %180 = load i32, i32* %179, align 4, !tbaa !46
  %181 = add nsw i32 %180, %178
  %182 = add nuw nsw i64 %177, 1
  %183 = icmp eq i64 %182, %147
  br i1 %183, label %184, label %176, !llvm.loop !172

184:                                              ; preds = %176, %144
  %185 = phi i32 [ 0, %144 ], [ %181, %176 ]
  %186 = sext i32 %185 to i64
  %187 = call { i64, i1 } @llvm.umul.with.overflow.i64(i64 %186, i64 4)
  %188 = extractvalue { i64, i1 } %187, 1
  %189 = extractvalue { i64, i1 } %187, 0
  %190 = select i1 %188, i64 -1, i64 %189
  %191 = call noalias nonnull i8* @_Znam(i64 %190) #23
  %192 = bitcast i8* %191 to i32*
  br label %193

193:                                              ; preds = %184, %122
  %194 = phi i32* [ %136, %184 ], [ null, %122 ]
  %195 = phi i32* [ %134, %184 ], [ null, %122 ]
  %196 = phi i32* [ %192, %184 ], [ null, %122 ]
  %197 = bitcast i32* %194 to i8*
  %198 = icmp eq i32* %27, null
  br i1 %198, label %201, label %199

199:                                              ; preds = %193
  %200 = bitcast i32* %27 to i8*
  call void @_ZdaPv(i8* %200) #22
  br label %201

201:                                              ; preds = %199, %193
  %202 = load i32, i32* %29, align 8, !tbaa !62
  %203 = getelementptr inbounds %class.LLNL_FEI_Fei, %class.LLNL_FEI_Fei* %0, i64 0, i32 20
  %204 = load i32*, i32** %203, align 8
  %205 = icmp sgt i32 %202, 0
  br i1 %205, label %206, label %222

