; ModuleID = '/hypre/src/FEI_mv/fei-hypre/FEI_HYPRE_Impl.cxx'
source_filename = "/hypre/src/FEI_mv/fei-hypre/FEI_HYPRE_Impl.cxx"
target datalayout = "e-m:e-p270:32:32-p271:32:32-p272:64:64-i64:64-f80:128-n8:16:32:64-S128"
target triple = "x86_64-unknown-linux-gnu"

%class.FEI_HYPRE_Elem_Block = type { i32, i32, i32, i32*, i32**, i32*, i32*, double**, double**, double**, i32, i32, double*, double* }
%class.FEI_HYPRE_Impl = type { i32, i32, i32, i32, %class.FEI_HYPRE_Elem_Block**, i32, i32, i32, i32*, i32*, i32*, i32, i32*, i32*, i32**, i32, i32*, i32*, i32**, i32, i32*, i32*, i32**, i32, i32, double, i32, i32, double, i32, i32*, i32*, double*, i32*, i32*, double*, double*, i32, i32*, double**, double**, double**, double*, double*, i32, i32, double, double, double, double }
%struct.MPI_Status = type { i32, i32, i32, i32, i32 }
%struct._IO_FILE = type { i32, i8*, i8*, i8*, i8*, i8*, i8*, i8*, i8*, i8*, i8*, i8*, %struct._IO_marker*, %struct._IO_FILE*, i32, i32, i64, i16, i8, [1 x i8], i8*, i64, %struct._IO_codecvt*, %struct._IO_wide_data*, %struct._IO_FILE*, i8*, i64, i32, [20 x i8] }
%struct._IO_marker = type opaque
%struct._IO_codecvt = type opaque
%struct._IO_wide_data = type opaque
%struct.superlu_options_t = type { i32, i32, i32, i32, i32, i32, i32, double, i32, i32, i32, i32, i32, i32 }
%struct.SuperLUStat_t = type { i32*, double*, float*, i32, i32 }
%struct.SuperMatrix = type { i32, i32, i32, i32, i32, i8* }

@.str.2 = private unnamed_addr constant [33 x i8] c"%4d : FEI_HYPRE_Impl destructor\0A\00", align 1
@.str.3 = private unnamed_addr constant [3 x i8] c"%s\00", align 1
@.str.4 = private unnamed_addr constant [12 x i8] c"outputLevel\00", align 1
@.str.5 = private unnamed_addr constant [6 x i8] c"%s %d\00", align 1
@.str.6 = private unnamed_addr constant [9 x i8] c"setDebug\00", align 1
@.str.7 = private unnamed_addr constant [6 x i8] c"%s %s\00", align 1
@.str.8 = private unnamed_addr constant [9 x i8] c"printMat\00", align 1
@.str.9 = private unnamed_addr constant [9 x i8] c"gmresDim\00", align 1
@.str.10 = private unnamed_addr constant [14 x i8] c"maxIterations\00", align 1
@.str.11 = private unnamed_addr constant [10 x i8] c"tolerance\00", align 1
@.str.12 = private unnamed_addr constant [7 x i8] c"%s %lg\00", align 1
@.str.13 = private unnamed_addr constant [9 x i8] c"stopCrit\00", align 1
@.str.14 = private unnamed_addr constant [9 x i8] c"absolute\00", align 1
@.str.15 = private unnamed_addr constant [9 x i8] c"relative\00", align 1
@.str.16 = private unnamed_addr constant [7 x i8] c"solver\00", align 1
@.str.17 = private unnamed_addr constant [3 x i8] c"cg\00", align 1
@.str.18 = private unnamed_addr constant [6 x i8] c"gmres\00", align 1
@.str.20 = private unnamed_addr constant [9 x i8] c"bicgstab\00", align 1
@.str.22 = private unnamed_addr constant [51 x i8] c"FEI_HYPRE_Impl WARNING : SuperLU not supported on \00", align 1
@.str.24 = private unnamed_addr constant [15 x i8] c"preconditioner\00", align 1
@.str.25 = private unnamed_addr constant [5 x i8] c"diag\00", align 1
@.str.26 = private unnamed_addr constant [9 x i8] c"diagonal\00", align 1
@.str.28 = private unnamed_addr constant [60 x i8] c"%4d : FEI_HYPRE_Impl::initFields WARNING -  numFields != 1.\00", align 1
@.str.30 = private unnamed_addr constant [48 x i8] c"%4d : FEI_HYPRE_Impl::initElemBlock begins... \0A\00", align 1
@.str.31 = private unnamed_addr constant [35 x i8] c"               elemBlockID  = %d \0A\00", align 1
@.str.32 = private unnamed_addr constant [35 x i8] c"               numElements  = %d \0A\00", align 1
@.str.33 = private unnamed_addr constant [35 x i8] c"               nodesPerElem = %d \0A\00", align 1
@.str.34 = private unnamed_addr constant [37 x i8] c"               Node %d has fields : \00", align 1
@.str.35 = private unnamed_addr constant [4 x i8] c"%d \00", align 1
@.str.37 = private unnamed_addr constant [42 x i8] c"               Element field IDs %d = %d\0A\00", align 1
@.str.38 = private unnamed_addr constant [45 x i8] c"%4d : FEI_HYPRE_Impl::initElemBlock ERROR - \00", align 1
@.str.40 = private unnamed_addr constant [43 x i8] c"%4d : FEI_HYPRE_Impl::initElemBlock ends.\0A\00", align 1
@.str.41 = private unnamed_addr constant [50 x i8] c"%4d : FEI_HYPRE_Impl::initSharedNodes begins... \0A\00", align 1
@.str.42 = private unnamed_addr constant [46 x i8] c"%4d : FEI_HYPRE_Impl::initSharedNodes ends. \0A\00", align 1
@.str.43 = private unnamed_addr constant [45 x i8] c"%4d : FEI_HYPRE_Impl::resetSystem begins...\0A\00", align 1
@.str.44 = private unnamed_addr constant [41 x i8] c"%4d : FEI_HYPRE_Impl::resetSystem ends.\0A\00", align 1
@.str.45 = private unnamed_addr constant [45 x i8] c"%4d : FEI_HYPRE_Impl::resetMatrix begins...\0A\00", align 1
@.str.46 = private unnamed_addr constant [41 x i8] c"%4d : FEI_HYPRE_Impl::resetMatrix ends.\0A\00", align 1
@.str.47 = private unnamed_addr constant [48 x i8] c"%4d : FEI_HYPRE_Impl::resetRHSVector begins...\0A\00", align 1
@.str.48 = private unnamed_addr constant [44 x i8] c"%4d : FEI_HYPRE_Impl::resetRHSVector ends.\0A\00", align 1
@.str.49 = private unnamed_addr constant [51 x i8] c"%4d : FEI_HYPRE_Impl::resetInitialGuess begins...\0A\00", align 1
@.str.50 = private unnamed_addr constant [52 x i8] c"%4d : FEI_HYPRE_Impl::resetInitialGuess ends (%e).\0A\00", align 1
@.str.51 = private unnamed_addr constant [49 x i8] c"%4d : FEI_HYPRE_Impl::loadNodeBCs begins...(%d)\0A\00", align 1
@.str.52 = private unnamed_addr constant [41 x i8] c"%4d : FEI_HYPRE_Impl::loadNodeBCs ends.\0A\00", align 1
@.str.53 = private unnamed_addr constant [48 x i8] c"%4d : FEI_HYPRE_Impl::loadComplete begins.... \0A\00", align 1
@.str.54 = private unnamed_addr constant [55 x i8] c"%4d : FEI_HYPRE_Impl::loadComplete - nLocalNodes = %d\0A\00", align 1
@.str.55 = private unnamed_addr constant [55 x i8] c"%4d : FEI_HYPRE_Impl::loadComplete - numExtNodes = %d\0A\00", align 1
@.str.56 = private unnamed_addr constant [43 x i8] c"%4d : FEI_HYPRE_Impl::loadComplete ends. \0A\00", align 1
@.str.59 = private unnamed_addr constant [25 x i8] c"\09maxIterations     = %d\0A\00", align 1
@.str.60 = private unnamed_addr constant [25 x i8] c"\09tolerance         = %e\0A\00", align 1
@.str.62 = private unnamed_addr constant [24 x i8] c"\09\09GMRES dimension = %d\0A\00", align 1
@.str.66 = private unnamed_addr constant [53 x i8] c"\09FEI_HYPRE local solver : number of iterations = %d\0A\00", align 1
@.str.67 = private unnamed_addr constant [53 x i8] c"\09FEI_HYPRE local solver : final residual norm  = %e\0A\00", align 1
@.str.68 = private unnamed_addr constant [53 x i8] c"\09FEI_HYPRE local FEI    : average load  time   = %e\0A\00", align 1
@.str.69 = private unnamed_addr constant [53 x i8] c"\09FEI_HYPRE local FEI    : average solve time   = %e\0A\00", align 1
@.str.70 = private unnamed_addr constant [57 x i8] c"%4d : FEI_HYPRE_Impl::getNumBlockActNodes blockID = %d.\0A\00", align 1
@.str.71 = private unnamed_addr constant [57 x i8] c"%4d : FEI_HYPRE_Impl::getNumBlockActNodes numNodes = %d\0A\00", align 1
@.str.72 = private unnamed_addr constant [50 x i8] c"%4d : FEI_HYPRE_Impl::getNumBlockActNodes ERROR -\00", align 1
@.str.74 = private unnamed_addr constant [55 x i8] c"%4d : FEI_HYPRE_Impl::getNumBlockActEqns blockID = %d\0A\00", align 1
@.str.75 = private unnamed_addr constant [55 x i8] c"%4d : FEI_HYPRE_Impl::getNumBlockActEqns numEqns = %d\0A\00", align 1
@.str.76 = private unnamed_addr constant [56 x i8] c"%4d : FEI_HYPRE_Impl::getBlockNodeIDList blockID  = %d\0A\00", align 1
@.str.77 = private unnamed_addr constant [56 x i8] c"%4d : FEI_HYPRE_Impl::getBlockNodeIDList numNodes = %d\0A\00", align 1
@.str.78 = private unnamed_addr constant [56 x i8] c"%4d : FEI_HYPRE_Impl::getBlockNodeIDList ERROR - nNodes\00", align 1
@.str.80 = private unnamed_addr constant [49 x i8] c"%4d : FEI_HYPRE_Impl::getBlockNodeIDList ERROR -\00", align 1
@.str.82 = private unnamed_addr constant [27 x i8] c" nNodes mismatch (%d,%d).\0A\00", align 1
@.str.83 = private unnamed_addr constant [58 x i8] c"%4d : FEI_HYPRE_Impl::getBlockNodeSolution blockID  = %d\0A\00", align 1
@.str.84 = private unnamed_addr constant [58 x i8] c"%4d : FEI_HYPRE_Impl::getBlockNodeSolution numNodes = %d\0A\00", align 1
@.str.85 = private unnamed_addr constant [51 x i8] c"%4d : FEI_HYPRE_Impl::getBlockNodeSolution ERROR -\00", align 1
@.str.86 = private unnamed_addr constant [56 x i8] c"%4d : FEI_HYPRE_Impl::buildGlobalMatrixVector begins..\0A\00", align 1
@.str.87 = private unnamed_addr constant [57 x i8] c"%4d : FEI_HYPRE_Impl::buildGlobalMatrixVector mid phase\0A\00", align 1
@.str.89 = private unnamed_addr constant [54 x i8] c"%4d : FEI_HYPRE_Impl::buildGlobalMatrixVector ends. \0A\00", align 1
@.str.90 = private unnamed_addr constant [41 x i8] c"\09FEI_HYPRE_Impl initial rnorm = %e (%e)\0A\00", align 1
@.str.91 = private unnamed_addr constant [50 x i8] c"\09FEI_HYPRE_Impl : iteration %d - rnorm = %e (%e)\0A\00", align 1
@.str.92 = private unnamed_addr constant [36 x i8] c"\09FEI_HYPRE_Impl actual rnorm = %e \0A\00", align 1
@.str.93 = private unnamed_addr constant [45 x i8] c"\09FEI_HYPRE_Impl : iteration %d - rnorm = %e\0A\00", align 1
@.str.94 = private unnamed_addr constant [36 x i8] c"\09FEI_HYPRE_Impl : final rnorm = %e\0A\00", align 1
@.str.95 = private unnamed_addr constant [29 x i8] c"\09FEI_HYPRE_Impl rnorm = %e \0A\00", align 1
@.str.96 = private unnamed_addr constant [7 x i8] c"mat.%d\00", align 1
@.str.97 = private unnamed_addr constant [2 x i8] c"w\00", align 1
@.str.98 = private unnamed_addr constant [11 x i8] c"%6d  %7d \0A\00", align 1
@.str.99 = private unnamed_addr constant [20 x i8] c"%6d  %6d  %25.16e \0A\00", align 1
@.str.100 = private unnamed_addr constant [7 x i8] c"rhs.%d\00", align 1
@.str.101 = private unnamed_addr constant [6 x i8] c"%6d \0A\00", align 1
@.str.102 = private unnamed_addr constant [15 x i8] c"%6d  %25.16e \0A\00", align 1
@.str.103 = private unnamed_addr constant [14 x i8] c"%8d  %25.16e\0A\00", align 1
@str = private unnamed_addr constant [62 x i8] c"FEI_HYPRE_Elem_Block::loadElemInfo ERROR : too many elements.\00", align 1
@str.104 = private unnamed_addr constant [62 x i8] c"FEI_HYPRE_Elem_Block::loadElemMatrix ERROR:too many elements.\00", align 1
@str.105 = private unnamed_addr constant [38 x i8] c"more than 1 proc.  Use GMRES instead.\00", align 1
@str.106 = private unnamed_addr constant [53 x i8] c"FEI_HYPRE_Impl::parameters - invalid preconditioner.\00", align 1
@str.107 = private unnamed_addr constant [15 x i8] c" Take field 0.\00", align 1
@str.108 = private unnamed_addr constant [17 x i8] c"repeated blockID\00", align 1
@str.109 = private unnamed_addr constant [30 x i8] c"ERROR : BC node ID not local.\00", align 1
@str.111 = private unnamed_addr constant [35 x i8] c"\09FEI_HYPRE direct link to SuperLU \00", align 1
@str.112 = private unnamed_addr constant [50 x i8] c"\09FEI_HYPRE Bicgstab with diagonal preconditioning\00", align 1
@str.113 = private unnamed_addr constant [45 x i8] c"\09FEI_HYPRE CGS with diagonal preconditioning\00", align 1
@str.114 = private unnamed_addr constant [47 x i8] c"\09FEI_HYPRE GMRES with diagonal preconditioning\00", align 1
@str.115 = private unnamed_addr constant [44 x i8] c"\09FEI_HYPRE CG with diagonal preconditioning\00", align 1
@str.116 = private unnamed_addr constant [52 x i8] c"\09**************************************************\00", align 1
@str.117 = private unnamed_addr constant [17 x i8] c" invalid blockID\00", align 1
@str.119 = private unnamed_addr constant [11 x i8] c" mismatch.\00", align 1
@str.120 = private unnamed_addr constant [18 x i8] c" invalid blockID.\00", align 1

@_ZN20FEI_HYPRE_Elem_BlockC1Ei = dso_local unnamed_addr alias void (%class.FEI_HYPRE_Elem_Block*, i32), void (%class.FEI_HYPRE_Elem_Block*, i32)* @_ZN20FEI_HYPRE_Elem_BlockC2Ei
@_ZN20FEI_HYPRE_Elem_BlockD1Ev = dso_local unnamed_addr alias void (%class.FEI_HYPRE_Elem_Block*), void (%class.FEI_HYPRE_Elem_Block*)* @_ZN20FEI_HYPRE_Elem_BlockD2Ev
@_ZN14FEI_HYPRE_ImplC1Ei = dso_local unnamed_addr alias void (%class.FEI_HYPRE_Impl*, i32), void (%class.FEI_HYPRE_Impl*, i32)* @_ZN14FEI_HYPRE_ImplC2Ei
@_ZN14FEI_HYPRE_ImplD1Ev = dso_local unnamed_addr alias void (%class.FEI_HYPRE_Impl*), void (%class.FEI_HYPRE_Impl*)* @_ZN14FEI_HYPRE_ImplD2Ev

; Function Attrs: mustprogress nofree norecurse nosync nounwind uwtable willreturn writeonly
define dso_local void @_ZN20FEI_HYPRE_Elem_BlockC2Ei(%class.FEI_HYPRE_Elem_Block* nocapture nonnull align 8 dereferenceable(96) %0, i32 %1) unnamed_addr #0 align 2 {
  %3 = getelementptr inbounds %class.FEI_HYPRE_Elem_Block, %class.FEI_HYPRE_Elem_Block* %0, i64 0, i32 0
  store i32 %1, i32* %3, align 8, !tbaa !3
  %4 = getelementptr inbounds %class.FEI_HYPRE_Elem_Block, %class.FEI_HYPRE_Elem_Block* %0, i64 0, i32 1
  store i32 0, i32* %4, align 4, !tbaa !9
  %5 = getelementptr inbounds %class.FEI_HYPRE_Elem_Block, %class.FEI_HYPRE_Elem_Block* %0, i64 0, i32 2
  store i32 0, i32* %5, align 8, !tbaa !10
  %6 = getelementptr inbounds %class.FEI_HYPRE_Elem_Block, %class.FEI_HYPRE_Elem_Block* %0, i64 0, i32 3
  %7 = bitcast i32** %6 to i8*
  call void @llvm.memset.p0i8.i64(i8* noundef nonnull align 8 dereferenceable(80) %7, i8 0, i64 80, i1 false)
  ret void
}

; Function Attrs: nounwind uwtable
define dso_local void @_ZN20FEI_HYPRE_Elem_BlockD2Ev(%class.FEI_HYPRE_Elem_Block* nocapture nonnull readonly align 8 dereferenceable(96) %0) unnamed_addr #1 align 2 {
  %2 = getelementptr inbounds %class.FEI_HYPRE_Elem_Block, %class.FEI_HYPRE_Elem_Block* %0, i64 0, i32 3
  %3 = load i32*, i32** %2, align 8, !tbaa !11
  %4 = icmp eq i32* %3, null
  br i1 %4, label %7, label %5

5:                                                ; preds = %1
  %6 = bitcast i32* %3 to i8*
  call void @_ZdaPv(i8* %6) #21
  br label %7

7:                                                ; preds = %5, %1
  %8 = getelementptr inbounds %class.FEI_HYPRE_Elem_Block, %class.FEI_HYPRE_Elem_Block* %0, i64 0, i32 4
  %9 = load i32**, i32*** %8, align 8, !tbaa !12
  %10 = icmp eq i32** %9, null
  br i1 %10, label %33, label %11

11:                                               ; preds = %7
  %12 = getelementptr inbounds %class.FEI_HYPRE_Elem_Block, %class.FEI_HYPRE_Elem_Block* %0, i64 0, i32 1
  %13 = load i32, i32* %12, align 4, !tbaa !9
  %14 = icmp sgt i32 %13, 0
  br i1 %14, label %15, label %28

15:                                               ; preds = %11, %23
  %16 = phi i64 [ %24, %23 ], [ 0, %11 ]
  %17 = load i32**, i32*** %8, align 8, !tbaa !12
  %18 = getelementptr inbounds i32*, i32** %17, i64 %16
  %19 = load i32*, i32** %18, align 8, !tbaa !13
  %20 = icmp eq i32* %19, null
  br i1 %20, label %23, label %21

21:                                               ; preds = %15
  %22 = bitcast i32* %19 to i8*
  call void @_ZdaPv(i8* %22) #21
  br label %23

23:                                               ; preds = %15, %21
  %24 = add nuw nsw i64 %16, 1
  %25 = load i32, i32* %12, align 4, !tbaa !9
  %26 = sext i32 %25 to i64
  %27 = icmp slt i64 %24, %26
  br i1 %27, label %15, label %28, !llvm.loop !14

28:                                               ; preds = %23, %11
  %29 = load i32**, i32*** %8, align 8, !tbaa !12
  %30 = icmp eq i32** %29, null
  br i1 %30, label %33, label %31

31:                                               ; preds = %28
  %32 = bitcast i32** %29 to i8*
  call void @_ZdaPv(i8* %32) #21
  br label %33

33:                                               ; preds = %28, %31, %7
  %34 = getelementptr inbounds %class.FEI_HYPRE_Elem_Block, %class.FEI_HYPRE_Elem_Block* %0, i64 0, i32 7
  %35 = load double**, double*** %34, align 8, !tbaa !17
  %36 = icmp eq double** %35, null
  br i1 %36, label %59, label %37

37:                                               ; preds = %33
  %38 = getelementptr inbounds %class.FEI_HYPRE_Elem_Block, %class.FEI_HYPRE_Elem_Block* %0, i64 0, i32 1
  %39 = load i32, i32* %38, align 4, !tbaa !9
  %40 = icmp sgt i32 %39, 0
  br i1 %40, label %41, label %54

41:                                               ; preds = %37, %49
  %42 = phi i64 [ %50, %49 ], [ 0, %37 ]
  %43 = load double**, double*** %34, align 8, !tbaa !17
  %44 = getelementptr inbounds double*, double** %43, i64 %42
  %45 = load double*, double** %44, align 8, !tbaa !13
  %46 = icmp eq double* %45, null
  br i1 %46, label %49, label %47

47:                                               ; preds = %41
  %48 = bitcast double* %45 to i8*
  call void @_ZdaPv(i8* %48) #21
  br label %49

49:                                               ; preds = %41, %47
  %50 = add nuw nsw i64 %42, 1
  %51 = load i32, i32* %38, align 4, !tbaa !9
  %52 = sext i32 %51 to i64
  %53 = icmp slt i64 %50, %52
  br i1 %53, label %41, label %54, !llvm.loop !18

54:                                               ; preds = %49, %37
  %55 = load double**, double*** %34, align 8, !tbaa !17
  %56 = icmp eq double** %55, null
  br i1 %56, label %59, label %57

57:                                               ; preds = %54
  %58 = bitcast double** %55 to i8*
  call void @_ZdaPv(i8* %58) #21
  br label %59

59:                                               ; preds = %54, %57, %33
  %60 = getelementptr inbounds %class.FEI_HYPRE_Elem_Block, %class.FEI_HYPRE_Elem_Block* %0, i64 0, i32 8
  %61 = load double**, double*** %60, align 8, !tbaa !19
  %62 = icmp eq double** %61, null
  br i1 %62, label %85, label %63

63:                                               ; preds = %59
  %64 = getelementptr inbounds %class.FEI_HYPRE_Elem_Block, %class.FEI_HYPRE_Elem_Block* %0, i64 0, i32 1
  %65 = load i32, i32* %64, align 4, !tbaa !9
  %66 = icmp sgt i32 %65, 0
  br i1 %66, label %67, label %80

67:                                               ; preds = %63, %75
  %68 = phi i64 [ %76, %75 ], [ 0, %63 ]
  %69 = load double**, double*** %60, align 8, !tbaa !19
  %70 = getelementptr inbounds double*, double** %69, i64 %68
  %71 = load double*, double** %70, align 8, !tbaa !13
  %72 = icmp eq double* %71, null
  br i1 %72, label %75, label %73

73:                                               ; preds = %67
  %74 = bitcast double* %71 to i8*
  call void @_ZdaPv(i8* %74) #21
  br label %75

75:                                               ; preds = %67, %73
  %76 = add nuw nsw i64 %68, 1
  %77 = load i32, i32* %64, align 4, !tbaa !9
  %78 = sext i32 %77 to i64
  %79 = icmp slt i64 %76, %78
  br i1 %79, label %67, label %80, !llvm.loop !20

80:                                               ; preds = %75, %63
  %81 = load double**, double*** %60, align 8, !tbaa !19
  %82 = icmp eq double** %81, null
  br i1 %82, label %85, label %83

83:                                               ; preds = %80
  %84 = bitcast double** %81 to i8*
  call void @_ZdaPv(i8* %84) #21
  br label %85

85:                                               ; preds = %80, %83, %59
  %86 = getelementptr inbounds %class.FEI_HYPRE_Elem_Block, %class.FEI_HYPRE_Elem_Block* %0, i64 0, i32 9
  %87 = load double**, double*** %86, align 8, !tbaa !21
  %88 = icmp eq double** %87, null
  br i1 %88, label %111, label %89

89:                                               ; preds = %85
  %90 = getelementptr inbounds %class.FEI_HYPRE_Elem_Block, %class.FEI_HYPRE_Elem_Block* %0, i64 0, i32 1
  %91 = load i32, i32* %90, align 4, !tbaa !9
  %92 = icmp sgt i32 %91, 0
  br i1 %92, label %93, label %106

93:                                               ; preds = %89, %101
  %94 = phi i64 [ %102, %101 ], [ 0, %89 ]
  %95 = load double**, double*** %86, align 8, !tbaa !21
  %96 = getelementptr inbounds double*, double** %95, i64 %94
  %97 = load double*, double** %96, align 8, !tbaa !13
  %98 = icmp eq double* %97, null
  br i1 %98, label %101, label %99

99:                                               ; preds = %93
  %100 = bitcast double* %97 to i8*
  call void @_ZdaPv(i8* %100) #21
  br label %101

101:                                              ; preds = %93, %99
  %102 = add nuw nsw i64 %94, 1
  %103 = load i32, i32* %90, align 4, !tbaa !9
  %104 = sext i32 %103 to i64
  %105 = icmp slt i64 %102, %104
  br i1 %105, label %93, label %106, !llvm.loop !22

106:                                              ; preds = %101, %89
  %107 = load double**, double*** %86, align 8, !tbaa !21
  %108 = icmp eq double** %107, null
  br i1 %108, label %111, label %109

109:                                              ; preds = %106
  %110 = bitcast double** %107 to i8*
  call void @_ZdaPv(i8* %110) #21
  br label %111

111:                                              ; preds = %106, %109, %85
  %112 = getelementptr inbounds %class.FEI_HYPRE_Elem_Block, %class.FEI_HYPRE_Elem_Block* %0, i64 0, i32 5
  %113 = load i32*, i32** %112, align 8, !tbaa !23
  %114 = icmp eq i32* %113, null
  br i1 %114, label %117, label %115

115:                                              ; preds = %111
  %116 = bitcast i32* %113 to i8*
  call void @_ZdaPv(i8* %116) #21
  br label %117

117:                                              ; preds = %115, %111
  %118 = getelementptr inbounds %class.FEI_HYPRE_Elem_Block, %class.FEI_HYPRE_Elem_Block* %0, i64 0, i32 6
  %119 = load i32*, i32** %118, align 8, !tbaa !24
  %120 = icmp eq i32* %119, null
  br i1 %120, label %123, label %121

121:                                              ; preds = %117
  %122 = bitcast i32* %119 to i8*
  call void @_ZdaPv(i8* %122) #21
  br label %123

123:                                              ; preds = %121, %117
  %124 = getelementptr inbounds %class.FEI_HYPRE_Elem_Block, %class.FEI_HYPRE_Elem_Block* %0, i64 0, i32 12
  %125 = load double*, double** %124, align 8, !tbaa !25
  %126 = icmp eq double* %125, null
  br i1 %126, label %129, label %127

127:                                              ; preds = %123
  %128 = bitcast double* %125 to i8*
  call void @_ZdaPv(i8* %128) #21
  br label %129

129:                                              ; preds = %127, %123
  %130 = getelementptr inbounds %class.FEI_HYPRE_Elem_Block, %class.FEI_HYPRE_Elem_Block* %0, i64 0, i32 13
  %131 = load double*, double** %130, align 8, !tbaa !26
  %132 = icmp eq double* %131, null
  br i1 %132, label %135, label %133

133:                                              ; preds = %129
  %134 = bitcast double* %131 to i8*
  call void @_ZdaPv(i8* %134) #21
  br label %135

135:                                              ; preds = %133, %129
  ret void
}

; Function Attrs: argmemonly mustprogress nofree nosync nounwind willreturn
declare void @llvm.lifetime.start.p0i8(i64 immarg, i8* nocapture) #2

; Function Attrs: nobuiltin nounwind
declare dso_local void @_ZdaPv(i8*) local_unnamed_addr #3

; Function Attrs: argmemonly mustprogress nofree nosync nounwind willreturn
declare void @llvm.lifetime.end.p0i8(i64 immarg, i8* nocapture) #2

; Function Attrs: mustprogress uwtable
define dso_local i32 @_ZN20FEI_HYPRE_Elem_Block10initializeEiii(%class.FEI_HYPRE_Elem_Block* nocapture nonnull align 8 dereferenceable(96) %0, i32 %1, i32 %2, i32 %3) local_unnamed_addr #4 align 2 {
  %5 = getelementptr inbounds %class.FEI_HYPRE_Elem_Block, %class.FEI_HYPRE_Elem_Block* %0, i64 0, i32 3
  %6 = load i32*, i32** %5, align 8, !tbaa !11
  %7 = icmp eq i32* %6, null
  br i1 %7, label %10, label %8

8:                                                ; preds = %4
  %9 = bitcast i32* %6 to i8*
  call void @_ZdaPv(i8* %9) #21
  br label %10

10:                                               ; preds = %8, %4
  %11 = getelementptr inbounds %class.FEI_HYPRE_Elem_Block, %class.FEI_HYPRE_Elem_Block* %0, i64 0, i32 4
  %12 = load i32**, i32*** %11, align 8, !tbaa !12
  %13 = icmp eq i32** %12, null
  br i1 %13, label %36, label %14

14:                                               ; preds = %10
  %15 = getelementptr inbounds %class.FEI_HYPRE_Elem_Block, %class.FEI_HYPRE_Elem_Block* %0, i64 0, i32 1
  %16 = load i32, i32* %15, align 4, !tbaa !9
  %17 = icmp sgt i32 %16, 0
  br i1 %17, label %18, label %31

18:                                               ; preds = %14, %26
  %19 = phi i64 [ %27, %26 ], [ 0, %14 ]
  %20 = load i32**, i32*** %11, align 8, !tbaa !12
  %21 = getelementptr inbounds i32*, i32** %20, i64 %19
  %22 = load i32*, i32** %21, align 8, !tbaa !13
  %23 = icmp eq i32* %22, null
  br i1 %23, label %26, label %24

24:                                               ; preds = %18
  %25 = bitcast i32* %22 to i8*
  call void @_ZdaPv(i8* %25) #21
  br label %26

26:                                               ; preds = %18, %24
  %27 = add nuw nsw i64 %19, 1
  %28 = load i32, i32* %15, align 4, !tbaa !9
  %29 = sext i32 %28 to i64
  %30 = icmp slt i64 %27, %29
  br i1 %30, label %18, label %31, !llvm.loop !27

31:                                               ; preds = %26, %14
  %32 = load i32**, i32*** %11, align 8, !tbaa !12
  %33 = icmp eq i32** %32, null
  br i1 %33, label %36, label %34

34:                                               ; preds = %31
  %35 = bitcast i32** %32 to i8*
  call void @_ZdaPv(i8* %35) #21
  br label %36

36:                                               ; preds = %31, %34, %10
  %37 = getelementptr inbounds %class.FEI_HYPRE_Elem_Block, %class.FEI_HYPRE_Elem_Block* %0, i64 0, i32 7
  %38 = load double**, double*** %37, align 8, !tbaa !17
  %39 = icmp eq double** %38, null
  br i1 %39, label %62, label %40

40:                                               ; preds = %36
  %41 = getelementptr inbounds %class.FEI_HYPRE_Elem_Block, %class.FEI_HYPRE_Elem_Block* %0, i64 0, i32 1
  %42 = load i32, i32* %41, align 4, !tbaa !9
  %43 = icmp sgt i32 %42, 0
  br i1 %43, label %44, label %57

44:                                               ; preds = %40, %52
  %45 = phi i64 [ %53, %52 ], [ 0, %40 ]
  %46 = load double**, double*** %37, align 8, !tbaa !17
  %47 = getelementptr inbounds double*, double** %46, i64 %45
  %48 = load double*, double** %47, align 8, !tbaa !13
  %49 = icmp eq double* %48, null
  br i1 %49, label %52, label %50

50:                                               ; preds = %44
  %51 = bitcast double* %48 to i8*
  call void @_ZdaPv(i8* %51) #21
  br label %52

52:                                               ; preds = %44, %50
  %53 = add nuw nsw i64 %45, 1
  %54 = load i32, i32* %41, align 4, !tbaa !9
  %55 = sext i32 %54 to i64
  %56 = icmp slt i64 %53, %55
  br i1 %56, label %44, label %57, !llvm.loop !28

57:                                               ; preds = %52, %40
  %58 = load double**, double*** %37, align 8, !tbaa !17
  %59 = icmp eq double** %58, null
  br i1 %59, label %62, label %60

60:                                               ; preds = %57
  %61 = bitcast double** %58 to i8*
  call void @_ZdaPv(i8* %61) #21
  br label %62

62:                                               ; preds = %57, %60, %36
  %63 = getelementptr inbounds %class.FEI_HYPRE_Elem_Block, %class.FEI_HYPRE_Elem_Block* %0, i64 0, i32 8
  %64 = load double**, double*** %63, align 8, !tbaa !19
  %65 = icmp eq double** %64, null
  br i1 %65, label %88, label %66

66:                                               ; preds = %62
  %67 = getelementptr inbounds %class.FEI_HYPRE_Elem_Block, %class.FEI_HYPRE_Elem_Block* %0, i64 0, i32 1
  %68 = load i32, i32* %67, align 4, !tbaa !9
  %69 = icmp sgt i32 %68, 0
  br i1 %69, label %70, label %83

70:                                               ; preds = %66, %78
  %71 = phi i64 [ %79, %78 ], [ 0, %66 ]
  %72 = load double**, double*** %63, align 8, !tbaa !19
  %73 = getelementptr inbounds double*, double** %72, i64 %71
  %74 = load double*, double** %73, align 8, !tbaa !13
  %75 = icmp eq double* %74, null
  br i1 %75, label %78, label %76

76:                                               ; preds = %70
  %77 = bitcast double* %74 to i8*
  call void @_ZdaPv(i8* %77) #21
  br label %78

78:                                               ; preds = %70, %76
  %79 = add nuw nsw i64 %71, 1
  %80 = load i32, i32* %67, align 4, !tbaa !9
  %81 = sext i32 %80 to i64
  %82 = icmp slt i64 %79, %81
  br i1 %82, label %70, label %83, !llvm.loop !29

83:                                               ; preds = %78, %66
  %84 = load double**, double*** %63, align 8, !tbaa !19
  %85 = icmp eq double** %84, null
  br i1 %85, label %88, label %86

86:                                               ; preds = %83
  %87 = bitcast double** %84 to i8*
  call void @_ZdaPv(i8* %87) #21
  br label %88

88:                                               ; preds = %83, %86, %62
  %89 = getelementptr inbounds %class.FEI_HYPRE_Elem_Block, %class.FEI_HYPRE_Elem_Block* %0, i64 0, i32 9
  %90 = load double**, double*** %89, align 8, !tbaa !21
  %91 = icmp eq double** %90, null
  br i1 %91, label %114, label %92

92:                                               ; preds = %88
  %93 = getelementptr inbounds %class.FEI_HYPRE_Elem_Block, %class.FEI_HYPRE_Elem_Block* %0, i64 0, i32 1
  %94 = load i32, i32* %93, align 4, !tbaa !9
  %95 = icmp sgt i32 %94, 0
  br i1 %95, label %96, label %109

96:                                               ; preds = %92, %104
  %97 = phi i64 [ %105, %104 ], [ 0, %92 ]
  %98 = load double**, double*** %89, align 8, !tbaa !21
  %99 = getelementptr inbounds double*, double** %98, i64 %97
  %100 = load double*, double** %99, align 8, !tbaa !13
  %101 = icmp eq double* %100, null
  br i1 %101, label %104, label %102

102:                                              ; preds = %96
  %103 = bitcast double* %100 to i8*
  call void @_ZdaPv(i8* %103) #21
  br label %104

104:                                              ; preds = %96, %102
  %105 = add nuw nsw i64 %97, 1
  %106 = load i32, i32* %93, align 4, !tbaa !9
  %107 = sext i32 %106 to i64
  %108 = icmp slt i64 %105, %107
  br i1 %108, label %96, label %109, !llvm.loop !30

109:                                              ; preds = %104, %92
  %110 = load double**, double*** %89, align 8, !tbaa !21
  %111 = icmp eq double** %110, null
  br i1 %111, label %114, label %112

112:                                              ; preds = %109
  %113 = bitcast double** %110 to i8*
  call void @_ZdaPv(i8* %113) #21
  br label %114

114:                                              ; preds = %109, %112, %88
  %115 = getelementptr inbounds %class.FEI_HYPRE_Elem_Block, %class.FEI_HYPRE_Elem_Block* %0, i64 0, i32 1
  store i32 %1, i32* %115, align 4, !tbaa !9
  %116 = getelementptr inbounds %class.FEI_HYPRE_Elem_Block, %class.FEI_HYPRE_Elem_Block* %0, i64 0, i32 10
  store i32 %2, i32* %116, align 8, !tbaa !31
  %117 = getelementptr inbounds %class.FEI_HYPRE_Elem_Block, %class.FEI_HYPRE_Elem_Block* %0, i64 0, i32 2
  store i32 %3, i32* %117, align 8, !tbaa !10
  %118 = getelementptr inbounds %class.FEI_HYPRE_Elem_Block, %class.FEI_HYPRE_Elem_Block* %0, i64 0, i32 11
  store i32 0, i32* %118, align 4, !tbaa !32
  %119 = sext i32 %1 to i64
  %120 = call { i64, i1 } @llvm.umul.with.overflow.i64(i64 %119, i64 4)
  %121 = extractvalue { i64, i1 } %120, 1
  %122 = extractvalue { i64, i1 } %120, 0
  %123 = select i1 %121, i64 -1, i64 %122
  %124 = call noalias nonnull i8* @_Znam(i64 %123) #22
  %125 = bitcast i32** %5 to i8**
  store i8* %124, i8** %125, align 8, !tbaa !11
  %126 = call { i64, i1 } @llvm.umul.with.overflow.i64(i64 %119, i64 8)
  %127 = extractvalue { i64, i1 } %126, 1
  %128 = extractvalue { i64, i1 } %126, 0
  %129 = select i1 %127, i64 -1, i64 %128
  %130 = call noalias nonnull i8* @_Znam(i64 %129) #22
  %131 = bitcast i32*** %11 to i8**
  store i8* %130, i8** %131, align 8, !tbaa !12
  %132 = icmp sgt i32 %1, 0
  br i1 %132, label %133, label %141

133:                                              ; preds = %114
  %134 = zext i32 %1 to i64
  br label %135

135:                                              ; preds = %133, %135
  %136 = phi i64 [ 0, %133 ], [ %139, %135 ]
  %137 = load i32**, i32*** %11, align 8, !tbaa !12
  %138 = getelementptr inbounds i32*, i32** %137, i64 %136
  store i32* null, i32** %138, align 8, !tbaa !13
  %139 = add nuw nsw i64 %136, 1
  %140 = icmp eq i64 %139, %134
  br i1 %140, label %141, label %135, !llvm.loop !33

141:                                              ; preds = %135, %114
  %142 = call noalias nonnull i8* @_Znam(i64 %129) #22
  %143 = bitcast double*** %37 to i8**
  store i8* %142, i8** %143, align 8, !tbaa !17
  %144 = icmp sgt i32 %1, 0
  br i1 %144, label %145, label %153

145:                                              ; preds = %141
  %146 = zext i32 %1 to i64
  br label %147

147:                                              ; preds = %145, %147
  %148 = phi i64 [ 0, %145 ], [ %151, %147 ]
  %149 = load double**, double*** %37, align 8, !tbaa !17
  %150 = getelementptr inbounds double*, double** %149, i64 %148
  store double* null, double** %150, align 8, !tbaa !13
  %151 = add nuw nsw i64 %148, 1
  %152 = icmp eq i64 %151, %146
  br i1 %152, label %153, label %147, !llvm.loop !34

153:                                              ; preds = %147, %141
  %154 = call noalias nonnull i8* @_Znam(i64 %129) #22
  %155 = bitcast double*** %63 to i8**
  store i8* %154, i8** %155, align 8, !tbaa !19
  %156 = icmp sgt i32 %1, 0
  br i1 %156, label %157, label %165

157:                                              ; preds = %153
  %158 = zext i32 %1 to i64
  br label %159

159:                                              ; preds = %157, %159
  %160 = phi i64 [ 0, %157 ], [ %163, %159 ]
  %161 = load double**, double*** %63, align 8, !tbaa !19
  %162 = getelementptr inbounds double*, double** %161, i64 %160
  store double* null, double** %162, align 8, !tbaa !13
  %163 = add nuw nsw i64 %160, 1
  %164 = icmp eq i64 %163, %158
  br i1 %164, label %165, label %159, !llvm.loop !35

165:                                              ; preds = %159, %153
  %166 = call noalias nonnull i8* @_Znam(i64 %129) #22
  %167 = bitcast double*** %89 to i8**
  store i8* %166, i8** %167, align 8, !tbaa !21
  %168 = icmp sgt i32 %1, 0
  br i1 %168, label %169, label %177

169:                                              ; preds = %165
  %170 = zext i32 %1 to i64
  br label %171

171:                                              ; preds = %169, %171
  %172 = phi i64 [ 0, %169 ], [ %175, %171 ]
  %173 = load double**, double*** %89, align 8, !tbaa !21
  %174 = getelementptr inbounds double*, double** %173, i64 %172
  store double* null, double** %174, align 8, !tbaa !13
  %175 = add nuw nsw i64 %172, 1
  %176 = icmp eq i64 %175, %170
  br i1 %176, label %177, label %171, !llvm.loop !36

177:                                              ; preds = %171, %165
  ret i32 0
}

; Function Attrs: mustprogress nofree nosync nounwind readnone speculatable willreturn
declare { i64, i1 } @llvm.umul.with.overflow.i64(i64, i64) #5

; Function Attrs: nobuiltin allocsize(0)
declare dso_local nonnull i8* @_Znam(i64) local_unnamed_addr #6

; Function Attrs: mustprogress nounwind uwtable
define dso_local i32 @_ZN20FEI_HYPRE_Elem_Block5resetEv(%class.FEI_HYPRE_Elem_Block* nocapture nonnull align 8 dereferenceable(96) %0) local_unnamed_addr #7 align 2 {
  %2 = getelementptr inbounds %class.FEI_HYPRE_Elem_Block, %class.FEI_HYPRE_Elem_Block* %0, i64 0, i32 4
  %3 = load i32**, i32*** %2, align 8, !tbaa !12
  %4 = icmp eq i32** %3, null
  br i1 %4, label %24, label %5

5:                                                ; preds = %1
  %6 = getelementptr inbounds %class.FEI_HYPRE_Elem_Block, %class.FEI_HYPRE_Elem_Block* %0, i64 0, i32 1
  %7 = load i32, i32* %6, align 4, !tbaa !9
  %8 = icmp sgt i32 %7, 0
  br i1 %8, label %9, label %24

9:                                                ; preds = %5, %17
  %10 = phi i64 [ %20, %17 ], [ 0, %5 ]
  %11 = load i32**, i32*** %2, align 8, !tbaa !12
  %12 = getelementptr inbounds i32*, i32** %11, i64 %10
  %13 = load i32*, i32** %12, align 8, !tbaa !13
  %14 = icmp eq i32* %13, null
  br i1 %14, label %17, label %15

15:                                               ; preds = %9
  %16 = bitcast i32* %13 to i8*
  call void @_ZdaPv(i8* %16) #21
  br label %17

17:                                               ; preds = %15, %9
  %18 = load i32**, i32*** %2, align 8, !tbaa !12
  %19 = getelementptr inbounds i32*, i32** %18, i64 %10
  store i32* null, i32** %19, align 8, !tbaa !13
  %20 = add nuw nsw i64 %10, 1
  %21 = load i32, i32* %6, align 4, !tbaa !9
  %22 = sext i32 %21 to i64
  %23 = icmp slt i64 %20, %22
  br i1 %23, label %9, label %24, !llvm.loop !37

24:                                               ; preds = %17, %5, %1
  %25 = getelementptr inbounds %class.FEI_HYPRE_Elem_Block, %class.FEI_HYPRE_Elem_Block* %0, i64 0, i32 7
  %26 = load double**, double*** %25, align 8, !tbaa !17
  %27 = icmp eq double** %26, null
  br i1 %27, label %47, label %28

28:                                               ; preds = %24
  %29 = getelementptr inbounds %class.FEI_HYPRE_Elem_Block, %class.FEI_HYPRE_Elem_Block* %0, i64 0, i32 1
  %30 = load i32, i32* %29, align 4, !tbaa !9
  %31 = icmp sgt i32 %30, 0
  br i1 %31, label %32, label %47

32:                                               ; preds = %28, %40
  %33 = phi i64 [ %43, %40 ], [ 0, %28 ]
  %34 = load double**, double*** %25, align 8, !tbaa !17
  %35 = getelementptr inbounds double*, double** %34, i64 %33
  %36 = load double*, double** %35, align 8, !tbaa !13
  %37 = icmp eq double* %36, null
  br i1 %37, label %40, label %38

38:                                               ; preds = %32
  %39 = bitcast double* %36 to i8*
  call void @_ZdaPv(i8* %39) #21
  br label %40

40:                                               ; preds = %38, %32
  %41 = load double**, double*** %25, align 8, !tbaa !17
  %42 = getelementptr inbounds double*, double** %41, i64 %33
  store double* null, double** %42, align 8, !tbaa !13
  %43 = add nuw nsw i64 %33, 1
  %44 = load i32, i32* %29, align 4, !tbaa !9
  %45 = sext i32 %44 to i64
  %46 = icmp slt i64 %43, %45
  br i1 %46, label %32, label %47, !llvm.loop !38

47:                                               ; preds = %40, %28, %24
  %48 = getelementptr inbounds %class.FEI_HYPRE_Elem_Block, %class.FEI_HYPRE_Elem_Block* %0, i64 0, i32 8
  %49 = load double**, double*** %48, align 8, !tbaa !19
  %50 = icmp eq double** %49, null
  br i1 %50, label %70, label %51

51:                                               ; preds = %47
  %52 = getelementptr inbounds %class.FEI_HYPRE_Elem_Block, %class.FEI_HYPRE_Elem_Block* %0, i64 0, i32 1
  %53 = load i32, i32* %52, align 4, !tbaa !9
  %54 = icmp sgt i32 %53, 0
  br i1 %54, label %55, label %70

55:                                               ; preds = %51, %63
  %56 = phi i64 [ %66, %63 ], [ 0, %51 ]
  %57 = load double**, double*** %48, align 8, !tbaa !19
  %58 = getelementptr inbounds double*, double** %57, i64 %56
  %59 = load double*, double** %58, align 8, !tbaa !13
  %60 = icmp eq double* %59, null
  br i1 %60, label %63, label %61

61:                                               ; preds = %55
  %62 = bitcast double* %59 to i8*
  call void @_ZdaPv(i8* %62) #21
  br label %63

63:                                               ; preds = %61, %55
  %64 = load double**, double*** %48, align 8, !tbaa !19
  %65 = getelementptr inbounds double*, double** %64, i64 %56
  store double* null, double** %65, align 8, !tbaa !13
  %66 = add nuw nsw i64 %56, 1
  %67 = load i32, i32* %52, align 4, !tbaa !9
  %68 = sext i32 %67 to i64
  %69 = icmp slt i64 %66, %68
  br i1 %69, label %55, label %70, !llvm.loop !39

70:                                               ; preds = %63, %51, %47
  %71 = getelementptr inbounds %class.FEI_HYPRE_Elem_Block, %class.FEI_HYPRE_Elem_Block* %0, i64 0, i32 11
  store i32 0, i32* %71, align 4, !tbaa !32
  ret i32 0
}

; Function Attrs: mustprogress nofree norecurse nosync nounwind uwtable
define dso_local i32 @_ZN20FEI_HYPRE_Elem_Block15resetRHSVectorsEd(%class.FEI_HYPRE_Elem_Block* nocapture nonnull align 8 dereferenceable(96) %0, double %1) local_unnamed_addr #8 align 2 {
  %3 = getelementptr inbounds %class.FEI_HYPRE_Elem_Block, %class.FEI_HYPRE_Elem_Block* %0, i64 0, i32 10
  %4 = load i32, i32* %3, align 8, !tbaa !31
  %5 = getelementptr inbounds %class.FEI_HYPRE_Elem_Block, %class.FEI_HYPRE_Elem_Block* %0, i64 0, i32 2
  %6 = load i32, i32* %5, align 8, !tbaa !10
  %7 = getelementptr inbounds %class.FEI_HYPRE_Elem_Block, %class.FEI_HYPRE_Elem_Block* %0, i64 0, i32 8
  %8 = load double**, double*** %7, align 8, !tbaa !19
  %9 = icmp eq double** %8, null
  br i1 %9, label %33, label %10

10:                                               ; preds = %2
  %11 = mul nsw i32 %6, %4
  %12 = getelementptr inbounds %class.FEI_HYPRE_Elem_Block, %class.FEI_HYPRE_Elem_Block* %0, i64 0, i32 1
  %13 = load i32, i32* %12, align 4, !tbaa !9
  %14 = icmp sgt i32 %11, 0
  %15 = icmp sgt i32 %13, 0
  br i1 %15, label %16, label %33

16:                                               ; preds = %10
  %17 = mul i32 %6, %4
  %18 = zext i32 %13 to i64
  %19 = zext i32 %17 to i64
  br label %20

20:                                               ; preds = %16, %30
  %21 = phi i64 [ 0, %16 ], [ %31, %30 ]
  br i1 %14, label %22, label %30

22:                                               ; preds = %20
  %23 = getelementptr inbounds double*, double** %8, i64 %21
  %24 = load double*, double** %23, align 8, !tbaa !13
  br label %25

25:                                               ; preds = %22, %25
  %26 = phi i64 [ 0, %22 ], [ %28, %25 ]
  %27 = getelementptr inbounds double, double* %24, i64 %26
  store double %1, double* %27, align 8, !tbaa !40
  %28 = add nuw nsw i64 %26, 1
  %29 = icmp eq i64 %28, %19
  br i1 %29, label %30, label %25, !llvm.loop !42

30:                                               ; preds = %25, %20
  %31 = add nuw nsw i64 %21, 1
  %32 = icmp eq i64 %31, %18
  br i1 %32, label %33, label %20, !llvm.loop !43

33:                                               ; preds = %30, %10, %2
  %34 = getelementptr inbounds %class.FEI_HYPRE_Elem_Block, %class.FEI_HYPRE_Elem_Block* %0, i64 0, i32 11
  store i32 0, i32* %34, align 4, !tbaa !32
  ret i32 0
}

; Function Attrs: mustprogress nofree norecurse nosync nounwind uwtable
define dso_local i32 @_ZN20FEI_HYPRE_Elem_Block16resetSolnVectorsEd(%class.FEI_HYPRE_Elem_Block* nocapture nonnull align 8 dereferenceable(96) %0, double %1) local_unnamed_addr #8 align 2 {
  %3 = getelementptr inbounds %class.FEI_HYPRE_Elem_Block, %class.FEI_HYPRE_Elem_Block* %0, i64 0, i32 10
  %4 = load i32, i32* %3, align 8, !tbaa !31
  %5 = getelementptr inbounds %class.FEI_HYPRE_Elem_Block, %class.FEI_HYPRE_Elem_Block* %0, i64 0, i32 2
  %6 = load i32, i32* %5, align 8, !tbaa !10
  %7 = getelementptr inbounds %class.FEI_HYPRE_Elem_Block, %class.FEI_HYPRE_Elem_Block* %0, i64 0, i32 9
  %8 = load double**, double*** %7, align 8, !tbaa !21
  %9 = icmp eq double** %8, null
  br i1 %9, label %33, label %10

10:                                               ; preds = %2
  %11 = mul nsw i32 %6, %4
  %12 = getelementptr inbounds %class.FEI_HYPRE_Elem_Block, %class.FEI_HYPRE_Elem_Block* %0, i64 0, i32 1
  %13 = load i32, i32* %12, align 4, !tbaa !9
  %14 = icmp sgt i32 %11, 0
  %15 = icmp sgt i32 %13, 0
  br i1 %15, label %16, label %33

16:                                               ; preds = %10
  %17 = mul i32 %6, %4
  %18 = zext i32 %13 to i64
  %19 = zext i32 %17 to i64
  br label %20

20:                                               ; preds = %16, %30
  %21 = phi i64 [ 0, %16 ], [ %31, %30 ]
  br i1 %14, label %22, label %30

22:                                               ; preds = %20
  %23 = getelementptr inbounds double*, double** %8, i64 %21
  %24 = load double*, double** %23, align 8, !tbaa !13
  br label %25

25:                                               ; preds = %22, %25
  %26 = phi i64 [ 0, %22 ], [ %28, %25 ]
  %27 = getelementptr inbounds double, double* %24, i64 %26
  store double %1, double* %27, align 8, !tbaa !40
  %28 = add nuw nsw i64 %26, 1
  %29 = icmp eq i64 %28, %19
  br i1 %29, label %30, label %25, !llvm.loop !44

30:                                               ; preds = %25, %20
  %31 = add nuw nsw i64 %21, 1
  %32 = icmp eq i64 %31, %18
  br i1 %32, label %33, label %20, !llvm.loop !45

33:                                               ; preds = %30, %10, %2
  %34 = getelementptr inbounds %class.FEI_HYPRE_Elem_Block, %class.FEI_HYPRE_Elem_Block* %0, i64 0, i32 11
  store i32 0, i32* %34, align 4, !tbaa !32
  ret i32 0
}

; Function Attrs: mustprogress uwtable
define dso_local i32 @_ZN20FEI_HYPRE_Elem_Block12loadElemInfoEiPiPPdS1_(%class.FEI_HYPRE_Elem_Block* nocapture nonnull align 8 dereferenceable(96) %0, i32 %1, i32* nocapture readonly %2, double** nocapture readonly %3, double* nocapture readonly %4) local_unnamed_addr #4 align 2 {
  %6 = getelementptr inbounds %class.FEI_HYPRE_Elem_Block, %class.FEI_HYPRE_Elem_Block* %0, i64 0, i32 11
  %7 = load i32, i32* %6, align 4, !tbaa !32
  %8 = getelementptr inbounds %class.FEI_HYPRE_Elem_Block, %class.FEI_HYPRE_Elem_Block* %0, i64 0, i32 1
  %9 = load i32, i32* %8, align 4, !tbaa !9
  %10 = icmp slt i32 %7, %9
  br i1 %10, label %13, label %11

11:                                               ; preds = %5
  %12 = call i32 @puts(i8* nonnull dereferenceable(1) getelementptr inbounds ([62 x i8], [62 x i8]* @str, i64 0, i64 0))
  call void @exit(i32 1) #23
  unreachable

13:                                               ; preds = %5
  %14 = getelementptr inbounds %class.FEI_HYPRE_Elem_Block, %class.FEI_HYPRE_Elem_Block* %0, i64 0, i32 10
  %15 = load i32, i32* %14, align 8, !tbaa !31
  %16 = sext i32 %15 to i64
  %17 = call { i64, i1 } @llvm.umul.with.overflow.i64(i64 %16, i64 4)
  %18 = extractvalue { i64, i1 } %17, 1
  %19 = extractvalue { i64, i1 } %17, 0
  %20 = select i1 %18, i64 -1, i64 %19
  %21 = call noalias nonnull i8* @_Znam(i64 %20) #22
  %22 = getelementptr inbounds %class.FEI_HYPRE_Elem_Block, %class.FEI_HYPRE_Elem_Block* %0, i64 0, i32 4
  %23 = load i32**, i32*** %22, align 8, !tbaa !12
  %24 = sext i32 %7 to i64
  %25 = getelementptr inbounds i32*, i32** %23, i64 %24
  %26 = bitcast i32** %25 to i8**
  store i8* %21, i8** %26, align 8, !tbaa !13
  %27 = getelementptr inbounds %class.FEI_HYPRE_Elem_Block, %class.FEI_HYPRE_Elem_Block* %0, i64 0, i32 2
  %28 = load i32, i32* %27, align 8, !tbaa !10
  %29 = mul nsw i32 %28, %15
  %30 = mul nsw i32 %29, %29
  %31 = zext i32 %30 to i64
  %32 = shl nuw nsw i64 %31, 3
  %33 = call noalias nonnull i8* @_Znam(i64 %32) #22
  %34 = getelementptr inbounds %class.FEI_HYPRE_Elem_Block, %class.FEI_HYPRE_Elem_Block* %0, i64 0, i32 7
  %35 = load double**, double*** %34, align 8, !tbaa !17
  %36 = getelementptr inbounds double*, double** %35, i64 %24
  %37 = bitcast double** %36 to i8**
  store i8* %33, i8** %37, align 8, !tbaa !13
  %38 = sext i32 %29 to i64
  %39 = call { i64, i1 } @llvm.umul.with.overflow.i64(i64 %38, i64 8)
  %40 = extractvalue { i64, i1 } %39, 1
  %41 = extractvalue { i64, i1 } %39, 0
  %42 = select i1 %40, i64 -1, i64 %41
  %43 = call noalias nonnull i8* @_Znam(i64 %42) #22
  %44 = getelementptr inbounds %class.FEI_HYPRE_Elem_Block, %class.FEI_HYPRE_Elem_Block* %0, i64 0, i32 8
  %45 = load double**, double*** %44, align 8, !tbaa !19
  %46 = getelementptr inbounds double*, double** %45, i64 %24
  %47 = bitcast double** %46 to i8**
  store i8* %43, i8** %47, align 8, !tbaa !13
  %48 = getelementptr inbounds %class.FEI_HYPRE_Elem_Block, %class.FEI_HYPRE_Elem_Block* %0, i64 0, i32 9
  %49 = load double**, double*** %48, align 8, !tbaa !21
  %50 = getelementptr inbounds double*, double** %49, i64 %24
  %51 = load double*, double** %50, align 8, !tbaa !13
  %52 = icmp eq double* %51, null
  br i1 %52, label %55, label %53

53:                                               ; preds = %13
  %54 = bitcast double* %51 to i8*
  call void @_ZdaPv(i8* %54) #21
  br label %55

55:                                               ; preds = %53, %13
  %56 = call noalias nonnull i8* @_Znam(i64 %42) #22
  %57 = load double**, double*** %48, align 8, !tbaa !21
  %58 = load i32, i32* %6, align 4, !tbaa !32
  %59 = sext i32 %58 to i64
  %60 = getelementptr inbounds double*, double** %57, i64 %59
  %61 = bitcast double** %60 to i8**
  store i8* %56, i8** %61, align 8, !tbaa !13
  %62 = getelementptr inbounds %class.FEI_HYPRE_Elem_Block, %class.FEI_HYPRE_Elem_Block* %0, i64 0, i32 3
  %63 = load i32*, i32** %62, align 8, !tbaa !11
  %64 = getelementptr inbounds i32, i32* %63, i64 %59
  store i32 %1, i32* %64, align 4, !tbaa !46
  %65 = load i32**, i32*** %22, align 8
  %66 = load i32, i32* %14, align 8, !tbaa !31
  %67 = icmp sgt i32 %66, 0
  br i1 %67, label %78, label %68

68:                                               ; preds = %78, %55
  %69 = icmp sgt i32 %29, 0
  br i1 %69, label %70, label %91

70:                                               ; preds = %68
  %71 = load double**, double*** %44, align 8
  %72 = load i32, i32* %6, align 4
  %73 = sext i32 %72 to i64
  %74 = getelementptr inbounds double*, double** %71, i64 %73
  %75 = load double*, double** %74, align 8, !tbaa !13
  %76 = mul i32 %28, %15
  %77 = zext i32 %76 to i64
  br label %103

78:                                               ; preds = %55, %78
  %79 = phi i64 [ %87, %78 ], [ 0, %55 ]
  %80 = getelementptr inbounds i32, i32* %2, i64 %79
  %81 = load i32, i32* %80, align 4, !tbaa !46
  %82 = load i32, i32* %6, align 4, !tbaa !32
  %83 = sext i32 %82 to i64
  %84 = getelementptr inbounds i32*, i32** %65, i64 %83
  %85 = load i32*, i32** %84, align 8, !tbaa !13
  %86 = getelementptr inbounds i32, i32* %85, i64 %79
  store i32 %81, i32* %86, align 4, !tbaa !46
  %87 = add nuw nsw i64 %79, 1
  %88 = load i32, i32* %14, align 8, !tbaa !31
  %89 = sext i32 %88 to i64
  %90 = icmp slt i64 %87, %89
  br i1 %90, label %78, label %68, !llvm.loop !47

91:                                               ; preds = %103, %68
  %92 = icmp sgt i32 %29, 0
  br i1 %92, label %93, label %110

93:                                               ; preds = %91
  %94 = load double**, double*** %48, align 8
  %95 = load i32, i32* %6, align 4
  %96 = sext i32 %95 to i64
  %97 = getelementptr inbounds double*, double** %94, i64 %96
  %98 = bitcast double** %97 to i8**
  %99 = load i8*, i8** %98, align 8, !tbaa !13
  %100 = mul i32 %28, %15
  %101 = zext i32 %100 to i64
  %102 = shl nuw nsw i64 %101, 3
  call void @llvm.memset.p0i8.i64(i8* align 8 %99, i8 0, i64 %102, i1 false)
  br label %110

103:                                              ; preds = %70, %103
  %104 = phi i64 [ 0, %70 ], [ %108, %103 ]
  %105 = getelementptr inbounds double, double* %4, i64 %104
  %106 = load double, double* %105, align 8, !tbaa !40
  %107 = getelementptr inbounds double, double* %75, i64 %104
  store double %106, double* %107, align 8, !tbaa !40
  %108 = add nuw nsw i64 %104, 1
  %109 = icmp eq i64 %108, %77
  br i1 %109, label %91, label %103, !llvm.loop !48

110:                                              ; preds = %93, %91
  %111 = icmp sgt i32 %29, 0
  %112 = icmp sgt i32 %29, 0
  br i1 %112, label %113, label %128

113:                                              ; preds = %110
  %114 = mul i32 %28, %15
  %115 = zext i32 %114 to i64
  %116 = zext i32 %114 to i64
  br label %117

117:                                              ; preds = %113, %131
  %118 = phi i64 [ 0, %113 ], [ %132, %131 ]
  br i1 %111, label %119, label %131

119:                                              ; preds = %117
  %120 = load double**, double*** %34, align 8
  %121 = load i32, i32* %6, align 4
  %122 = sext i32 %121 to i64
  %123 = getelementptr inbounds double*, double** %120, i64 %122
  %124 = getelementptr inbounds double*, double** %3, i64 %118
  %125 = load double*, double** %124, align 8, !tbaa !13
  %126 = load double*, double** %123, align 8, !tbaa !13
  %127 = trunc i64 %118 to i32
  br label %134

128:                                              ; preds = %131, %110
  %129 = load i32, i32* %6, align 4, !tbaa !32
  %130 = add nsw i32 %129, 1
  store i32 %130, i32* %6, align 4, !tbaa !32
  ret i32 0

131:                                              ; preds = %134, %117
  %132 = add nuw nsw i64 %118, 1
  %133 = icmp eq i64 %132, %115
  br i1 %133, label %128, label %117, !llvm.loop !49

134:                                              ; preds = %119, %134
  %135 = phi i64 [ 0, %119 ], [ %143, %134 ]
  %136 = getelementptr inbounds double, double* %125, i64 %135
  %137 = load double, double* %136, align 8, !tbaa !40
  %138 = trunc i64 %135 to i32
  %139 = mul nsw i32 %29, %138
  %140 = add nsw i32 %139, %127
  %141 = sext i32 %140 to i64
  %142 = getelementptr inbounds double, double* %126, i64 %141
  store double %137, double* %142, align 8, !tbaa !40
  %143 = add nuw nsw i64 %135, 1
  %144 = icmp eq i64 %143, %116
  br i1 %144, label %131, label %134, !llvm.loop !50
}

; Function Attrs: nofree nounwind
declare dso_local noundef i32 @printf(i8* nocapture noundef readonly, ...) local_unnamed_addr #9

; Function Attrs: noreturn nounwind
declare dso_local void @exit(i32) local_unnamed_addr #10

; Function Attrs: mustprogress uwtable
define dso_local i32 @_ZN20FEI_HYPRE_Elem_Block14loadElemMatrixEiPiPPd(%class.FEI_HYPRE_Elem_Block* nocapture nonnull align 8 dereferenceable(96) %0, i32 %1, i32* nocapture readonly %2, double** nocapture readonly %3) local_unnamed_addr #4 align 2 {
  %5 = getelementptr inbounds %class.FEI_HYPRE_Elem_Block, %class.FEI_HYPRE_Elem_Block* %0, i64 0, i32 11
  %6 = load i32, i32* %5, align 4, !tbaa !32
  %7 = getelementptr inbounds %class.FEI_HYPRE_Elem_Block, %class.FEI_HYPRE_Elem_Block* %0, i64 0, i32 1
  %8 = load i32, i32* %7, align 4, !tbaa !9
  %9 = icmp slt i32 %6, %8
  br i1 %9, label %12, label %10

10:                                               ; preds = %4
  %11 = call i32 @puts(i8* nonnull dereferenceable(1) getelementptr inbounds ([62 x i8], [62 x i8]* @str.104, i64 0, i64 0))
  call void @exit(i32 1) #23
  unreachable

12:                                               ; preds = %4
  %13 = getelementptr inbounds %class.FEI_HYPRE_Elem_Block, %class.FEI_HYPRE_Elem_Block* %0, i64 0, i32 10
  %14 = load i32, i32* %13, align 8, !tbaa !31
  %15 = sext i32 %14 to i64
  %16 = call { i64, i1 } @llvm.umul.with.overflow.i64(i64 %15, i64 4)
  %17 = extractvalue { i64, i1 } %16, 1
  %18 = extractvalue { i64, i1 } %16, 0
  %19 = select i1 %17, i64 -1, i64 %18
  %20 = call noalias nonnull i8* @_Znam(i64 %19) #22
  %21 = getelementptr inbounds %class.FEI_HYPRE_Elem_Block, %class.FEI_HYPRE_Elem_Block* %0, i64 0, i32 4
  %22 = load i32**, i32*** %21, align 8, !tbaa !12
  %23 = sext i32 %6 to i64
  %24 = getelementptr inbounds i32*, i32** %22, i64 %23
  %25 = bitcast i32** %24 to i8**
  store i8* %20, i8** %25, align 8, !tbaa !13
  %26 = getelementptr inbounds %class.FEI_HYPRE_Elem_Block, %class.FEI_HYPRE_Elem_Block* %0, i64 0, i32 2
  %27 = load i32, i32* %26, align 8, !tbaa !10
  %28 = mul nsw i32 %27, %14
  %29 = mul nsw i32 %28, %28
  %30 = zext i32 %29 to i64
  %31 = shl nuw nsw i64 %30, 3
  %32 = call noalias nonnull i8* @_Znam(i64 %31) #22
  %33 = getelementptr inbounds %class.FEI_HYPRE_Elem_Block, %class.FEI_HYPRE_Elem_Block* %0, i64 0, i32 7
  %34 = load double**, double*** %33, align 8, !tbaa !17
  %35 = getelementptr inbounds double*, double** %34, i64 %23
  %36 = bitcast double** %35 to i8**
  store i8* %32, i8** %36, align 8, !tbaa !13
  %37 = getelementptr inbounds %class.FEI_HYPRE_Elem_Block, %class.FEI_HYPRE_Elem_Block* %0, i64 0, i32 9
  %38 = load double**, double*** %37, align 8, !tbaa !21
  %39 = getelementptr inbounds double*, double** %38, i64 %23
  %40 = load double*, double** %39, align 8, !tbaa !13
  %41 = icmp eq double* %40, null
  br i1 %41, label %44, label %42

42:                                               ; preds = %12
  %43 = bitcast double* %40 to i8*
  call void @_ZdaPv(i8* %43) #21
  br label %44

44:                                               ; preds = %42, %12
  %45 = sext i32 %28 to i64
  %46 = call { i64, i1 } @llvm.umul.with.overflow.i64(i64 %45, i64 8)
  %47 = extractvalue { i64, i1 } %46, 1
  %48 = extractvalue { i64, i1 } %46, 0
  %49 = select i1 %47, i64 -1, i64 %48
  %50 = call noalias nonnull i8* @_Znam(i64 %49) #22
  %51 = load double**, double*** %37, align 8, !tbaa !21
  %52 = load i32, i32* %5, align 4, !tbaa !32
  %53 = sext i32 %52 to i64
  %54 = getelementptr inbounds double*, double** %51, i64 %53
  %55 = bitcast double** %54 to i8**
  store i8* %50, i8** %55, align 8, !tbaa !13
  %56 = getelementptr inbounds %class.FEI_HYPRE_Elem_Block, %class.FEI_HYPRE_Elem_Block* %0, i64 0, i32 3
  %57 = load i32*, i32** %56, align 8, !tbaa !11
  %58 = getelementptr inbounds i32, i32* %57, i64 %53
  store i32 %1, i32* %58, align 4, !tbaa !46
  %59 = load i32**, i32*** %21, align 8
  %60 = load i32, i32* %13, align 8, !tbaa !31
  %61 = icmp sgt i32 %60, 0
  br i1 %61, label %74, label %62

62:                                               ; preds = %74, %44
  %63 = icmp sgt i32 %28, 0
  br i1 %63, label %64, label %87

64:                                               ; preds = %62
  %65 = load double**, double*** %37, align 8
  %66 = load i32, i32* %5, align 4
  %67 = sext i32 %66 to i64
  %68 = getelementptr inbounds double*, double** %65, i64 %67
  %69 = bitcast double** %68 to i8**
  %70 = load i8*, i8** %69, align 8, !tbaa !13
  %71 = mul i32 %27, %14
  %72 = zext i32 %71 to i64
  %73 = shl nuw nsw i64 %72, 3
  call void @llvm.memset.p0i8.i64(i8* align 8 %70, i8 0, i64 %73, i1 false)
  br label %87

74:                                               ; preds = %44, %74
  %75 = phi i64 [ %83, %74 ], [ 0, %44 ]
  %76 = getelementptr inbounds i32, i32* %2, i64 %75
  %77 = load i32, i32* %76, align 4, !tbaa !46
  %78 = load i32, i32* %5, align 4, !tbaa !32
  %79 = sext i32 %78 to i64
  %80 = getelementptr inbounds i32*, i32** %59, i64 %79
  %81 = load i32*, i32** %80, align 8, !tbaa !13
  %82 = getelementptr inbounds i32, i32* %81, i64 %75
  store i32 %77, i32* %82, align 4, !tbaa !46
  %83 = add nuw nsw i64 %75, 1
  %84 = load i32, i32* %13, align 8, !tbaa !31
  %85 = sext i32 %84 to i64
  %86 = icmp slt i64 %83, %85
  br i1 %86, label %74, label %62, !llvm.loop !51

87:                                               ; preds = %64, %62
  %88 = icmp sgt i32 %28, 0
  %89 = icmp sgt i32 %28, 0
  br i1 %89, label %90, label %105

90:                                               ; preds = %87
  %91 = mul i32 %27, %14
  %92 = zext i32 %91 to i64
  %93 = zext i32 %91 to i64
  br label %94

94:                                               ; preds = %90, %108
  %95 = phi i64 [ 0, %90 ], [ %109, %108 ]
  br i1 %88, label %96, label %108

96:                                               ; preds = %94
  %97 = load double**, double*** %33, align 8
  %98 = load i32, i32* %5, align 4
  %99 = sext i32 %98 to i64
  %100 = getelementptr inbounds double*, double** %97, i64 %99
  %101 = getelementptr inbounds double*, double** %3, i64 %95
  %102 = load double*, double** %101, align 8, !tbaa !13
  %103 = load double*, double** %100, align 8, !tbaa !13
  %104 = trunc i64 %95 to i32
  br label %111

105:                                              ; preds = %108, %87
  %106 = load i32, i32* %5, align 4, !tbaa !32
  %107 = add nsw i32 %106, 1
  store i32 %107, i32* %5, align 4, !tbaa !32
  ret i32 0

108:                                              ; preds = %111, %94
  %109 = add nuw nsw i64 %95, 1
  %110 = icmp eq i64 %109, %92
  br i1 %110, label %105, label %94, !llvm.loop !52

111:                                              ; preds = %96, %111
  %112 = phi i64 [ 0, %96 ], [ %120, %111 ]
  %113 = getelementptr inbounds double, double* %102, i64 %112
  %114 = load double, double* %113, align 8, !tbaa !40
  %115 = trunc i64 %112 to i32
  %116 = mul nsw i32 %28, %115
  %117 = add nsw i32 %116, %104
  %118 = sext i32 %117 to i64
  %119 = getelementptr inbounds double, double* %103, i64 %118
  store double %114, double* %119, align 8, !tbaa !40
  %120 = add nuw nsw i64 %112, 1
  %121 = icmp eq i64 %120, %93
  br i1 %121, label %108, label %111, !llvm.loop !53
}

; Function Attrs: mustprogress uwtable
define dso_local i32 @_ZN20FEI_HYPRE_Elem_Block11loadElemRHSEiPd(%class.FEI_HYPRE_Elem_Block* nocapture nonnull align 8 dereferenceable(96) %0, i32 %1, double* nocapture readonly %2) local_unnamed_addr #4 align 2 {
  %4 = getelementptr inbounds %class.FEI_HYPRE_Elem_Block, %class.FEI_HYPRE_Elem_Block* %0, i64 0, i32 10
  %5 = load i32, i32* %4, align 8, !tbaa !31
  %6 = getelementptr inbounds %class.FEI_HYPRE_Elem_Block, %class.FEI_HYPRE_Elem_Block* %0, i64 0, i32 2
  %7 = load i32, i32* %6, align 8, !tbaa !10
  %8 = mul nsw i32 %7, %5
  %9 = getelementptr inbounds %class.FEI_HYPRE_Elem_Block, %class.FEI_HYPRE_Elem_Block* %0, i64 0, i32 11
  %10 = load i32, i32* %9, align 4, !tbaa !32
  %11 = getelementptr inbounds %class.FEI_HYPRE_Elem_Block, %class.FEI_HYPRE_Elem_Block* %0, i64 0, i32 1
  %12 = load i32, i32* %11, align 4, !tbaa !9
  %13 = icmp slt i32 %10, %12
  br i1 %13, label %15, label %14

14:                                               ; preds = %3
  store i32 0, i32* %9, align 4, !tbaa !32
  br label %15

15:                                               ; preds = %14, %3
  %16 = icmp sgt i32 %12, 0
  br i1 %16, label %17, label %74

17:                                               ; preds = %15
  %18 = getelementptr inbounds %class.FEI_HYPRE_Elem_Block, %class.FEI_HYPRE_Elem_Block* %0, i64 0, i32 3
  %19 = load i32*, i32** %18, align 8, !tbaa !11
  %20 = load i32, i32* %9, align 4, !tbaa !32
  %21 = sext i32 %20 to i64
  %22 = getelementptr inbounds i32, i32* %19, i64 %21
  %23 = load i32, i32* %22, align 4, !tbaa !46
  %24 = icmp eq i32 %23, %1
  br i1 %24, label %74, label %25

25:                                               ; preds = %17
  %26 = getelementptr inbounds %class.FEI_HYPRE_Elem_Block, %class.FEI_HYPRE_Elem_Block* %0, i64 0, i32 5
  %27 = load i32*, i32** %26, align 8, !tbaa !23
  %28 = icmp eq i32* %27, null
  br i1 %28, label %29, label %70

29:                                               ; preds = %25
  %30 = sext i32 %12 to i64
  %31 = call { i64, i1 } @llvm.umul.with.overflow.i64(i64 %30, i64 4)
  %32 = extractvalue { i64, i1 } %31, 1
  %33 = extractvalue { i64, i1 } %31, 0
  %34 = select i1 %32, i64 -1, i64 %33
  %35 = call noalias nonnull i8* @_Znam(i64 %34) #22
  %36 = bitcast i32** %26 to i8**
  store i8* %35, i8** %36, align 8, !tbaa !23
  %37 = call noalias nonnull i8* @_Znam(i64 %34) #22
  %38 = getelementptr inbounds %class.FEI_HYPRE_Elem_Block, %class.FEI_HYPRE_Elem_Block* %0, i64 0, i32 6
  %39 = bitcast i32** %38 to i8**
  store i8* %37, i8** %39, align 8, !tbaa !24
  %40 = bitcast i8* %35 to i32*
  %41 = load i32, i32* %11, align 4, !tbaa !9
  %42 = icmp sgt i32 %41, 0
  br i1 %42, label %43, label %46

43:                                               ; preds = %29
  %44 = load i32, i32* %11, align 4, !tbaa !9
  %45 = sext i32 %44 to i64
  br label %50

46:                                               ; preds = %50, %29
  %47 = load i32*, i32** %38, align 8
  %48 = load i32, i32* %11, align 4, !tbaa !9
  %49 = icmp sgt i32 %48, 0
  br i1 %49, label %57, label %65

50:                                               ; preds = %43, %50
  %51 = phi i64 [ %55, %50 ], [ 0, %43 ]
  %52 = getelementptr inbounds i32, i32* %19, i64 %51
  %53 = load i32, i32* %52, align 4, !tbaa !46
  %54 = getelementptr inbounds i32, i32* %40, i64 %51
  store i32 %53, i32* %54, align 4, !tbaa !46
  %55 = add nuw nsw i64 %51, 1
  %56 = icmp slt i64 %55, %45
  br i1 %56, label %50, label %46, !llvm.loop !54

57:                                               ; preds = %46, %57
  %58 = phi i64 [ %61, %57 ], [ 0, %46 ]
  %59 = getelementptr inbounds i32, i32* %47, i64 %58
  %60 = trunc i64 %58 to i32
  store i32 %60, i32* %59, align 4, !tbaa !46
  %61 = add nuw nsw i64 %58, 1
  %62 = load i32, i32* %11, align 4, !tbaa !9
  %63 = sext i32 %62 to i64
  %64 = icmp slt i64 %61, %63
  br i1 %64, label %57, label %65, !llvm.loop !55

65:                                               ; preds = %57, %46
  %66 = phi i32 [ %48, %46 ], [ %62, %57 ]
  %67 = load i32*, i32** %26, align 8, !tbaa !23
  %68 = load i32*, i32** %38, align 8, !tbaa !24
  %69 = add nsw i32 %66, -1
  call void @_ZN14FEI_HYPRE_Impl8IntSort2EPiS0_ii(i32* %67, i32* %68, i32 0, i32 %69)
  br label %70

70:                                               ; preds = %65, %25
  %71 = load i32*, i32** %26, align 8, !tbaa !23
  %72 = load i32, i32* %11, align 4, !tbaa !9
  %73 = call i32 @HYPRE_LSI_Search(i32* %71, i32 %1, i32 %72)
  store i32 %73, i32* %9, align 4, !tbaa !32
  br label %74

74:                                               ; preds = %70, %17, %15
  %75 = getelementptr inbounds %class.FEI_HYPRE_Elem_Block, %class.FEI_HYPRE_Elem_Block* %0, i64 0, i32 8
  %76 = load double**, double*** %75, align 8, !tbaa !19
  %77 = icmp eq double** %76, null
  br i1 %77, label %78, label %96

78:                                               ; preds = %74
  %79 = load i32, i32* %11, align 4, !tbaa !9
  %80 = sext i32 %79 to i64
  %81 = call { i64, i1 } @llvm.umul.with.overflow.i64(i64 %80, i64 8)
  %82 = extractvalue { i64, i1 } %81, 1
  %83 = extractvalue { i64, i1 } %81, 0
  %84 = select i1 %82, i64 -1, i64 %83
  %85 = call noalias nonnull i8* @_Znam(i64 %84) #22
  %86 = bitcast double*** %75 to i8**
  store i8* %85, i8** %86, align 8, !tbaa !19
  %87 = icmp sgt i32 %79, 0
  br i1 %87, label %88, label %96

88:                                               ; preds = %78
  %89 = zext i32 %79 to i64
  br label %90

90:                                               ; preds = %88, %90
  %91 = phi i64 [ 0, %88 ], [ %94, %90 ]
  %92 = load double**, double*** %75, align 8, !tbaa !19
  %93 = getelementptr inbounds double*, double** %92, i64 %91
  store double* null, double** %93, align 8, !tbaa !13
  %94 = add nuw nsw i64 %91, 1
  %95 = icmp eq i64 %94, %89
  br i1 %95, label %96, label %90, !llvm.loop !56

96:                                               ; preds = %90, %78, %74
  %97 = load double**, double*** %75, align 8, !tbaa !19
  %98 = load i32, i32* %9, align 4, !tbaa !32
  %99 = sext i32 %98 to i64
  %100 = getelementptr inbounds double*, double** %97, i64 %99
  %101 = load double*, double** %100, align 8, !tbaa !13
  %102 = icmp eq double* %101, null
  br i1 %102, label %103, label %111

103:                                              ; preds = %96
  %104 = sext i32 %8 to i64
  %105 = call { i64, i1 } @llvm.umul.with.overflow.i64(i64 %104, i64 8)
  %106 = extractvalue { i64, i1 } %105, 1
  %107 = extractvalue { i64, i1 } %105, 0
  %108 = select i1 %106, i64 -1, i64 %107
  %109 = call noalias nonnull i8* @_Znam(i64 %108) #22
  %110 = bitcast double** %100 to i8**
  store i8* %109, i8** %110, align 8, !tbaa !13
  br label %111

111:                                              ; preds = %103, %96
  %112 = icmp sgt i32 %8, 0
  br i1 %112, label %113, label %126

113:                                              ; preds = %111
  %114 = load double**, double*** %75, align 8
  %115 = getelementptr inbounds double*, double** %114, i64 %99
  %116 = load double*, double** %115, align 8, !tbaa !13
  %117 = mul i32 %7, %5
  %118 = zext i32 %117 to i64
  br label %119

119:                                              ; preds = %113, %119
  %120 = phi i64 [ 0, %113 ], [ %124, %119 ]
  %121 = getelementptr inbounds double, double* %2, i64 %120
  %122 = load double, double* %121, align 8, !tbaa !40
  %123 = getelementptr inbounds double, double* %116, i64 %120
  store double %122, double* %123, align 8, !tbaa !40
  %124 = add nuw nsw i64 %120, 1
  %125 = icmp eq i64 %124, %118
  br i1 %125, label %126, label %119, !llvm.loop !57

126:                                              ; preds = %119, %111
  %127 = add nsw i32 %98, 1
  store i32 %127, i32* %9, align 4, !tbaa !32
  ret i32 0
}

; Function Attrs: mustprogress nofree nosync nounwind uwtable
define dso_local void @_ZN14FEI_HYPRE_Impl8IntSort2EPiS0_ii(i32* %0, i32* %1, i32 %2, i32 %3) local_unnamed_addr #11 align 2 {
  %5 = icmp slt i32 %2, %3
  br i1 %5, label %6, label %51

6:                                                ; preds = %4
  %7 = add nsw i32 %3, %2
  %8 = sdiv i32 %7, 2
  %9 = sext i32 %2 to i64
  %10 = getelementptr inbounds i32, i32* %0, i64 %9
  %11 = load i32, i32* %10, align 4, !tbaa !46
  %12 = sext i32 %8 to i64
  %13 = getelementptr inbounds i32, i32* %0, i64 %12
  %14 = load i32, i32* %13, align 4, !tbaa !46
  store i32 %14, i32* %10, align 4, !tbaa !46
  store i32 %11, i32* %13, align 4, !tbaa !46
  %15 = getelementptr inbounds i32, i32* %1, i64 %9
  %16 = load i32, i32* %15, align 4, !tbaa !46
  %17 = getelementptr inbounds i32, i32* %1, i64 %12
  %18 = load i32, i32* %17, align 4, !tbaa !46
  store i32 %18, i32* %15, align 4, !tbaa !46
  store i32 %16, i32* %17, align 4, !tbaa !46
  %19 = sext i32 %2 to i64
  %20 = sext i32 %3 to i64
  br label %21

21:                                               ; preds = %6, %38
  %22 = phi i64 [ %19, %6 ], [ %24, %38 ]
  %23 = phi i32 [ %2, %6 ], [ %39, %38 ]
  %24 = add nsw i64 %22, 1
  %25 = getelementptr inbounds i32, i32* %0, i64 %24
  %26 = load i32, i32* %25, align 4, !tbaa !46
  %27 = load i32, i32* %10, align 4, !tbaa !46
  %28 = icmp slt i32 %26, %27
  br i1 %28, label %29, label %38

29:                                               ; preds = %21
  %30 = add nsw i32 %23, 1
  %31 = sext i32 %30 to i64
  %32 = getelementptr inbounds i32, i32* %0, i64 %31
  %33 = load i32, i32* %32, align 4, !tbaa !46
  store i32 %26, i32* %32, align 4, !tbaa !46
  store i32 %33, i32* %25, align 4, !tbaa !46
  %34 = getelementptr inbounds i32, i32* %1, i64 %31
  %35 = load i32, i32* %34, align 4, !tbaa !46
  %36 = getelementptr inbounds i32, i32* %1, i64 %24
  %37 = load i32, i32* %36, align 4, !tbaa !46
  store i32 %37, i32* %34, align 4, !tbaa !46
  store i32 %35, i32* %36, align 4, !tbaa !46
  br label %38

38:                                               ; preds = %21, %29
  %39 = phi i32 [ %30, %29 ], [ %23, %21 ]
  %40 = icmp eq i64 %24, %20
  br i1 %40, label %41, label %21, !llvm.loop !58

41:                                               ; preds = %38
  %42 = load i32, i32* %10, align 4, !tbaa !46
  %43 = sext i32 %39 to i64
  %44 = getelementptr inbounds i32, i32* %0, i64 %43
  %45 = load i32, i32* %44, align 4, !tbaa !46
  store i32 %45, i32* %10, align 4, !tbaa !46
  store i32 %42, i32* %44, align 4, !tbaa !46
  %46 = load i32, i32* %15, align 4, !tbaa !46
  %47 = getelementptr inbounds i32, i32* %1, i64 %43
  %48 = load i32, i32* %47, align 4, !tbaa !46
  store i32 %48, i32* %15, align 4, !tbaa !46
  store i32 %46, i32* %47, align 4, !tbaa !46
  %49 = add nsw i32 %39, -1
  call void @_ZN14FEI_HYPRE_Impl8IntSort2EPiS0_ii(i32* %0, i32* %1, i32 %2, i32 %49)
  %50 = add nsw i32 %39, 1
  call void @_ZN14FEI_HYPRE_Impl8IntSort2EPiS0_ii(i32* %0, i32* %1, i32 %50, i32 %3)
  br label %51

51:                                               ; preds = %4, %41
  ret void
}

declare dso_local i32 @HYPRE_LSI_Search(i32*, i32, i32) local_unnamed_addr #12

; Function Attrs: mustprogress uwtable
define dso_local i32 @_ZN20FEI_HYPRE_Elem_Block17checkLoadCompleteEv(%class.FEI_HYPRE_Elem_Block* nocapture nonnull align 8 dereferenceable(96) %0) local_unnamed_addr #4 align 2 {
  %2 = getelementptr inbounds %class.FEI_HYPRE_Elem_Block, %class.FEI_HYPRE_Elem_Block* %0, i64 0, i32 11
  %3 = load i32, i32* %2, align 4, !tbaa !32
  %4 = getelementptr inbounds %class.FEI_HYPRE_Elem_Block, %class.FEI_HYPRE_Elem_Block* %0, i64 0, i32 1
  %5 = load i32, i32* %4, align 4, !tbaa !9
  %6 = icmp eq i32 %3, %5
  br i1 %6, label %7, label %34

7:                                                ; preds = %1
  %8 = getelementptr inbounds %class.FEI_HYPRE_Elem_Block, %class.FEI_HYPRE_Elem_Block* %0, i64 0, i32 12
  %9 = load double*, double** %8, align 8, !tbaa !25
  %10 = icmp eq double* %9, null
  br i1 %10, label %13, label %11

11:                                               ; preds = %7
  %12 = bitcast double* %9 to i8*
  call void @_ZdaPv(i8* %12) #21
  br label %13

13:                                               ; preds = %11, %7
  %14 = getelementptr inbounds %class.FEI_HYPRE_Elem_Block, %class.FEI_HYPRE_Elem_Block* %0, i64 0, i32 13
  %15 = load double*, double** %14, align 8, !tbaa !26
  %16 = icmp eq double* %15, null
  br i1 %16, label %19, label %17

17:                                               ; preds = %13
  %18 = bitcast double* %15 to i8*
  call void @_ZdaPv(i8* %18) #21
  br label %19

19:                                               ; preds = %17, %13
  %20 = getelementptr inbounds %class.FEI_HYPRE_Elem_Block, %class.FEI_HYPRE_Elem_Block* %0, i64 0, i32 10
  %21 = load i32, i32* %20, align 8, !tbaa !31
  %22 = getelementptr inbounds %class.FEI_HYPRE_Elem_Block, %class.FEI_HYPRE_Elem_Block* %0, i64 0, i32 2
  %23 = load i32, i32* %22, align 8, !tbaa !10
  %24 = mul nsw i32 %23, %21
  %25 = sext i32 %24 to i64
  %26 = call { i64, i1 } @llvm.umul.with.overflow.i64(i64 %25, i64 8)
  %27 = extractvalue { i64, i1 } %26, 1
  %28 = extractvalue { i64, i1 } %26, 0
  %29 = select i1 %27, i64 -1, i64 %28
  %30 = call noalias nonnull i8* @_Znam(i64 %29) #22
  %31 = bitcast double** %8 to i8**
  store i8* %30, i8** %31, align 8, !tbaa !25
  %32 = call noalias nonnull i8* @_Znam(i64 %29) #22
  %33 = bitcast double** %14 to i8**
  store i8* %32, i8** %33, align 8, !tbaa !26
  br label %34

34:                                               ; preds = %1, %19
  %35 = phi i32 [ 0, %19 ], [ 1, %1 ]
  ret i32 %35
}

; Function Attrs: uwtable
define dso_local void @_ZN14FEI_HYPRE_ImplC2Ei(%class.FEI_HYPRE_Impl* nonnull align 8 dereferenceable(352) %0, i32 %1) unnamed_addr #13 align 2 {
  %3 = getelementptr inbounds %class.FEI_HYPRE_Impl, %class.FEI_HYPRE_Impl* %0, i64 0, i32 0
  store i32 %1, i32* %3, align 8, !tbaa !59
  %4 = getelementptr inbounds %class.FEI_HYPRE_Impl, %class.FEI_HYPRE_Impl* %0, i64 0, i32 1
  %5 = call i32 @MPI_Comm_rank(i32 %1, i32* nonnull %4)
  %6 = getelementptr inbounds %class.FEI_HYPRE_Impl, %class.FEI_HYPRE_Impl* %0, i64 0, i32 2
  %7 = getelementptr inbounds %class.FEI_HYPRE_Impl, %class.FEI_HYPRE_Impl* %0, i64 0, i32 7
  %8 = bitcast i32* %6 to i8*
  call void @llvm.memset.p0i8.i64(i8* noundef nonnull align 8 dereferenceable(24) %8, i8 0, i64 24, i1 false)
  store i32 1, i32* %7, align 8, !tbaa !61
  %9 = getelementptr inbounds %class.FEI_HYPRE_Impl, %class.FEI_HYPRE_Impl* %0, i64 0, i32 8
  %10 = getelementptr inbounds %class.FEI_HYPRE_Impl, %class.FEI_HYPRE_Impl* %0, i64 0, i32 12
  %11 = getelementptr inbounds %class.FEI_HYPRE_Impl, %class.FEI_HYPRE_Impl* %0, i64 0, i32 16
  %12 = getelementptr inbounds %class.FEI_HYPRE_Impl, %class.FEI_HYPRE_Impl* %0, i64 0, i32 20
  %13 = getelementptr inbounds %class.FEI_HYPRE_Impl, %class.FEI_HYPRE_Impl* %0, i64 0, i32 24
  %14 = bitcast i32** %9 to i8*
  call void @llvm.memset.p0i8.i64(i8* noundef nonnull align 8 dereferenceable(28) %14, i8 0, i64 28, i1 false)
  %15 = bitcast i32** %10 to i8*
  call void @llvm.memset.p0i8.i64(i8* noundef nonnull align 8 dereferenceable(28) %15, i8 0, i64 28, i1 false)
  %16 = bitcast i32** %11 to i8*
  call void @llvm.memset.p0i8.i64(i8* noundef nonnull align 8 dereferenceable(28) %16, i8 0, i64 28, i1 false)
  %17 = bitcast i32** %12 to i8*
  call void @llvm.memset.p0i8.i64(i8* noundef nonnull align 8 dereferenceable(28) %17, i8 0, i64 28, i1 false)
  store i32 1000, i32* %13, align 4, !tbaa !62
  %18 = getelementptr inbounds %class.FEI_HYPRE_Impl, %class.FEI_HYPRE_Impl* %0, i64 0, i32 26
  store i32 0, i32* %18, align 8, !tbaa !63
  %19 = getelementptr inbounds %class.FEI_HYPRE_Impl, %class.FEI_HYPRE_Impl* %0, i64 0, i32 25
  store double 0x3EB0C6F7A0B5ED8D, double* %19, align 8, !tbaa !64
  %20 = getelementptr inbounds %class.FEI_HYPRE_Impl, %class.FEI_HYPRE_Impl* %0, i64 0, i32 27
  store i32 0, i32* %20, align 4, !tbaa !65
  %21 = getelementptr inbounds %class.FEI_HYPRE_Impl, %class.FEI_HYPRE_Impl* %0, i64 0, i32 28
  store double 0.000000e+00, double* %21, align 8, !tbaa !66
  %22 = getelementptr inbounds %class.FEI_HYPRE_Impl, %class.FEI_HYPRE_Impl* %0, i64 0, i32 29
  store i32 20, i32* %22, align 8, !tbaa !67
  %23 = getelementptr inbounds %class.FEI_HYPRE_Impl, %class.FEI_HYPRE_Impl* %0, i64 0, i32 30
  %24 = getelementptr inbounds %class.FEI_HYPRE_Impl, %class.FEI_HYPRE_Impl* %0, i64 0, i32 38
  %25 = bitcast i32** %23 to i8*
  call void @llvm.memset.p0i8.i64(i8* noundef nonnull align 8 dereferenceable(60) %25, i8 0, i64 60, i1 false)
  %26 = bitcast i32** %24 to i8*
  call void @llvm.memset.p0i8.i64(i8* noundef nonnull align 8 dereferenceable(88) %26, i8 0, i64 88, i1 false)
  ret void
}

declare dso_local i32 @MPI_Comm_rank(i32, i32*) local_unnamed_addr #12

; Function Attrs: nounwind uwtable
define dso_local void @_ZN14FEI_HYPRE_ImplD2Ev(%class.FEI_HYPRE_Impl* nonnull readonly align 8 dereferenceable(352) %0) unnamed_addr #1 align 2 personality i8* bitcast (i32 (...)* @__gxx_personality_v0 to i8*) {
  %2 = getelementptr inbounds %class.FEI_HYPRE_Impl, %class.FEI_HYPRE_Impl* %0, i64 0, i32 2
  %3 = load i32, i32* %2, align 8, !tbaa !68
  %4 = icmp sgt i32 %3, 0
  br i1 %4, label %5, label %9

5:                                                ; preds = %1
  %6 = getelementptr inbounds %class.FEI_HYPRE_Impl, %class.FEI_HYPRE_Impl* %0, i64 0, i32 1
  %7 = load i32, i32* %6, align 4, !tbaa !69
  %8 = call i32 (i8*, ...) @printf(i8* nonnull dereferenceable(1) getelementptr inbounds ([33 x i8], [33 x i8]* @.str.2, i64 0, i64 0), i32 %7)
  br label %9

9:                                                ; preds = %5, %1
  %10 = getelementptr inbounds %class.FEI_HYPRE_Impl, %class.FEI_HYPRE_Impl* %0, i64 0, i32 3
  %11 = getelementptr inbounds %class.FEI_HYPRE_Impl, %class.FEI_HYPRE_Impl* %0, i64 0, i32 4
  %12 = load i32, i32* %10, align 4, !tbaa !70
  %13 = icmp sgt i32 %12, 0
  br i1 %13, label %18, label %14

14:                                               ; preds = %26, %9
  %15 = getelementptr inbounds %class.FEI_HYPRE_Impl, %class.FEI_HYPRE_Impl* %0, i64 0, i32 8
  %16 = load i32*, i32** %15, align 8, !tbaa !71
  %17 = icmp eq i32* %16, null
  br i1 %17, label %33, label %31

18:                                               ; preds = %9, %26
  %19 = phi i64 [ %27, %26 ], [ 0, %9 ]
  %20 = load %class.FEI_HYPRE_Elem_Block**, %class.FEI_HYPRE_Elem_Block*** %11, align 8, !tbaa !72
  %21 = getelementptr inbounds %class.FEI_HYPRE_Elem_Block*, %class.FEI_HYPRE_Elem_Block** %20, i64 %19
  %22 = load %class.FEI_HYPRE_Elem_Block*, %class.FEI_HYPRE_Elem_Block** %21, align 8, !tbaa !13
  %23 = icmp eq %class.FEI_HYPRE_Elem_Block* %22, null
  br i1 %23, label %26, label %24

24:                                               ; preds = %18
  call void @_ZN20FEI_HYPRE_Elem_BlockD2Ev(%class.FEI_HYPRE_Elem_Block* nonnull align 8 dereferenceable(96) %22) #24
  %25 = bitcast %class.FEI_HYPRE_Elem_Block* %22 to i8*
  call void @_ZdlPv(i8* %25) #21
  br label %26

26:                                               ; preds = %18, %24
  %27 = add nuw nsw i64 %19, 1
  %28 = load i32, i32* %10, align 4, !tbaa !70
  %29 = sext i32 %28 to i64
  %30 = icmp slt i64 %27, %29
  br i1 %30, label %18, label %14, !llvm.loop !73

31:                                               ; preds = %14
  %32 = bitcast i32* %16 to i8*
  call void @_ZdaPv(i8* %32) #21
  br label %33

33:                                               ; preds = %31, %14
  %34 = getelementptr inbounds %class.FEI_HYPRE_Impl, %class.FEI_HYPRE_Impl* %0, i64 0, i32 9
  %35 = load i32*, i32** %34, align 8, !tbaa !74
  %36 = icmp eq i32* %35, null
  br i1 %36, label %39, label %37

37:                                               ; preds = %33
  %38 = bitcast i32* %35 to i8*
  call void @_ZdaPv(i8* %38) #21
  br label %39

39:                                               ; preds = %37, %33
  %40 = getelementptr inbounds %class.FEI_HYPRE_Impl, %class.FEI_HYPRE_Impl* %0, i64 0, i32 10
  %41 = load i32*, i32** %40, align 8, !tbaa !75
  %42 = icmp eq i32* %41, null
  br i1 %42, label %45, label %43

43:                                               ; preds = %39
  %44 = bitcast i32* %41 to i8*
  call void @_ZdaPv(i8* %44) #21
  br label %45

45:                                               ; preds = %43, %39
  %46 = getelementptr inbounds %class.FEI_HYPRE_Impl, %class.FEI_HYPRE_Impl* %0, i64 0, i32 16
  %47 = load i32*, i32** %46, align 8, !tbaa !76
  %48 = icmp eq i32* %47, null
  br i1 %48, label %51, label %49

49:                                               ; preds = %45
  %50 = bitcast i32* %47 to i8*
  call void @_ZdaPv(i8* %50) #21
  br label %51

51:                                               ; preds = %49, %45
  %52 = getelementptr inbounds %class.FEI_HYPRE_Impl, %class.FEI_HYPRE_Impl* %0, i64 0, i32 17
  %53 = load i32*, i32** %52, align 8, !tbaa !77
  %54 = icmp eq i32* %53, null
  br i1 %54, label %57, label %55

55:                                               ; preds = %51
  %56 = bitcast i32* %53 to i8*
  call void @_ZdaPv(i8* %56) #21
  br label %57

57:                                               ; preds = %55, %51
  %58 = getelementptr inbounds %class.FEI_HYPRE_Impl, %class.FEI_HYPRE_Impl* %0, i64 0, i32 18
  %59 = load i32**, i32*** %58, align 8, !tbaa !78
  %60 = icmp eq i32** %59, null
  br i1 %60, label %83, label %61

61:                                               ; preds = %57
  %62 = getelementptr inbounds %class.FEI_HYPRE_Impl, %class.FEI_HYPRE_Impl* %0, i64 0, i32 15
  %63 = load i32, i32* %62, align 8, !tbaa !79
  %64 = icmp sgt i32 %63, 0
  br i1 %64, label %68, label %65

65:                                               ; preds = %76, %61
  %66 = load i32**, i32*** %58, align 8, !tbaa !78
  %67 = icmp eq i32** %66, null
  br i1 %67, label %83, label %81

68:                                               ; preds = %61, %76
  %69 = phi i64 [ %77, %76 ], [ 0, %61 ]
  %70 = load i32**, i32*** %58, align 8, !tbaa !78
  %71 = getelementptr inbounds i32*, i32** %70, i64 %69
  %72 = load i32*, i32** %71, align 8, !tbaa !13
  %73 = icmp eq i32* %72, null
  br i1 %73, label %76, label %74

74:                                               ; preds = %68
  %75 = bitcast i32* %72 to i8*
  call void @_ZdaPv(i8* %75) #21
  br label %76

76:                                               ; preds = %68, %74
  %77 = add nuw nsw i64 %69, 1
  %78 = load i32, i32* %62, align 8, !tbaa !79
  %79 = sext i32 %78 to i64
  %80 = icmp slt i64 %77, %79
  br i1 %80, label %68, label %65, !llvm.loop !80

81:                                               ; preds = %65
  %82 = bitcast i32** %66 to i8*
  call void @_ZdaPv(i8* %82) #21
  br label %83

83:                                               ; preds = %65, %81, %57
  %84 = getelementptr inbounds %class.FEI_HYPRE_Impl, %class.FEI_HYPRE_Impl* %0, i64 0, i32 20
  %85 = load i32*, i32** %84, align 8, !tbaa !81
  %86 = icmp eq i32* %85, null
  br i1 %86, label %89, label %87

87:                                               ; preds = %83
  %88 = bitcast i32* %85 to i8*
  call void @_ZdaPv(i8* %88) #21
  br label %89

89:                                               ; preds = %87, %83
  %90 = getelementptr inbounds %class.FEI_HYPRE_Impl, %class.FEI_HYPRE_Impl* %0, i64 0, i32 21
  %91 = load i32*, i32** %90, align 8, !tbaa !82
  %92 = icmp eq i32* %91, null
  br i1 %92, label %95, label %93

93:                                               ; preds = %89
  %94 = bitcast i32* %91 to i8*
  call void @_ZdaPv(i8* %94) #21
  br label %95

95:                                               ; preds = %93, %89
  %96 = getelementptr inbounds %class.FEI_HYPRE_Impl, %class.FEI_HYPRE_Impl* %0, i64 0, i32 22
  %97 = load i32**, i32*** %96, align 8, !tbaa !83
  %98 = icmp eq i32** %97, null
  br i1 %98, label %121, label %99

99:                                               ; preds = %95
  %100 = getelementptr inbounds %class.FEI_HYPRE_Impl, %class.FEI_HYPRE_Impl* %0, i64 0, i32 19
  %101 = load i32, i32* %100, align 8, !tbaa !84
  %102 = icmp sgt i32 %101, 0
  br i1 %102, label %106, label %103

103:                                              ; preds = %114, %99
  %104 = load i32**, i32*** %96, align 8, !tbaa !83
  %105 = icmp eq i32** %104, null
  br i1 %105, label %121, label %119

106:                                              ; preds = %99, %114
  %107 = phi i64 [ %115, %114 ], [ 0, %99 ]
  %108 = load i32**, i32*** %96, align 8, !tbaa !83
  %109 = getelementptr inbounds i32*, i32** %108, i64 %107
  %110 = load i32*, i32** %109, align 8, !tbaa !13
  %111 = icmp eq i32* %110, null
  br i1 %111, label %114, label %112

112:                                              ; preds = %106
  %113 = bitcast i32* %110 to i8*
  call void @_ZdaPv(i8* %113) #21
  br label %114

114:                                              ; preds = %106, %112
  %115 = add nuw nsw i64 %107, 1
  %116 = load i32, i32* %100, align 8, !tbaa !84
  %117 = sext i32 %116 to i64
  %118 = icmp slt i64 %115, %117
  br i1 %118, label %106, label %103, !llvm.loop !85

119:                                              ; preds = %103
  %120 = bitcast i32** %104 to i8*
  call void @_ZdaPv(i8* %120) #21
  br label %121

121:                                              ; preds = %103, %119, %95
  %122 = getelementptr inbounds %class.FEI_HYPRE_Impl, %class.FEI_HYPRE_Impl* %0, i64 0, i32 30
  %123 = load i32*, i32** %122, align 8, !tbaa !86
  %124 = icmp eq i32* %123, null
  br i1 %124, label %127, label %125

125:                                              ; preds = %121
  %126 = bitcast i32* %123 to i8*
  call void @_ZdaPv(i8* %126) #21
  br label %127

127:                                              ; preds = %125, %121
  %128 = getelementptr inbounds %class.FEI_HYPRE_Impl, %class.FEI_HYPRE_Impl* %0, i64 0, i32 31
  %129 = load i32*, i32** %128, align 8, !tbaa !87
  %130 = icmp eq i32* %129, null
  br i1 %130, label %133, label %131

131:                                              ; preds = %127
  %132 = bitcast i32* %129 to i8*
  call void @_ZdaPv(i8* %132) #21
  br label %133

133:                                              ; preds = %131, %127
  %134 = getelementptr inbounds %class.FEI_HYPRE_Impl, %class.FEI_HYPRE_Impl* %0, i64 0, i32 32
  %135 = load double*, double** %134, align 8, !tbaa !88
  %136 = icmp eq double* %135, null
  br i1 %136, label %139, label %137

137:                                              ; preds = %133
  %138 = bitcast double* %135 to i8*
  call void @_ZdaPv(i8* %138) #21
  br label %139

139:                                              ; preds = %137, %133
  %140 = getelementptr inbounds %class.FEI_HYPRE_Impl, %class.FEI_HYPRE_Impl* %0, i64 0, i32 33
  %141 = load i32*, i32** %140, align 8, !tbaa !89
  %142 = icmp eq i32* %141, null
  br i1 %142, label %145, label %143

143:                                              ; preds = %139
  %144 = bitcast i32* %141 to i8*
  call void @_ZdaPv(i8* %144) #21
  br label %145

145:                                              ; preds = %143, %139
  %146 = getelementptr inbounds %class.FEI_HYPRE_Impl, %class.FEI_HYPRE_Impl* %0, i64 0, i32 34
  %147 = load i32*, i32** %146, align 8, !tbaa !90
  %148 = icmp eq i32* %147, null
  br i1 %148, label %151, label %149

149:                                              ; preds = %145
  %150 = bitcast i32* %147 to i8*
  call void @_ZdaPv(i8* %150) #21
  br label %151

151:                                              ; preds = %149, %145
  %152 = getelementptr inbounds %class.FEI_HYPRE_Impl, %class.FEI_HYPRE_Impl* %0, i64 0, i32 35
  %153 = load double*, double** %152, align 8, !tbaa !91
  %154 = icmp eq double* %153, null
  br i1 %154, label %157, label %155

155:                                              ; preds = %151
  %156 = bitcast double* %153 to i8*
  call void @_ZdaPv(i8* %156) #21
  br label %157

157:                                              ; preds = %155, %151
  %158 = getelementptr inbounds %class.FEI_HYPRE_Impl, %class.FEI_HYPRE_Impl* %0, i64 0, i32 36
  %159 = load double*, double** %158, align 8, !tbaa !92
  %160 = icmp eq double* %159, null
  br i1 %160, label %163, label %161

161:                                              ; preds = %157
  %162 = bitcast double* %159 to i8*
  call void @_ZdaPv(i8* %162) #21
  br label %163

163:                                              ; preds = %161, %157
  %164 = getelementptr inbounds %class.FEI_HYPRE_Impl, %class.FEI_HYPRE_Impl* %0, i64 0, i32 42
  %165 = load double*, double** %164, align 8, !tbaa !93
  %166 = icmp eq double* %165, null
  br i1 %166, label %169, label %167

167:                                              ; preds = %163
  %168 = bitcast double* %165 to i8*
  call void @_ZdaPv(i8* %168) #21
  br label %169

169:                                              ; preds = %167, %163
  %170 = getelementptr inbounds %class.FEI_HYPRE_Impl, %class.FEI_HYPRE_Impl* %0, i64 0, i32 43
  %171 = load double*, double** %170, align 8, !tbaa !94
  %172 = icmp eq double* %171, null
  br i1 %172, label %175, label %173

173:                                              ; preds = %169
  %174 = bitcast double* %171 to i8*
  call void @_ZdaPv(i8* %174) #21
  br label %175

175:                                              ; preds = %173, %169
  %176 = getelementptr inbounds %class.FEI_HYPRE_Impl, %class.FEI_HYPRE_Impl* %0, i64 0, i32 38
  %177 = load i32*, i32** %176, align 8, !tbaa !95
  %178 = icmp eq i32* %177, null
  br i1 %178, label %181, label %179

179:                                              ; preds = %175
  %180 = bitcast i32* %177 to i8*
  call void @_ZdaPv(i8* %180) #21
  br label %181

181:                                              ; preds = %179, %175
  %182 = getelementptr inbounds %class.FEI_HYPRE_Impl, %class.FEI_HYPRE_Impl* %0, i64 0, i32 39
  %183 = load double**, double*** %182, align 8, !tbaa !96
  %184 = icmp eq double** %183, null
  br i1 %184, label %207, label %185

185:                                              ; preds = %181
  %186 = getelementptr inbounds %class.FEI_HYPRE_Impl, %class.FEI_HYPRE_Impl* %0, i64 0, i32 37
  %187 = load i32, i32* %186, align 8, !tbaa !97
  %188 = icmp sgt i32 %187, 0
  br i1 %188, label %192, label %189

189:                                              ; preds = %200, %185
  %190 = load double**, double*** %182, align 8, !tbaa !96
  %191 = icmp eq double** %190, null
  br i1 %191, label %207, label %205

192:                                              ; preds = %185, %200
  %193 = phi i64 [ %201, %200 ], [ 0, %185 ]
  %194 = load double**, double*** %182, align 8, !tbaa !96
  %195 = getelementptr inbounds double*, double** %194, i64 %193
  %196 = load double*, double** %195, align 8, !tbaa !13
  %197 = icmp eq double* %196, null
  br i1 %197, label %200, label %198

198:                                              ; preds = %192
  %199 = bitcast double* %196 to i8*
  call void @_ZdaPv(i8* %199) #21
  br label %200

200:                                              ; preds = %192, %198
  %201 = add nuw nsw i64 %193, 1
  %202 = load i32, i32* %186, align 8, !tbaa !97
  %203 = sext i32 %202 to i64
  %204 = icmp slt i64 %201, %203
  br i1 %204, label %192, label %189, !llvm.loop !98

205:                                              ; preds = %189
  %206 = bitcast double** %190 to i8*
  call void @_ZdaPv(i8* %206) #21
  br label %207

207:                                              ; preds = %189, %205, %181
  %208 = getelementptr inbounds %class.FEI_HYPRE_Impl, %class.FEI_HYPRE_Impl* %0, i64 0, i32 40
  %209 = load double**, double*** %208, align 8, !tbaa !99
  %210 = icmp eq double** %209, null
  br i1 %210, label %233, label %211

211:                                              ; preds = %207
  %212 = getelementptr inbounds %class.FEI_HYPRE_Impl, %class.FEI_HYPRE_Impl* %0, i64 0, i32 37
  %213 = load i32, i32* %212, align 8, !tbaa !97
  %214 = icmp sgt i32 %213, 0
  br i1 %214, label %218, label %215

215:                                              ; preds = %226, %211
  %216 = load double**, double*** %208, align 8, !tbaa !99
  %217 = icmp eq double** %216, null
  br i1 %217, label %233, label %231

218:                                              ; preds = %211, %226
  %219 = phi i64 [ %227, %226 ], [ 0, %211 ]
  %220 = load double**, double*** %208, align 8, !tbaa !99
  %221 = getelementptr inbounds double*, double** %220, i64 %219
  %222 = load double*, double** %221, align 8, !tbaa !13
  %223 = icmp eq double* %222, null
  br i1 %223, label %226, label %224

224:                                              ; preds = %218
  %225 = bitcast double* %222 to i8*
  call void @_ZdaPv(i8* %225) #21
  br label %226

226:                                              ; preds = %218, %224
  %227 = add nuw nsw i64 %219, 1
  %228 = load i32, i32* %212, align 8, !tbaa !97
  %229 = sext i32 %228 to i64
  %230 = icmp slt i64 %227, %229
  br i1 %230, label %218, label %215, !llvm.loop !100

231:                                              ; preds = %215
  %232 = bitcast double** %216 to i8*
  call void @_ZdaPv(i8* %232) #21
  br label %233

233:                                              ; preds = %215, %231, %207
  %234 = getelementptr inbounds %class.FEI_HYPRE_Impl, %class.FEI_HYPRE_Impl* %0, i64 0, i32 41
  %235 = load double**, double*** %234, align 8, !tbaa !101
  %236 = icmp eq double** %235, null
  br i1 %236, label %259, label %237

237:                                              ; preds = %233
  %238 = getelementptr inbounds %class.FEI_HYPRE_Impl, %class.FEI_HYPRE_Impl* %0, i64 0, i32 37
  %239 = load i32, i32* %238, align 8, !tbaa !97
  %240 = icmp sgt i32 %239, 0
  br i1 %240, label %244, label %241

241:                                              ; preds = %252, %237
  %242 = load double**, double*** %234, align 8, !tbaa !101
  %243 = icmp eq double** %242, null
  br i1 %243, label %259, label %257

244:                                              ; preds = %237, %252
  %245 = phi i64 [ %253, %252 ], [ 0, %237 ]
  %246 = load double**, double*** %234, align 8, !tbaa !101
  %247 = getelementptr inbounds double*, double** %246, i64 %245
  %248 = load double*, double** %247, align 8, !tbaa !13
  %249 = icmp eq double* %248, null
  br i1 %249, label %252, label %250

250:                                              ; preds = %244
  %251 = bitcast double* %248 to i8*
  call void @_ZdaPv(i8* %251) #21
  br label %252

252:                                              ; preds = %244, %250
  %253 = add nuw nsw i64 %245, 1
  %254 = load i32, i32* %238, align 8, !tbaa !97
  %255 = sext i32 %254 to i64
  %256 = icmp slt i64 %253, %255
  br i1 %256, label %244, label %241, !llvm.loop !102

257:                                              ; preds = %241
  %258 = bitcast double** %242 to i8*
  call void @_ZdaPv(i8* %258) #21
  br label %259

259:                                              ; preds = %241, %257, %233
  ret void
}

declare dso_local i32 @__gxx_personality_v0(...)

; Function Attrs: nobuiltin nounwind
declare dso_local void @_ZdlPv(i8*) local_unnamed_addr #3

; Function Attrs: mustprogress uwtable
define dso_local i32 @_ZN14FEI_HYPRE_Impl10parametersEiPPc(%class.FEI_HYPRE_Impl* nonnull align 8 dereferenceable(352) %0, i32 %1, i8** nocapture readonly %2) local_unnamed_addr #4 align 2 {
  %4 = alloca i32, align 4
  %5 = alloca [256 x i8], align 16
  %6 = alloca [256 x i8], align 16
  %7 = alloca i32, align 4
  %8 = bitcast i32* %4 to i8*
  call void @llvm.lifetime.start.p0i8(i64 4, i8* nonnull %8) #24
  %9 = getelementptr inbounds [256 x i8], [256 x i8]* %5, i64 0, i64 0
  call void @llvm.lifetime.start.p0i8(i64 256, i8* nonnull %9) #24
  %10 = getelementptr inbounds [256 x i8], [256 x i8]* %6, i64 0, i64 0
  call void @llvm.lifetime.start.p0i8(i64 256, i8* nonnull %10) #24
  %11 = bitcast i32* %7 to i8*
  call void @llvm.lifetime.start.p0i8(i64 4, i8* nonnull %11) #24
  %12 = bitcast [256 x i8]* %5 to i32*
  %13 = bitcast [256 x i8]* %5 to i64*
  %14 = getelementptr inbounds %class.FEI_HYPRE_Impl, %class.FEI_HYPRE_Impl* %0, i64 0, i32 23
  %15 = getelementptr inbounds %class.FEI_HYPRE_Impl, %class.FEI_HYPRE_Impl* %0, i64 0, i32 0
  %16 = getelementptr inbounds %class.FEI_HYPRE_Impl, %class.FEI_HYPRE_Impl* %0, i64 0, i32 23
  %17 = getelementptr inbounds %class.FEI_HYPRE_Impl, %class.FEI_HYPRE_Impl* %0, i64 0, i32 23
  %18 = getelementptr inbounds %class.FEI_HYPRE_Impl, %class.FEI_HYPRE_Impl* %0, i64 0, i32 23
  %19 = getelementptr inbounds %class.FEI_HYPRE_Impl, %class.FEI_HYPRE_Impl* %0, i64 0, i32 23
  %20 = getelementptr inbounds %class.FEI_HYPRE_Impl, %class.FEI_HYPRE_Impl* %0, i64 0, i32 23
  %21 = getelementptr inbounds %class.FEI_HYPRE_Impl, %class.FEI_HYPRE_Impl* %0, i64 0, i32 23
  %22 = getelementptr inbounds %class.FEI_HYPRE_Impl, %class.FEI_HYPRE_Impl* %0, i64 0, i32 26
  %23 = getelementptr inbounds %class.FEI_HYPRE_Impl, %class.FEI_HYPRE_Impl* %0, i64 0, i32 26
  %24 = getelementptr inbounds %class.FEI_HYPRE_Impl, %class.FEI_HYPRE_Impl* %0, i64 0, i32 26
  %25 = getelementptr inbounds %class.FEI_HYPRE_Impl, %class.FEI_HYPRE_Impl* %0, i64 0, i32 25
  %26 = getelementptr inbounds %class.FEI_HYPRE_Impl, %class.FEI_HYPRE_Impl* %0, i64 0, i32 24
  %27 = getelementptr inbounds %class.FEI_HYPRE_Impl, %class.FEI_HYPRE_Impl* %0, i64 0, i32 29
  %28 = getelementptr inbounds %class.FEI_HYPRE_Impl, %class.FEI_HYPRE_Impl* %0, i64 0, i32 44
  %29 = getelementptr inbounds %class.FEI_HYPRE_Impl, %class.FEI_HYPRE_Impl* %0, i64 0, i32 2
  %30 = icmp sgt i32 %1, 0
  br i1 %30, label %31, label %150

31:                                               ; preds = %3
  %32 = zext i32 %1 to i64
  br label %33

33:                                               ; preds = %31, %147
  %34 = phi i64 [ 0, %31 ], [ %148, %147 ]
  %35 = getelementptr inbounds i8*, i8** %2, i64 %34
  %36 = load i8*, i8** %35, align 8, !tbaa !13
  %37 = call i32 (i8*, i8*, ...) @__isoc99_sscanf(i8* %36, i8* getelementptr inbounds ([3 x i8], [3 x i8]* @.str.3, i64 0, i64 0), i8* nonnull %10) #24
  %38 = call i32 @bcmp(i8* noundef nonnull dereferenceable(12) %10, i8* noundef nonnull dereferenceable(12) getelementptr inbounds ([12 x i8], [12 x i8]* @.str.4, i64 0, i64 0), i64 12)
  %39 = icmp eq i32 %38, 0
  br i1 %39, label %40, label %48

40:                                               ; preds = %33
  %41 = load i8*, i8** %35, align 8, !tbaa !13
  %42 = call i32 (i8*, i8*, ...) @__isoc99_sscanf(i8* %41, i8* getelementptr inbounds ([6 x i8], [6 x i8]* @.str.5, i64 0, i64 0), i8* nonnull %10, i32* nonnull %4) #24
  %43 = load i32, i32* %4, align 4, !tbaa !46
  %44 = icmp sgt i32 %43, 0
  %45 = select i1 %44, i32 %43, i32 0
  %46 = icmp slt i32 %45, 4
  %47 = select i1 %46, i32 %45, i32 4
  store i32 %47, i32* %29, align 8
  br label %147

48:                                               ; preds = %33
  %49 = call i32 @bcmp(i8* noundef nonnull dereferenceable(9) %10, i8* noundef nonnull dereferenceable(9) getelementptr inbounds ([9 x i8], [9 x i8]* @.str.6, i64 0, i64 0), i64 9)
  %50 = icmp eq i32 %49, 0
  br i1 %50, label %51, label %57

51:                                               ; preds = %48
  %52 = load i8*, i8** %35, align 8, !tbaa !13
  %53 = call i32 (i8*, i8*, ...) @__isoc99_sscanf(i8* %52, i8* getelementptr inbounds ([6 x i8], [6 x i8]* @.str.7, i64 0, i64 0), i8* nonnull %10, i8* nonnull %9) #24
  %54 = call i32 @bcmp(i8* noundef nonnull dereferenceable(9) %9, i8* noundef nonnull dereferenceable(9) getelementptr inbounds ([9 x i8], [9 x i8]* @.str.8, i64 0, i64 0), i64 9)
  %55 = icmp eq i32 %54, 0
  br i1 %55, label %56, label %147

56:                                               ; preds = %51
  store i32 1, i32* %28, align 8, !tbaa !103
  br label %147

57:                                               ; preds = %48
  %58 = call i32 @bcmp(i8* noundef nonnull dereferenceable(9) %10, i8* noundef nonnull dereferenceable(9) getelementptr inbounds ([9 x i8], [9 x i8]* @.str.9, i64 0, i64 0), i64 9)
  %59 = icmp eq i32 %58, 0
  br i1 %59, label %60, label %66

60:                                               ; preds = %57
  %61 = load i8*, i8** %35, align 8, !tbaa !13
  %62 = call i32 (i8*, i8*, ...) @__isoc99_sscanf(i8* %61, i8* getelementptr inbounds ([6 x i8], [6 x i8]* @.str.5, i64 0, i64 0), i8* nonnull %10, i32* nonnull %27) #24
  %63 = load i32, i32* %27, align 8, !tbaa !67
  %64 = icmp slt i32 %63, 0
  br i1 %64, label %65, label %147

65:                                               ; preds = %60
  store i32 10, i32* %27, align 8, !tbaa !67
  br label %147

66:                                               ; preds = %57
  %67 = call i32 @bcmp(i8* noundef nonnull dereferenceable(14) %10, i8* noundef nonnull dereferenceable(14) getelementptr inbounds ([14 x i8], [14 x i8]* @.str.10, i64 0, i64 0), i64 14)
  %68 = icmp eq i32 %67, 0
  br i1 %68, label %69, label %75

69:                                               ; preds = %66
  %70 = load i8*, i8** %35, align 8, !tbaa !13
  %71 = call i32 (i8*, i8*, ...) @__isoc99_sscanf(i8* %70, i8* getelementptr inbounds ([6 x i8], [6 x i8]* @.str.5, i64 0, i64 0), i8* nonnull %10, i32* nonnull %26) #24
  %72 = load i32, i32* %26, align 4, !tbaa !62
  %73 = icmp slt i32 %72, 1
  br i1 %73, label %74, label %147

74:                                               ; preds = %69
  store i32 1, i32* %26, align 4, !tbaa !62
  br label %147

75:                                               ; preds = %66
  %76 = call i32 @bcmp(i8* noundef nonnull dereferenceable(10) %10, i8* noundef nonnull dereferenceable(10) getelementptr inbounds ([10 x i8], [10 x i8]* @.str.11, i64 0, i64 0), i64 10)
  %77 = icmp eq i32 %76, 0
  br i1 %77, label %78, label %86

78:                                               ; preds = %75
  %79 = load i8*, i8** %35, align 8, !tbaa !13
  %80 = call i32 (i8*, i8*, ...) @__isoc99_sscanf(i8* %79, i8* getelementptr inbounds ([7 x i8], [7 x i8]* @.str.12, i64 0, i64 0), i8* nonnull %10, double* nonnull %25) #24
  %81 = load double, double* %25, align 8, !tbaa !64
  %82 = fcmp ult double %81, 1.000000e+00
  %83 = fcmp ugt double %81, 0.000000e+00
  %84 = and i1 %82, %83
  br i1 %84, label %147, label %85

85:                                               ; preds = %78
  store double 0x3EB0C6F7A0B5ED8D, double* %25, align 8, !tbaa !64
  br label %147

86:                                               ; preds = %75
  %87 = call i32 @bcmp(i8* noundef nonnull dereferenceable(9) %10, i8* noundef nonnull dereferenceable(9) getelementptr inbounds ([9 x i8], [9 x i8]* @.str.13, i64 0, i64 0), i64 9)
  %88 = icmp eq i32 %87, 0
  br i1 %88, label %89, label %100

89:                                               ; preds = %86
  %90 = load i8*, i8** %35, align 8, !tbaa !13
  %91 = call i32 (i8*, i8*, ...) @__isoc99_sscanf(i8* %90, i8* getelementptr inbounds ([6 x i8], [6 x i8]* @.str.7, i64 0, i64 0), i8* nonnull %10, i8* nonnull %9) #24
  %92 = call i32 @bcmp(i8* noundef nonnull dereferenceable(9) %9, i8* noundef nonnull dereferenceable(9) getelementptr inbounds ([9 x i8], [9 x i8]* @.str.14, i64 0, i64 0), i64 9)
  %93 = icmp eq i32 %92, 0
  br i1 %93, label %94, label %95

94:                                               ; preds = %89
  store i32 1, i32* %24, align 8, !tbaa !63
  br label %147

95:                                               ; preds = %89
  %96 = call i32 @bcmp(i8* noundef nonnull dereferenceable(9) %9, i8* noundef nonnull dereferenceable(9) getelementptr inbounds ([9 x i8], [9 x i8]* @.str.15, i64 0, i64 0), i64 9)
  %97 = icmp eq i32 %96, 0
  br i1 %97, label %98, label %99

98:                                               ; preds = %95
  store i32 0, i32* %23, align 8, !tbaa !63
  br label %147

99:                                               ; preds = %95
  store i32 0, i32* %22, align 8, !tbaa !63
  br label %147

100:                                              ; preds = %86
  %101 = call i32 @bcmp(i8* noundef nonnull dereferenceable(7) %10, i8* noundef nonnull dereferenceable(7) getelementptr inbounds ([7 x i8], [7 x i8]* @.str.16, i64 0, i64 0), i64 7)
  %102 = icmp eq i32 %101, 0
  br i1 %102, label %103, label %134

103:                                              ; preds = %100
  %104 = load i8*, i8** %35, align 8, !tbaa !13
  %105 = call i32 (i8*, i8*, ...) @__isoc99_sscanf(i8* %104, i8* getelementptr inbounds ([6 x i8], [6 x i8]* @.str.7, i64 0, i64 0), i8* nonnull %10, i8* nonnull %9) #24
  %106 = call i32 @bcmp(i8* noundef nonnull dereferenceable(3) %9, i8* noundef nonnull dereferenceable(3) getelementptr inbounds ([3 x i8], [3 x i8]* @.str.17, i64 0, i64 0), i64 3)
  %107 = icmp eq i32 %106, 0
  br i1 %107, label %108, label %109

108:                                              ; preds = %103
  store i32 0, i32* %21, align 8, !tbaa !104
  br label %147

109:                                              ; preds = %103
  %110 = call i32 @bcmp(i8* noundef nonnull dereferenceable(6) %9, i8* noundef nonnull dereferenceable(6) getelementptr inbounds ([6 x i8], [6 x i8]* @.str.18, i64 0, i64 0), i64 6)
  %111 = icmp eq i32 %110, 0
  br i1 %111, label %112, label %113

112:                                              ; preds = %109
  store i32 1, i32* %20, align 8, !tbaa !104
  br label %147

113:                                              ; preds = %109
  %114 = load i32, i32* %12, align 16
  %115 = icmp eq i32 %114, 7563107
  br i1 %115, label %116, label %117

116:                                              ; preds = %113
  store i32 2, i32* %19, align 8, !tbaa !104
  br label %147

117:                                              ; preds = %113
  %118 = call i32 @bcmp(i8* noundef nonnull dereferenceable(9) %9, i8* noundef nonnull dereferenceable(9) getelementptr inbounds ([9 x i8], [9 x i8]* @.str.20, i64 0, i64 0), i64 9)
  %119 = icmp eq i32 %118, 0
  br i1 %119, label %120, label %121

120:                                              ; preds = %117
  store i32 3, i32* %18, align 8, !tbaa !104
  br label %147

121:                                              ; preds = %117
  %122 = load i64, i64* %13, align 16
  %123 = icmp eq i64 %122, 33051810859087219
  br i1 %123, label %124, label %133

124:                                              ; preds = %121
  %125 = load i32, i32* %15, align 8, !tbaa !59
  %126 = call i32 @MPI_Comm_size(i32 %125, i32* nonnull %7)
  %127 = load i32, i32* %7, align 4, !tbaa !46
  %128 = icmp eq i32 %127, 1
  br i1 %128, label %129, label %130

129:                                              ; preds = %124
  store i32 4, i32* %17, align 8, !tbaa !104
  br label %147

130:                                              ; preds = %124
  %131 = call i32 (i8*, ...) @printf(i8* nonnull dereferenceable(1) getelementptr inbounds ([51 x i8], [51 x i8]* @.str.22, i64 0, i64 0))
  %132 = call i32 @puts(i8* nonnull dereferenceable(1) getelementptr inbounds ([38 x i8], [38 x i8]* @str.105, i64 0, i64 0))
  store i32 1, i32* %16, align 8, !tbaa !104
  br label %147

133:                                              ; preds = %121
  store i32 1, i32* %14, align 8, !tbaa !104
  br label %147

134:                                              ; preds = %100
  %135 = call i32 @bcmp(i8* noundef nonnull dereferenceable(15) %10, i8* noundef nonnull dereferenceable(15) getelementptr inbounds ([15 x i8], [15 x i8]* @.str.24, i64 0, i64 0), i64 15)
  %136 = icmp eq i32 %135, 0
  br i1 %136, label %137, label %147

137:                                              ; preds = %134
  %138 = load i8*, i8** %35, align 8, !tbaa !13
  %139 = call i32 (i8*, i8*, ...) @__isoc99_sscanf(i8* %138, i8* getelementptr inbounds ([6 x i8], [6 x i8]* @.str.7, i64 0, i64 0), i8* nonnull %10, i8* nonnull %9) #24
  %140 = call i32 @bcmp(i8* noundef nonnull dereferenceable(5) %9, i8* noundef nonnull dereferenceable(5) getelementptr inbounds ([5 x i8], [5 x i8]* @.str.25, i64 0, i64 0), i64 5)
  %141 = icmp eq i32 %140, 0
  br i1 %141, label %147, label %142

142:                                              ; preds = %137
  %143 = call i32 @bcmp(i8* noundef nonnull dereferenceable(9) %9, i8* noundef nonnull dereferenceable(9) getelementptr inbounds ([9 x i8], [9 x i8]* @.str.26, i64 0, i64 0), i64 9)
  %144 = icmp eq i32 %143, 0
  br i1 %144, label %147, label %145

145:                                              ; preds = %142
  %146 = call i32 @puts(i8* nonnull dereferenceable(1) getelementptr inbounds ([53 x i8], [53 x i8]* @str.106, i64 0, i64 0))
  br label %147

147:                                              ; preds = %40, %78, %65, %60, %85, %112, %120, %129, %130, %133, %116, %108, %137, %142, %145, %134, %94, %99, %98, %69, %74, %51, %56
  %148 = add nuw nsw i64 %34, 1
  %149 = icmp eq i64 %148, %32
  br i1 %149, label %150, label %33, !llvm.loop !105

150:                                              ; preds = %147, %3
  call void @llvm.lifetime.end.p0i8(i64 4, i8* nonnull %11) #24
  call void @llvm.lifetime.end.p0i8(i64 256, i8* nonnull %10) #24
  call void @llvm.lifetime.end.p0i8(i64 256, i8* nonnull %9) #24
  call void @llvm.lifetime.end.p0i8(i64 4, i8* nonnull %8) #24
  ret i32 0
}

; Function Attrs: nofree nounwind
declare dso_local noundef i32 @__isoc99_sscanf(i8* nocapture noundef readonly, i8* nocapture noundef readonly, ...) local_unnamed_addr #9

declare dso_local i32 @MPI_Comm_size(i32, i32*) local_unnamed_addr #12

; Function Attrs: mustprogress nofree nounwind uwtable
define dso_local i32 @_ZN14FEI_HYPRE_Impl10initFieldsEiPiS0_(%class.FEI_HYPRE_Impl* nocapture nonnull align 8 dereferenceable(352) %0, i32 %1, i32* nocapture readonly %2, i32* nocapture readnone %3) local_unnamed_addr #14 align 2 {
  %5 = icmp eq i32 %1, 1
  br i1 %5, label %11, label %6

6:                                                ; preds = %4
  %7 = getelementptr inbounds %class.FEI_HYPRE_Impl, %class.FEI_HYPRE_Impl* %0, i64 0, i32 1
  %8 = load i32, i32* %7, align 4, !tbaa !69
  %9 = call i32 (i8*, ...) @printf(i8* nonnull dereferenceable(1) getelementptr inbounds ([60 x i8], [60 x i8]* @.str.28, i64 0, i64 0), i32 %8)
  %10 = call i32 @puts(i8* nonnull dereferenceable(1) getelementptr inbounds ([15 x i8], [15 x i8]* @str.107, i64 0, i64 0))
  br label %11

11:                                               ; preds = %4, %6
  %12 = phi i32 [ -1, %6 ], [ 0, %4 ]
  %13 = load i32, i32* %2, align 4, !tbaa !46
  %14 = getelementptr inbounds %class.FEI_HYPRE_Impl, %class.FEI_HYPRE_Impl* %0, i64 0, i32 7
  store i32 %13, i32* %14, align 8, !tbaa !61
  ret i32 %12
}

; Function Attrs: mustprogress uwtable
define dso_local i32 @_ZN14FEI_HYPRE_Impl13initElemBlockEiiiPiPS0_iS0_i(%class.FEI_HYPRE_Impl* nocapture nonnull align 8 dereferenceable(352) %0, i32 %1, i32 %2, i32 %3, i32* nocapture readonly %4, i32** nocapture readonly %5, i32 %6, i32* nocapture readonly %7, i32 %8) local_unnamed_addr #4 align 2 personality i8* bitcast (i32 (...)* @__gxx_personality_v0 to i8*) {
  %10 = getelementptr inbounds %class.FEI_HYPRE_Impl, %class.FEI_HYPRE_Impl* %0, i64 0, i32 2
  %11 = load i32, i32* %10, align 8, !tbaa !68
  %12 = icmp sgt i32 %11, 1
  br i1 %12, label %13, label %57

13:                                               ; preds = %9
  %14 = getelementptr inbounds %class.FEI_HYPRE_Impl, %class.FEI_HYPRE_Impl* %0, i64 0, i32 1
  %15 = load i32, i32* %14, align 4, !tbaa !69
  %16 = call i32 (i8*, ...) @printf(i8* nonnull dereferenceable(1) getelementptr inbounds ([48 x i8], [48 x i8]* @.str.30, i64 0, i64 0), i32 %15)
  %17 = call i32 (i8*, ...) @printf(i8* nonnull dereferenceable(1) getelementptr inbounds ([35 x i8], [35 x i8]* @.str.31, i64 0, i64 0), i32 %1)
  %18 = call i32 (i8*, ...) @printf(i8* nonnull dereferenceable(1) getelementptr inbounds ([35 x i8], [35 x i8]* @.str.32, i64 0, i64 0), i32 %2)
  %19 = call i32 (i8*, ...) @printf(i8* nonnull dereferenceable(1) getelementptr inbounds ([35 x i8], [35 x i8]* @.str.33, i64 0, i64 0), i32 %3)
  %20 = icmp sgt i32 %3, 0
  br i1 %20, label %21, label %23

21:                                               ; preds = %13
  %22 = zext i32 %3 to i64
  br label %27

23:                                               ; preds = %35, %13
  %24 = icmp sgt i32 %6, 0
  br i1 %24, label %25, label %57

25:                                               ; preds = %23
  %26 = zext i32 %6 to i64
  br label %49

27:                                               ; preds = %21, %35
  %28 = phi i64 [ 0, %21 ], [ %37, %35 ]
  %29 = trunc i64 %28 to i32
  %30 = call i32 (i8*, ...) @printf(i8* nonnull dereferenceable(1) getelementptr inbounds ([37 x i8], [37 x i8]* @.str.34, i64 0, i64 0), i32 %29)
  %31 = getelementptr inbounds i32, i32* %4, i64 %28
  %32 = getelementptr inbounds i32*, i32** %5, i64 %28
  %33 = load i32, i32* %31, align 4, !tbaa !46
  %34 = icmp sgt i32 %33, 0
  br i1 %34, label %39, label %35

35:                                               ; preds = %39, %27
  %36 = call i32 @putchar(i32 10)
  %37 = add nuw nsw i64 %28, 1
  %38 = icmp eq i64 %37, %22
  br i1 %38, label %23, label %27, !llvm.loop !106

39:                                               ; preds = %27, %39
  %40 = phi i64 [ %45, %39 ], [ 0, %27 ]
  %41 = load i32*, i32** %32, align 8, !tbaa !13
  %42 = getelementptr inbounds i32, i32* %41, i64 %40
  %43 = load i32, i32* %42, align 4, !tbaa !46
  %44 = call i32 (i8*, ...) @printf(i8* nonnull dereferenceable(1) getelementptr inbounds ([4 x i8], [4 x i8]* @.str.35, i64 0, i64 0), i32 %43)
  %45 = add nuw nsw i64 %40, 1
  %46 = load i32, i32* %31, align 4, !tbaa !46
  %47 = sext i32 %46 to i64
  %48 = icmp slt i64 %45, %47
  br i1 %48, label %39, label %35, !llvm.loop !107

49:                                               ; preds = %25, %49
  %50 = phi i64 [ 0, %25 ], [ %55, %49 ]
  %51 = getelementptr inbounds i32, i32* %7, i64 %50
  %52 = load i32, i32* %51, align 4, !tbaa !46
  %53 = trunc i64 %50 to i32
  %54 = call i32 (i8*, ...) @printf(i8* nonnull dereferenceable(1) getelementptr inbounds ([42 x i8], [42 x i8]* @.str.37, i64 0, i64 0), i32 %53, i32 %52)
  %55 = add nuw nsw i64 %50, 1
  %56 = icmp eq i64 %55, %26
  br i1 %56, label %57, label %49, !llvm.loop !108

57:                                               ; preds = %49, %23, %9
  %58 = getelementptr inbounds %class.FEI_HYPRE_Impl, %class.FEI_HYPRE_Impl* %0, i64 0, i32 3
  %59 = load i32, i32* %58, align 4, !tbaa !70
  %60 = icmp eq i32 %59, 0
  br i1 %60, label %67, label %61

61:                                               ; preds = %57
  %62 = getelementptr inbounds %class.FEI_HYPRE_Impl, %class.FEI_HYPRE_Impl* %0, i64 0, i32 4
  %63 = load %class.FEI_HYPRE_Elem_Block**, %class.FEI_HYPRE_Elem_Block*** %62, align 8
  %64 = icmp sgt i32 %59, 0
  br i1 %64, label %65, label %82

65:                                               ; preds = %61
  %66 = zext i32 %59 to i64
  br label %96

67:                                               ; preds = %57
  %68 = call noalias nonnull dereferenceable(8) i8* @_Znam(i64 8) #22
  %69 = getelementptr inbounds %class.FEI_HYPRE_Impl, %class.FEI_HYPRE_Impl* %0, i64 0, i32 4
  %70 = bitcast %class.FEI_HYPRE_Elem_Block*** %69 to i8**
  store i8* %68, i8** %70, align 8, !tbaa !72
  %71 = call noalias nonnull dereferenceable(96) i8* @_Znwm(i64 96) #22
  %72 = bitcast i8* %71 to %class.FEI_HYPRE_Elem_Block*
  %73 = getelementptr inbounds %class.FEI_HYPRE_Elem_Block, %class.FEI_HYPRE_Elem_Block* %72, i64 0, i32 0
  store i32 %1, i32* %73, align 8, !tbaa !3
  %74 = getelementptr inbounds %class.FEI_HYPRE_Elem_Block, %class.FEI_HYPRE_Elem_Block* %72, i64 0, i32 1
  store i32 0, i32* %74, align 4, !tbaa !9
  %75 = getelementptr inbounds %class.FEI_HYPRE_Elem_Block, %class.FEI_HYPRE_Elem_Block* %72, i64 0, i32 2
  store i32 0, i32* %75, align 8, !tbaa !10
  %76 = getelementptr inbounds %class.FEI_HYPRE_Elem_Block, %class.FEI_HYPRE_Elem_Block* %72, i64 0, i32 3
  %77 = bitcast i32** %76 to i8*
  call void @llvm.memset.p0i8.i64(i8* noundef nonnull align 8 dereferenceable(80) %77, i8 0, i64 80, i1 false) #24
  %78 = bitcast %class.FEI_HYPRE_Elem_Block*** %69 to i8***
  %79 = load i8**, i8*** %78, align 8, !tbaa !72
  store i8* %71, i8** %79, align 8, !tbaa !13
  store i32 1, i32* %58, align 4, !tbaa !70
  br label %129

80:                                               ; preds = %96
  %81 = icmp eq i64 %103, %66
  br i1 %81, label %82, label %96, !llvm.loop !109

82:                                               ; preds = %80, %61
  %83 = getelementptr inbounds %class.FEI_HYPRE_Impl, %class.FEI_HYPRE_Impl* %0, i64 0, i32 4
  %84 = load %class.FEI_HYPRE_Elem_Block**, %class.FEI_HYPRE_Elem_Block*** %83, align 8, !tbaa !72
  %85 = add nsw i32 %59, 1
  store i32 %85, i32* %58, align 4, !tbaa !70
  %86 = sext i32 %85 to i64
  %87 = call { i64, i1 } @llvm.umul.with.overflow.i64(i64 %86, i64 8)
  %88 = extractvalue { i64, i1 } %87, 1
  %89 = extractvalue { i64, i1 } %87, 0
  %90 = select i1 %88, i64 -1, i64 %89
  %91 = call noalias nonnull i8* @_Znam(i64 %90) #22
  %92 = bitcast %class.FEI_HYPRE_Elem_Block*** %83 to i8**
  store i8* %91, i8** %92, align 8, !tbaa !72
  %93 = icmp sgt i32 %59, 0
  br i1 %93, label %94, label %109

94:                                               ; preds = %82
  %95 = zext i32 %59 to i64
  br label %121

96:                                               ; preds = %65, %80
  %97 = phi i64 [ 0, %65 ], [ %103, %80 ]
  %98 = getelementptr inbounds %class.FEI_HYPRE_Elem_Block*, %class.FEI_HYPRE_Elem_Block** %63, i64 %97
  %99 = load %class.FEI_HYPRE_Elem_Block*, %class.FEI_HYPRE_Elem_Block** %98, align 8, !tbaa !13
  %100 = getelementptr inbounds %class.FEI_HYPRE_Elem_Block, %class.FEI_HYPRE_Elem_Block* %99, i64 0, i32 0
  %101 = load i32, i32* %100, align 8, !tbaa !3
  %102 = icmp eq i32 %101, %1
  %103 = add nuw nsw i64 %97, 1
  br i1 %102, label %104, label %80

104:                                              ; preds = %96
  %105 = getelementptr inbounds %class.FEI_HYPRE_Impl, %class.FEI_HYPRE_Impl* %0, i64 0, i32 1
  %106 = load i32, i32* %105, align 4, !tbaa !69
  %107 = call i32 (i8*, ...) @printf(i8* nonnull dereferenceable(1) getelementptr inbounds ([45 x i8], [45 x i8]* @.str.38, i64 0, i64 0), i32 %106)
  %108 = call i32 @puts(i8* nonnull dereferenceable(1) getelementptr inbounds ([17 x i8], [17 x i8]* @str.108, i64 0, i64 0))
  call void @exit(i32 1) #23
  unreachable

109:                                              ; preds = %121, %82
  %110 = call noalias nonnull dereferenceable(96) i8* @_Znwm(i64 96) #22
  %111 = bitcast i8* %110 to %class.FEI_HYPRE_Elem_Block*
  %112 = getelementptr inbounds %class.FEI_HYPRE_Elem_Block, %class.FEI_HYPRE_Elem_Block* %111, i64 0, i32 0
  store i32 %1, i32* %112, align 8, !tbaa !3
  %113 = getelementptr inbounds %class.FEI_HYPRE_Elem_Block, %class.FEI_HYPRE_Elem_Block* %111, i64 0, i32 1
  store i32 0, i32* %113, align 4, !tbaa !9
  %114 = getelementptr inbounds %class.FEI_HYPRE_Elem_Block, %class.FEI_HYPRE_Elem_Block* %111, i64 0, i32 2
  store i32 0, i32* %114, align 8, !tbaa !10
  %115 = getelementptr inbounds %class.FEI_HYPRE_Elem_Block, %class.FEI_HYPRE_Elem_Block* %111, i64 0, i32 3
  %116 = bitcast i32** %115 to i8*
  call void @llvm.memset.p0i8.i64(i8* noundef nonnull align 8 dereferenceable(80) %116, i8 0, i64 80, i1 false) #24
  %117 = load %class.FEI_HYPRE_Elem_Block**, %class.FEI_HYPRE_Elem_Block*** %83, align 8, !tbaa !72
  %118 = sext i32 %59 to i64
  %119 = getelementptr inbounds %class.FEI_HYPRE_Elem_Block*, %class.FEI_HYPRE_Elem_Block** %117, i64 %118
  %120 = bitcast %class.FEI_HYPRE_Elem_Block** %119 to i8**
  store i8* %110, i8** %120, align 8, !tbaa !13
  br label %129

121:                                              ; preds = %94, %121
  %122 = phi i64 [ 0, %94 ], [ %127, %121 ]
  %123 = getelementptr inbounds %class.FEI_HYPRE_Elem_Block*, %class.FEI_HYPRE_Elem_Block** %84, i64 %122
  %124 = load %class.FEI_HYPRE_Elem_Block*, %class.FEI_HYPRE_Elem_Block** %123, align 8, !tbaa !13
  %125 = load %class.FEI_HYPRE_Elem_Block**, %class.FEI_HYPRE_Elem_Block*** %83, align 8, !tbaa !72
  %126 = getelementptr inbounds %class.FEI_HYPRE_Elem_Block*, %class.FEI_HYPRE_Elem_Block** %125, i64 %122
  store %class.FEI_HYPRE_Elem_Block* %124, %class.FEI_HYPRE_Elem_Block** %126, align 8, !tbaa !13
  %127 = add nuw nsw i64 %122, 1
  %128 = icmp eq i64 %127, %95
  br i1 %128, label %109, label %121, !llvm.loop !110

129:                                              ; preds = %109, %67
  %130 = getelementptr inbounds %class.FEI_HYPRE_Impl, %class.FEI_HYPRE_Impl* %0, i64 0, i32 4
  %131 = load %class.FEI_HYPRE_Elem_Block**, %class.FEI_HYPRE_Elem_Block*** %130, align 8, !tbaa !72
  %132 = load i32, i32* %58, align 4, !tbaa !70
  %133 = add nsw i32 %132, -1
  %134 = sext i32 %133 to i64
  %135 = getelementptr inbounds %class.FEI_HYPRE_Elem_Block*, %class.FEI_HYPRE_Elem_Block** %131, i64 %134
  %136 = load %class.FEI_HYPRE_Elem_Block*, %class.FEI_HYPRE_Elem_Block** %135, align 8, !tbaa !13
  %137 = getelementptr inbounds %class.FEI_HYPRE_Impl, %class.FEI_HYPRE_Impl* %0, i64 0, i32 7
  %138 = load i32, i32* %137, align 8, !tbaa !61
  %139 = call i32 @_ZN20FEI_HYPRE_Elem_Block10initializeEiii(%class.FEI_HYPRE_Elem_Block* nonnull align 8 dereferenceable(96) %136, i32 %2, i32 %3, i32 %138)
  %140 = getelementptr inbounds %class.FEI_HYPRE_Impl, %class.FEI_HYPRE_Impl* %0, i64 0, i32 45
  store i32 0, i32* %140, align 4, !tbaa !111
  %141 = load i32, i32* %10, align 8, !tbaa !68
  %142 = icmp sgt i32 %141, 1
  br i1 %142, label %143, label %147

143:                                              ; preds = %129
  %144 = getelementptr inbounds %class.FEI_HYPRE_Impl, %class.FEI_HYPRE_Impl* %0, i64 0, i32 1
  %145 = load i32, i32* %144, align 4, !tbaa !69
  %146 = call i32 (i8*, ...) @printf(i8* nonnull dereferenceable(1) getelementptr inbounds ([43 x i8], [43 x i8]* @.str.40, i64 0, i64 0), i32 %145)
  br label %147

147:                                              ; preds = %143, %129
  ret i32 0
}

; Function Attrs: nobuiltin allocsize(0)
declare dso_local nonnull i8* @_Znwm(i64) local_unnamed_addr #6

; Function Attrs: mustprogress uwtable
define dso_local i32 @_ZN14FEI_HYPRE_Impl15initSharedNodesEiPiS0_PS0_(%class.FEI_HYPRE_Impl* nocapture nonnull align 8 dereferenceable(352) %0, i32 %1, i32* nocapture readonly %2, i32* nocapture readonly %3, i32** nocapture readonly %4) local_unnamed_addr #4 align 2 {
  %6 = bitcast i32* %2 to i8*
  %7 = bitcast i32* %3 to i8*
  %8 = getelementptr inbounds %class.FEI_HYPRE_Impl, %class.FEI_HYPRE_Impl* %0, i64 0, i32 2
  %9 = load i32, i32* %8, align 8, !tbaa !68
  %10 = icmp sgt i32 %9, 1
  br i1 %10, label %11, label %15

11:                                               ; preds = %5
  %12 = getelementptr inbounds %class.FEI_HYPRE_Impl, %class.FEI_HYPRE_Impl* %0, i64 0, i32 1
  %13 = load i32, i32* %12, align 4, !tbaa !69
  %14 = call i32 (i8*, ...) @printf(i8* nonnull dereferenceable(1) getelementptr inbounds ([50 x i8], [50 x i8]* @.str.41, i64 0, i64 0), i32 %13)
  br label %15

15:                                               ; preds = %11, %5
  %16 = call double @MPI_Wtime()
  %17 = getelementptr inbounds %class.FEI_HYPRE_Impl, %class.FEI_HYPRE_Impl* %0, i64 0, i32 47
  store double %16, double* %17, align 8, !tbaa !112
  %18 = getelementptr inbounds %class.FEI_HYPRE_Impl, %class.FEI_HYPRE_Impl* %0, i64 0, i32 11
  %19 = load i32, i32* %18, align 8, !tbaa !113
  %20 = icmp sgt i32 %19, 0
  br i1 %20, label %21, label %173

21:                                               ; preds = %15
  %22 = add nsw i32 %19, %1
  %23 = getelementptr inbounds %class.FEI_HYPRE_Impl, %class.FEI_HYPRE_Impl* %0, i64 0, i32 12
  %24 = load i32*, i32** %23, align 8, !tbaa !114
  %25 = sext i32 %22 to i64
  %26 = call { i64, i1 } @llvm.umul.with.overflow.i64(i64 %25, i64 4)
  %27 = extractvalue { i64, i1 } %26, 1
  %28 = extractvalue { i64, i1 } %26, 0
  %29 = select i1 %27, i64 -1, i64 %28
  %30 = call noalias nonnull i8* @_Znam(i64 %29) #22
  %31 = bitcast i32** %23 to i8**
  store i8* %30, i8** %31, align 8, !tbaa !114
  %32 = bitcast i8* %30 to i32*
  %33 = load i32, i32* %18, align 8, !tbaa !113
  %34 = icmp sgt i32 %33, 0
  br i1 %34, label %35, label %38

35:                                               ; preds = %21
  %36 = load i32, i32* %18, align 8, !tbaa !113
  %37 = sext i32 %36 to i64
  br label %43

38:                                               ; preds = %43, %21
  %39 = load i32*, i32** %23, align 8
  %40 = icmp sgt i32 %1, 0
  br i1 %40, label %41, label %61

41:                                               ; preds = %38
  %42 = zext i32 %1 to i64
  br label %50

43:                                               ; preds = %35, %43
  %44 = phi i64 [ %48, %43 ], [ 0, %35 ]
  %45 = getelementptr inbounds i32, i32* %24, i64 %44
  %46 = load i32, i32* %45, align 4, !tbaa !46
  %47 = getelementptr inbounds i32, i32* %32, i64 %44
  store i32 %46, i32* %47, align 4, !tbaa !46
  %48 = add nuw nsw i64 %44, 1
  %49 = icmp slt i64 %48, %37
  br i1 %49, label %43, label %38, !llvm.loop !115

50:                                               ; preds = %41, %50
  %51 = phi i64 [ 0, %41 ], [ %59, %50 ]
  %52 = getelementptr inbounds i32, i32* %2, i64 %51
  %53 = load i32, i32* %52, align 4, !tbaa !46
  %54 = load i32, i32* %18, align 8, !tbaa !113
  %55 = trunc i64 %51 to i32
  %56 = add nsw i32 %54, %55
  %57 = sext i32 %56 to i64
  %58 = getelementptr inbounds i32, i32* %39, i64 %57
  store i32 %53, i32* %58, align 4, !tbaa !46
  %59 = add nuw nsw i64 %51, 1
  %60 = icmp eq i64 %59, %42
  br i1 %60, label %61, label %50, !llvm.loop !116

61:                                               ; preds = %50, %38
  %62 = getelementptr inbounds %class.FEI_HYPRE_Impl, %class.FEI_HYPRE_Impl* %0, i64 0, i32 13
  %63 = load i32*, i32** %62, align 8, !tbaa !117
  %64 = call noalias nonnull i8* @_Znam(i64 %29) #22
  %65 = bitcast i32** %62 to i8**
  store i8* %64, i8** %65, align 8, !tbaa !117
  %66 = bitcast i8* %64 to i32*
  %67 = load i32, i32* %18, align 8, !tbaa !113
  %68 = icmp sgt i32 %67, 0
  br i1 %68, label %69, label %72

69:                                               ; preds = %61
  %70 = load i32, i32* %18, align 8, !tbaa !113
  %71 = sext i32 %70 to i64
  br label %77

72:                                               ; preds = %77, %61
  %73 = load i32*, i32** %62, align 8
  %74 = icmp sgt i32 %1, 0
  br i1 %74, label %75, label %95

75:                                               ; preds = %72
  %76 = zext i32 %1 to i64
  br label %84

77:                                               ; preds = %69, %77
  %78 = phi i64 [ %82, %77 ], [ 0, %69 ]
  %79 = getelementptr inbounds i32, i32* %63, i64 %78
  %80 = load i32, i32* %79, align 4, !tbaa !46
  %81 = getelementptr inbounds i32, i32* %66, i64 %78
  store i32 %80, i32* %81, align 4, !tbaa !46
  %82 = add nuw nsw i64 %78, 1
  %83 = icmp slt i64 %82, %71
  br i1 %83, label %77, label %72, !llvm.loop !118

84:                                               ; preds = %75, %84
  %85 = phi i64 [ 0, %75 ], [ %93, %84 ]
  %86 = getelementptr inbounds i32, i32* %3, i64 %85
  %87 = load i32, i32* %86, align 4, !tbaa !46
  %88 = load i32, i32* %18, align 8, !tbaa !113
  %89 = trunc i64 %85 to i32
  %90 = add nsw i32 %88, %89
  %91 = sext i32 %90 to i64
  %92 = getelementptr inbounds i32, i32* %73, i64 %91
  store i32 %87, i32* %92, align 4, !tbaa !46
  %93 = add nuw nsw i64 %85, 1
  %94 = icmp eq i64 %93, %76
  br i1 %94, label %95, label %84, !llvm.loop !119

95:                                               ; preds = %84, %72
  %96 = getelementptr inbounds %class.FEI_HYPRE_Impl, %class.FEI_HYPRE_Impl* %0, i64 0, i32 14
  %97 = load i32**, i32*** %96, align 8, !tbaa !120
  %98 = call { i64, i1 } @llvm.umul.with.overflow.i64(i64 %25, i64 8)
  %99 = extractvalue { i64, i1 } %98, 1
  %100 = extractvalue { i64, i1 } %98, 0
  %101 = select i1 %99, i64 -1, i64 %100
  %102 = call noalias nonnull i8* @_Znam(i64 %101) #22
  %103 = bitcast i32*** %96 to i8**
  store i8* %102, i8** %103, align 8, !tbaa !120
  %104 = load i32, i32* %18, align 8, !tbaa !113
  %105 = icmp sgt i32 %104, 0
  br i1 %105, label %106, label %108

106:                                              ; preds = %95
  %107 = zext i32 %104 to i64
  br label %112

108:                                              ; preds = %112, %95
  %109 = icmp sgt i32 %1, 0
  br i1 %109, label %110, label %161

110:                                              ; preds = %108
  %111 = zext i32 %1 to i64
  br label %120

112:                                              ; preds = %106, %112
  %113 = phi i64 [ 0, %106 ], [ %118, %112 ]
  %114 = getelementptr inbounds i32*, i32** %97, i64 %113
  %115 = load i32*, i32** %114, align 8, !tbaa !13
  %116 = load i32**, i32*** %96, align 8, !tbaa !120
  %117 = getelementptr inbounds i32*, i32** %116, i64 %113
  store i32* %115, i32** %117, align 8, !tbaa !13
  %118 = add nuw nsw i64 %113, 1
  %119 = icmp eq i64 %118, %107
  br i1 %119, label %108, label %112, !llvm.loop !121

120:                                              ; preds = %110, %158
  %121 = phi i64 [ 0, %110 ], [ %159, %158 ]
  %122 = getelementptr inbounds i32, i32* %3, i64 %121
  %123 = load i32, i32* %122, align 4, !tbaa !46
  %124 = sext i32 %123 to i64
  %125 = call { i64, i1 } @llvm.umul.with.overflow.i64(i64 %124, i64 4)
  %126 = extractvalue { i64, i1 } %125, 1
  %127 = extractvalue { i64, i1 } %125, 0
  %128 = select i1 %126, i64 -1, i64 %127
  %129 = call noalias nonnull i8* @_Znam(i64 %128) #22
  %130 = load i32**, i32*** %96, align 8, !tbaa !120
  %131 = load i32, i32* %18, align 8, !tbaa !113
  %132 = trunc i64 %121 to i32
  %133 = add nsw i32 %131, %132
  %134 = sext i32 %133 to i64
  %135 = getelementptr inbounds i32*, i32** %130, i64 %134
  %136 = bitcast i32** %135 to i8**
  store i8* %129, i8** %136, align 8, !tbaa !13
  %137 = load i32**, i32*** %96, align 8
  %138 = load i32, i32* %122, align 4, !tbaa !46
  %139 = icmp sgt i32 %138, 0
  br i1 %139, label %140, label %158

140:                                              ; preds = %120
  %141 = getelementptr inbounds i32*, i32** %4, i64 %121
  %142 = load i32*, i32** %141, align 8, !tbaa !13
  %143 = trunc i64 %121 to i32
  br label %144

144:                                              ; preds = %140, %144
  %145 = phi i64 [ 0, %140 ], [ %154, %144 ]
  %146 = getelementptr inbounds i32, i32* %142, i64 %145
  %147 = load i32, i32* %146, align 4, !tbaa !46
  %148 = load i32, i32* %18, align 8, !tbaa !113
  %149 = add nsw i32 %148, %143
  %150 = sext i32 %149 to i64
  %151 = getelementptr inbounds i32*, i32** %137, i64 %150
  %152 = load i32*, i32** %151, align 8, !tbaa !13
  %153 = getelementptr inbounds i32, i32* %152, i64 %145
  store i32 %147, i32* %153, align 4, !tbaa !46
  %154 = add nuw nsw i64 %145, 1
  %155 = load i32, i32* %122, align 4, !tbaa !46
  %156 = sext i32 %155 to i64
  %157 = icmp slt i64 %154, %156
  br i1 %157, label %144, label %158, !llvm.loop !122

158:                                              ; preds = %144, %120
  %159 = add nuw nsw i64 %121, 1
  %160 = icmp eq i64 %159, %111
  br i1 %160, label %161, label %120, !llvm.loop !123

161:                                              ; preds = %158, %108
  store i32 %22, i32* %18, align 8, !tbaa !113
  %162 = icmp eq i32** %97, null
  br i1 %162, label %165, label %163

163:                                              ; preds = %161
  %164 = bitcast i32** %97 to i8*
  call void @_ZdaPv(i8* %164) #21
  br label %165

165:                                              ; preds = %163, %161
  %166 = icmp eq i32* %63, null
  br i1 %166, label %169, label %167

167:                                              ; preds = %165
  %168 = bitcast i32* %63 to i8*
  call void @_ZdaPv(i8* %168) #21
  br label %169

169:                                              ; preds = %167, %165
  %170 = icmp eq i32* %24, null
  br i1 %170, label %238, label %171

171:                                              ; preds = %169
  %172 = bitcast i32* %24 to i8*
  call void @_ZdaPv(i8* %172) #21
  br label %238

173:                                              ; preds = %15
  store i32 %1, i32* %18, align 8, !tbaa !113
  %174 = sext i32 %1 to i64
  %175 = call { i64, i1 } @llvm.umul.with.overflow.i64(i64 %174, i64 4)
  %176 = extractvalue { i64, i1 } %175, 1
  %177 = extractvalue { i64, i1 } %175, 0
  %178 = select i1 %176, i64 -1, i64 %177
  %179 = call noalias nonnull i8* @_Znam(i64 %178) #22
  %180 = getelementptr inbounds %class.FEI_HYPRE_Impl, %class.FEI_HYPRE_Impl* %0, i64 0, i32 12
  %181 = bitcast i32** %180 to i8**
  store i8* %179, i8** %181, align 8, !tbaa !114
  %182 = icmp sgt i32 %1, 0
  br i1 %182, label %183, label %186

183:                                              ; preds = %173
  %184 = zext i32 %1 to i64
  %185 = shl nuw nsw i64 %184, 2
  call void @llvm.memcpy.p0i8.p0i8.i64(i8* nonnull align 4 %179, i8* align 4 %6, i64 %185, i1 false)
  br label %186

186:                                              ; preds = %183, %173
  %187 = call noalias nonnull i8* @_Znam(i64 %178) #22
  %188 = getelementptr inbounds %class.FEI_HYPRE_Impl, %class.FEI_HYPRE_Impl* %0, i64 0, i32 13
  %189 = bitcast i32** %188 to i8**
  store i8* %187, i8** %189, align 8, !tbaa !117
  %190 = icmp sgt i32 %1, 0
  br i1 %190, label %191, label %194

191:                                              ; preds = %186
  %192 = zext i32 %1 to i64
  %193 = shl nuw nsw i64 %192, 2
  call void @llvm.memcpy.p0i8.p0i8.i64(i8* nonnull align 4 %187, i8* align 4 %7, i64 %193, i1 false)
  br label %194

194:                                              ; preds = %191, %186
  %195 = call { i64, i1 } @llvm.umul.with.overflow.i64(i64 %174, i64 8)
  %196 = extractvalue { i64, i1 } %195, 1
  %197 = extractvalue { i64, i1 } %195, 0
  %198 = select i1 %196, i64 -1, i64 %197
  %199 = call noalias nonnull i8* @_Znam(i64 %198) #22
  %200 = getelementptr inbounds %class.FEI_HYPRE_Impl, %class.FEI_HYPRE_Impl* %0, i64 0, i32 14
  %201 = bitcast i32*** %200 to i8**
  store i8* %199, i8** %201, align 8, !tbaa !120
  %202 = icmp sgt i32 %1, 0
  br i1 %202, label %203, label %238

203:                                              ; preds = %194
  %204 = zext i32 %1 to i64
  br label %205

205:                                              ; preds = %203, %235
  %206 = phi i64 [ 0, %203 ], [ %236, %235 ]
  %207 = getelementptr inbounds i32, i32* %3, i64 %206
  %208 = load i32, i32* %207, align 4, !tbaa !46
  %209 = sext i32 %208 to i64
  %210 = call { i64, i1 } @llvm.umul.with.overflow.i64(i64 %209, i64 4)
  %211 = extractvalue { i64, i1 } %210, 1
  %212 = extractvalue { i64, i1 } %210, 0
  %213 = select i1 %211, i64 -1, i64 %212
  %214 = call noalias nonnull i8* @_Znam(i64 %213) #22
  %215 = load i32**, i32*** %200, align 8, !tbaa !120
  %216 = getelementptr inbounds i32*, i32** %215, i64 %206
  %217 = bitcast i32** %216 to i8**
  store i8* %214, i8** %217, align 8, !tbaa !13
  %218 = load i32, i32* %207, align 4, !tbaa !46
  %219 = icmp sgt i32 %218, 0
  br i1 %219, label %220, label %235

220:                                              ; preds = %205
  %221 = load i32**, i32*** %200, align 8
  %222 = getelementptr inbounds i32*, i32** %221, i64 %206
  %223 = getelementptr inbounds i32*, i32** %4, i64 %206
  %224 = load i32*, i32** %223, align 8, !tbaa !13
  %225 = load i32*, i32** %222, align 8, !tbaa !13
  br label %226

226:                                              ; preds = %220, %226
  %227 = phi i64 [ 0, %220 ], [ %231, %226 ]
  %228 = getelementptr inbounds i32, i32* %224, i64 %227
  %229 = load i32, i32* %228, align 4, !tbaa !46
  %230 = getelementptr inbounds i32, i32* %225, i64 %227
  store i32 %229, i32* %230, align 4, !tbaa !46
  %231 = add nuw nsw i64 %227, 1
  %232 = load i32, i32* %207, align 4, !tbaa !46
  %233 = sext i32 %232 to i64
  %234 = icmp slt i64 %231, %233
  br i1 %234, label %226, label %235, !llvm.loop !124

235:                                              ; preds = %226, %205
  %236 = add nuw nsw i64 %206, 1
  %237 = icmp eq i64 %236, %204
  br i1 %237, label %238, label %205, !llvm.loop !125

238:                                              ; preds = %235, %194, %169, %171
  %239 = call double @MPI_Wtime()
  %240 = load double, double* %17, align 8, !tbaa !112
  %241 = fsub double %239, %240
  %242 = getelementptr inbounds %class.FEI_HYPRE_Impl, %class.FEI_HYPRE_Impl* %0, i64 0, i32 46
  %243 = load double, double* %242, align 8, !tbaa !126
  %244 = fadd double %243, %241
  store double %244, double* %242, align 8, !tbaa !126
  %245 = load i32, i32* %8, align 8, !tbaa !68
  %246 = icmp sgt i32 %245, 1
  br i1 %246, label %247, label %251

247:                                              ; preds = %238
  %248 = getelementptr inbounds %class.FEI_HYPRE_Impl, %class.FEI_HYPRE_Impl* %0, i64 0, i32 1
  %249 = load i32, i32* %248, align 4, !tbaa !69
  %250 = call i32 (i8*, ...) @printf(i8* nonnull dereferenceable(1) getelementptr inbounds ([46 x i8], [46 x i8]* @.str.42, i64 0, i64 0), i32 %249)
  br label %251

251:                                              ; preds = %247, %238
  ret i32 0
}

declare dso_local double @MPI_Wtime() local_unnamed_addr #12

; Function Attrs: mustprogress nounwind uwtable
define dso_local i32 @_ZN14FEI_HYPRE_Impl11resetSystemEd(%class.FEI_HYPRE_Impl* nonnull align 8 dereferenceable(352) %0, double %1) local_unnamed_addr #7 align 2 {
  %3 = getelementptr inbounds %class.FEI_HYPRE_Impl, %class.FEI_HYPRE_Impl* %0, i64 0, i32 2
  %4 = load i32, i32* %3, align 8, !tbaa !68
  %5 = icmp sgt i32 %4, 1
  br i1 %5, label %6, label %10

6:                                                ; preds = %2
  %7 = getelementptr inbounds %class.FEI_HYPRE_Impl, %class.FEI_HYPRE_Impl* %0, i64 0, i32 1
  %8 = load i32, i32* %7, align 4, !tbaa !69
  %9 = call i32 (i8*, ...) @printf(i8* nonnull dereferenceable(1) getelementptr inbounds ([45 x i8], [45 x i8]* @.str.43, i64 0, i64 0), i32 %8)
  br label %10

10:                                               ; preds = %6, %2
  %11 = getelementptr inbounds %class.FEI_HYPRE_Impl, %class.FEI_HYPRE_Impl* %0, i64 0, i32 3
  %12 = getelementptr inbounds %class.FEI_HYPRE_Impl, %class.FEI_HYPRE_Impl* %0, i64 0, i32 4
  %13 = load i32, i32* %11, align 4, !tbaa !70
  %14 = icmp sgt i32 %13, 0
  br i1 %14, label %21, label %15

15:                                               ; preds = %21, %10
  %16 = getelementptr inbounds %class.FEI_HYPRE_Impl, %class.FEI_HYPRE_Impl* %0, i64 0, i32 5
  store i32 0, i32* %16, align 8, !tbaa !127
  %17 = getelementptr inbounds %class.FEI_HYPRE_Impl, %class.FEI_HYPRE_Impl* %0, i64 0, i32 6
  store i32 0, i32* %17, align 4, !tbaa !128
  %18 = getelementptr inbounds %class.FEI_HYPRE_Impl, %class.FEI_HYPRE_Impl* %0, i64 0, i32 8
  %19 = load i32*, i32** %18, align 8, !tbaa !71
  %20 = icmp eq i32* %19, null
  br i1 %20, label %33, label %31

21:                                               ; preds = %10, %21
  %22 = phi i64 [ %27, %21 ], [ 0, %10 ]
  %23 = load %class.FEI_HYPRE_Elem_Block**, %class.FEI_HYPRE_Elem_Block*** %12, align 8, !tbaa !72
  %24 = getelementptr inbounds %class.FEI_HYPRE_Elem_Block*, %class.FEI_HYPRE_Elem_Block** %23, i64 %22
  %25 = load %class.FEI_HYPRE_Elem_Block*, %class.FEI_HYPRE_Elem_Block** %24, align 8, !tbaa !13
  %26 = call i32 @_ZN20FEI_HYPRE_Elem_Block5resetEv(%class.FEI_HYPRE_Elem_Block* nonnull align 8 dereferenceable(96) %25)
  %27 = add nuw nsw i64 %22, 1
  %28 = load i32, i32* %11, align 4, !tbaa !70
  %29 = sext i32 %28 to i64
  %30 = icmp slt i64 %27, %29
  br i1 %30, label %21, label %15, !llvm.loop !129

31:                                               ; preds = %15
  %32 = bitcast i32* %19 to i8*
  call void @_ZdaPv(i8* %32) #21
  br label %33

33:                                               ; preds = %31, %15
  %34 = getelementptr inbounds %class.FEI_HYPRE_Impl, %class.FEI_HYPRE_Impl* %0, i64 0, i32 9
  %35 = load i32*, i32** %34, align 8, !tbaa !74
  %36 = icmp eq i32* %35, null
  br i1 %36, label %39, label %37

37:                                               ; preds = %33
  %38 = bitcast i32* %35 to i8*
  call void @_ZdaPv(i8* %38) #21
  br label %39

39:                                               ; preds = %37, %33
  %40 = getelementptr inbounds %class.FEI_HYPRE_Impl, %class.FEI_HYPRE_Impl* %0, i64 0, i32 10
  %41 = load i32*, i32** %40, align 8, !tbaa !75
  %42 = icmp eq i32* %41, null
  br i1 %42, label %45, label %43

43:                                               ; preds = %39
  %44 = bitcast i32* %41 to i8*
  call void @_ZdaPv(i8* %44) #21
  br label %45

45:                                               ; preds = %43, %39
  %46 = getelementptr inbounds %class.FEI_HYPRE_Impl, %class.FEI_HYPRE_Impl* %0, i64 0, i32 16
  %47 = load i32*, i32** %46, align 8, !tbaa !76
  %48 = icmp eq i32* %47, null
  br i1 %48, label %51, label %49

49:                                               ; preds = %45
  %50 = bitcast i32* %47 to i8*
  call void @_ZdaPv(i8* %50) #21
  br label %51

51:                                               ; preds = %49, %45
  %52 = getelementptr inbounds %class.FEI_HYPRE_Impl, %class.FEI_HYPRE_Impl* %0, i64 0, i32 17
  %53 = load i32*, i32** %52, align 8, !tbaa !77
  %54 = icmp eq i32* %53, null
  br i1 %54, label %57, label %55

55:                                               ; preds = %51
  %56 = bitcast i32* %53 to i8*
  call void @_ZdaPv(i8* %56) #21
  br label %57

57:                                               ; preds = %55, %51
  %58 = getelementptr inbounds %class.FEI_HYPRE_Impl, %class.FEI_HYPRE_Impl* %0, i64 0, i32 18
  %59 = load i32**, i32*** %58, align 8, !tbaa !78
  %60 = icmp eq i32** %59, null
  br i1 %60, label %83, label %61

61:                                               ; preds = %57
  %62 = getelementptr inbounds %class.FEI_HYPRE_Impl, %class.FEI_HYPRE_Impl* %0, i64 0, i32 15
  %63 = load i32, i32* %62, align 8, !tbaa !79
  %64 = icmp sgt i32 %63, 0
  br i1 %64, label %68, label %65

65:                                               ; preds = %76, %61
  %66 = load i32**, i32*** %58, align 8, !tbaa !78
  %67 = icmp eq i32** %66, null
  br i1 %67, label %83, label %81

68:                                               ; preds = %61, %76
  %69 = phi i64 [ %77, %76 ], [ 0, %61 ]
  %70 = load i32**, i32*** %58, align 8, !tbaa !78
  %71 = getelementptr inbounds i32*, i32** %70, i64 %69
  %72 = load i32*, i32** %71, align 8, !tbaa !13
  %73 = icmp eq i32* %72, null
  br i1 %73, label %76, label %74

74:                                               ; preds = %68
  %75 = bitcast i32* %72 to i8*
  call void @_ZdaPv(i8* %75) #21
  br label %76

76:                                               ; preds = %68, %74
  %77 = add nuw nsw i64 %69, 1
  %78 = load i32, i32* %62, align 8, !tbaa !79
  %79 = sext i32 %78 to i64
  %80 = icmp slt i64 %77, %79
  br i1 %80, label %68, label %65, !llvm.loop !130

81:                                               ; preds = %65
  %82 = bitcast i32** %66 to i8*
  call void @_ZdaPv(i8* %82) #21
  br label %83

83:                                               ; preds = %65, %81, %57
  %84 = getelementptr inbounds %class.FEI_HYPRE_Impl, %class.FEI_HYPRE_Impl* %0, i64 0, i32 20
  %85 = load i32*, i32** %84, align 8, !tbaa !81
  %86 = icmp eq i32* %85, null
  br i1 %86, label %89, label %87

87:                                               ; preds = %83
  %88 = bitcast i32* %85 to i8*
  call void @_ZdaPv(i8* %88) #21
  br label %89

89:                                               ; preds = %87, %83
  %90 = getelementptr inbounds %class.FEI_HYPRE_Impl, %class.FEI_HYPRE_Impl* %0, i64 0, i32 21
  %91 = load i32*, i32** %90, align 8, !tbaa !82
  %92 = icmp eq i32* %91, null
  br i1 %92, label %95, label %93

93:                                               ; preds = %89
  %94 = bitcast i32* %91 to i8*
  call void @_ZdaPv(i8* %94) #21
  br label %95

95:                                               ; preds = %93, %89
  %96 = getelementptr inbounds %class.FEI_HYPRE_Impl, %class.FEI_HYPRE_Impl* %0, i64 0, i32 22
  %97 = load i32**, i32*** %96, align 8, !tbaa !83
  %98 = icmp eq i32** %97, null
  br i1 %98, label %121, label %99

99:                                               ; preds = %95
  %100 = getelementptr inbounds %class.FEI_HYPRE_Impl, %class.FEI_HYPRE_Impl* %0, i64 0, i32 19
  %101 = load i32, i32* %100, align 8, !tbaa !84
  %102 = icmp sgt i32 %101, 0
  br i1 %102, label %106, label %103

103:                                              ; preds = %114, %99
  %104 = load i32**, i32*** %96, align 8, !tbaa !83
  %105 = icmp eq i32** %104, null
  br i1 %105, label %121, label %119

106:                                              ; preds = %99, %114
  %107 = phi i64 [ %115, %114 ], [ 0, %99 ]
  %108 = load i32**, i32*** %96, align 8, !tbaa !83
  %109 = getelementptr inbounds i32*, i32** %108, i64 %107
  %110 = load i32*, i32** %109, align 8, !tbaa !13
  %111 = icmp eq i32* %110, null
  br i1 %111, label %114, label %112

112:                                              ; preds = %106
  %113 = bitcast i32* %110 to i8*
  call void @_ZdaPv(i8* %113) #21
  br label %114

114:                                              ; preds = %106, %112
  %115 = add nuw nsw i64 %107, 1
  %116 = load i32, i32* %100, align 8, !tbaa !84
  %117 = sext i32 %116 to i64
  %118 = icmp slt i64 %115, %117
  br i1 %118, label %106, label %103, !llvm.loop !131

119:                                              ; preds = %103
  %120 = bitcast i32** %104 to i8*
  call void @_ZdaPv(i8* %120) #21
  br label %121

121:                                              ; preds = %103, %119, %95
  %122 = getelementptr inbounds %class.FEI_HYPRE_Impl, %class.FEI_HYPRE_Impl* %0, i64 0, i32 30
  %123 = load i32*, i32** %122, align 8, !tbaa !86
  %124 = icmp eq i32* %123, null
  br i1 %124, label %127, label %125

125:                                              ; preds = %121
  %126 = bitcast i32* %123 to i8*
  call void @_ZdaPv(i8* %126) #21
  br label %127

127:                                              ; preds = %125, %121
  %128 = getelementptr inbounds %class.FEI_HYPRE_Impl, %class.FEI_HYPRE_Impl* %0, i64 0, i32 31
  %129 = load i32*, i32** %128, align 8, !tbaa !87
  %130 = icmp eq i32* %129, null
  br i1 %130, label %133, label %131

131:                                              ; preds = %127
  %132 = bitcast i32* %129 to i8*
  call void @_ZdaPv(i8* %132) #21
  br label %133

133:                                              ; preds = %131, %127
  %134 = getelementptr inbounds %class.FEI_HYPRE_Impl, %class.FEI_HYPRE_Impl* %0, i64 0, i32 32
  %135 = load double*, double** %134, align 8, !tbaa !88
  %136 = icmp eq double* %135, null
  br i1 %136, label %139, label %137

137:                                              ; preds = %133
  %138 = bitcast double* %135 to i8*
  call void @_ZdaPv(i8* %138) #21
  br label %139

139:                                              ; preds = %137, %133
  %140 = getelementptr inbounds %class.FEI_HYPRE_Impl, %class.FEI_HYPRE_Impl* %0, i64 0, i32 33
  %141 = load i32*, i32** %140, align 8, !tbaa !89
  %142 = icmp eq i32* %141, null
  br i1 %142, label %145, label %143

143:                                              ; preds = %139
  %144 = bitcast i32* %141 to i8*
  call void @_ZdaPv(i8* %144) #21
  br label %145

145:                                              ; preds = %143, %139
  %146 = getelementptr inbounds %class.FEI_HYPRE_Impl, %class.FEI_HYPRE_Impl* %0, i64 0, i32 34
  %147 = load i32*, i32** %146, align 8, !tbaa !90
  %148 = icmp eq i32* %147, null
  br i1 %148, label %151, label %149

149:                                              ; preds = %145
  %150 = bitcast i32* %147 to i8*
  call void @_ZdaPv(i8* %150) #21
  br label %151

151:                                              ; preds = %149, %145
  %152 = getelementptr inbounds %class.FEI_HYPRE_Impl, %class.FEI_HYPRE_Impl* %0, i64 0, i32 35
  %153 = load double*, double** %152, align 8, !tbaa !91
  %154 = icmp eq double* %153, null
  br i1 %154, label %157, label %155

155:                                              ; preds = %151
  %156 = bitcast double* %153 to i8*
  call void @_ZdaPv(i8* %156) #21
  br label %157

157:                                              ; preds = %155, %151
  %158 = getelementptr inbounds %class.FEI_HYPRE_Impl, %class.FEI_HYPRE_Impl* %0, i64 0, i32 36
  %159 = load double*, double** %158, align 8, !tbaa !92
  %160 = icmp eq double* %159, null
  br i1 %160, label %163, label %161

161:                                              ; preds = %157
  %162 = bitcast double* %159 to i8*
  call void @_ZdaPv(i8* %162) #21
  br label %163

163:                                              ; preds = %161, %157
  %164 = getelementptr inbounds %class.FEI_HYPRE_Impl, %class.FEI_HYPRE_Impl* %0, i64 0, i32 39
  %165 = load double**, double*** %164, align 8, !tbaa !96
  %166 = icmp eq double** %165, null
  br i1 %166, label %189, label %167

167:                                              ; preds = %163
  %168 = getelementptr inbounds %class.FEI_HYPRE_Impl, %class.FEI_HYPRE_Impl* %0, i64 0, i32 37
  %169 = load i32, i32* %168, align 8, !tbaa !97
  %170 = icmp sgt i32 %169, 0
  br i1 %170, label %174, label %171

171:                                              ; preds = %182, %167
  %172 = load double**, double*** %164, align 8, !tbaa !96
  %173 = icmp eq double** %172, null
  br i1 %173, label %189, label %187

174:                                              ; preds = %167, %182
  %175 = phi i64 [ %183, %182 ], [ 0, %167 ]
  %176 = load double**, double*** %164, align 8, !tbaa !96
  %177 = getelementptr inbounds double*, double** %176, i64 %175
  %178 = load double*, double** %177, align 8, !tbaa !13
  %179 = icmp eq double* %178, null
  br i1 %179, label %182, label %180

180:                                              ; preds = %174
  %181 = bitcast double* %178 to i8*
  call void @_ZdaPv(i8* %181) #21
  br label %182

182:                                              ; preds = %174, %180
  %183 = add nuw nsw i64 %175, 1
  %184 = load i32, i32* %168, align 8, !tbaa !97
  %185 = sext i32 %184 to i64
  %186 = icmp slt i64 %183, %185
  br i1 %186, label %174, label %171, !llvm.loop !132

187:                                              ; preds = %171
  %188 = bitcast double** %172 to i8*
  call void @_ZdaPv(i8* %188) #21
  br label %189

189:                                              ; preds = %171, %187, %163
  %190 = getelementptr inbounds %class.FEI_HYPRE_Impl, %class.FEI_HYPRE_Impl* %0, i64 0, i32 40
  %191 = load double**, double*** %190, align 8, !tbaa !99
  %192 = icmp eq double** %191, null
  br i1 %192, label %215, label %193

193:                                              ; preds = %189
  %194 = getelementptr inbounds %class.FEI_HYPRE_Impl, %class.FEI_HYPRE_Impl* %0, i64 0, i32 37
  %195 = load i32, i32* %194, align 8, !tbaa !97
  %196 = icmp sgt i32 %195, 0
  br i1 %196, label %200, label %197

197:                                              ; preds = %208, %193
  %198 = load double**, double*** %190, align 8, !tbaa !99
  %199 = icmp eq double** %198, null
  br i1 %199, label %215, label %213

200:                                              ; preds = %193, %208
  %201 = phi i64 [ %209, %208 ], [ 0, %193 ]
  %202 = load double**, double*** %190, align 8, !tbaa !99
  %203 = getelementptr inbounds double*, double** %202, i64 %201
  %204 = load double*, double** %203, align 8, !tbaa !13
  %205 = icmp eq double* %204, null
  br i1 %205, label %208, label %206

206:                                              ; preds = %200
  %207 = bitcast double* %204 to i8*
  call void @_ZdaPv(i8* %207) #21
  br label %208

208:                                              ; preds = %200, %206
  %209 = add nuw nsw i64 %201, 1
  %210 = load i32, i32* %194, align 8, !tbaa !97
  %211 = sext i32 %210 to i64
  %212 = icmp slt i64 %209, %211
  br i1 %212, label %200, label %197, !llvm.loop !133

213:                                              ; preds = %197
  %214 = bitcast double** %198 to i8*
  call void @_ZdaPv(i8* %214) #21
  br label %215

215:                                              ; preds = %197, %213, %189
  %216 = getelementptr inbounds %class.FEI_HYPRE_Impl, %class.FEI_HYPRE_Impl* %0, i64 0, i32 41
  %217 = load double**, double*** %216, align 8, !tbaa !101
  %218 = icmp eq double** %217, null
  br i1 %218, label %241, label %219

219:                                              ; preds = %215
  %220 = getelementptr inbounds %class.FEI_HYPRE_Impl, %class.FEI_HYPRE_Impl* %0, i64 0, i32 37
  %221 = load i32, i32* %220, align 8, !tbaa !97
  %222 = icmp sgt i32 %221, 0
  br i1 %222, label %226, label %223

223:                                              ; preds = %234, %219
  %224 = load double**, double*** %216, align 8, !tbaa !101
  %225 = icmp eq double** %224, null
  br i1 %225, label %241, label %239

226:                                              ; preds = %219, %234
  %227 = phi i64 [ %235, %234 ], [ 0, %219 ]
  %228 = load double**, double*** %216, align 8, !tbaa !101
  %229 = getelementptr inbounds double*, double** %228, i64 %227
  %230 = load double*, double** %229, align 8, !tbaa !13
  %231 = icmp eq double* %230, null
  br i1 %231, label %234, label %232

232:                                              ; preds = %226
  %233 = bitcast double* %230 to i8*
  call void @_ZdaPv(i8* %233) #21
  br label %234

234:                                              ; preds = %226, %232
  %235 = add nuw nsw i64 %227, 1
  %236 = load i32, i32* %220, align 8, !tbaa !97
  %237 = sext i32 %236 to i64
  %238 = icmp slt i64 %235, %237
  br i1 %238, label %226, label %223, !llvm.loop !134

239:                                              ; preds = %223
  %240 = bitcast double** %224 to i8*
  call void @_ZdaPv(i8* %240) #21
  br label %241

241:                                              ; preds = %223, %239, %215
  %242 = getelementptr inbounds %class.FEI_HYPRE_Impl, %class.FEI_HYPRE_Impl* %0, i64 0, i32 38
  %243 = load i32*, i32** %242, align 8, !tbaa !95
  %244 = icmp eq i32* %243, null
  br i1 %244, label %247, label %245

245:                                              ; preds = %241
  %246 = bitcast i32* %243 to i8*
  call void @_ZdaPv(i8* %246) #21
  br label %247

247:                                              ; preds = %245, %241
  %248 = getelementptr inbounds %class.FEI_HYPRE_Impl, %class.FEI_HYPRE_Impl* %0, i64 0, i32 43
  %249 = load double*, double** %248, align 8, !tbaa !94
  %250 = icmp eq double* %249, null
  br i1 %250, label %253, label %251

251:                                              ; preds = %247
  %252 = bitcast double* %249 to i8*
  call void @_ZdaPv(i8* %252) #21
  br label %253

253:                                              ; preds = %251, %247
  %254 = getelementptr inbounds %class.FEI_HYPRE_Impl, %class.FEI_HYPRE_Impl* %0, i64 0, i32 15
  store i32 0, i32* %254, align 8, !tbaa !79
  store double* null, double** %248, align 8, !tbaa !94
  %255 = getelementptr inbounds %class.FEI_HYPRE_Impl, %class.FEI_HYPRE_Impl* %0, i64 0, i32 45
  %256 = bitcast i32** %18 to i8*
  call void @llvm.memset.p0i8.i64(i8* noundef nonnull align 8 dereferenceable(24) %256, i8 0, i64 24, i1 false)
  %257 = bitcast i32** %46 to i8*
  call void @llvm.memset.p0i8.i64(i8* noundef nonnull align 8 dereferenceable(28) %257, i8 0, i64 28, i1 false)
  %258 = bitcast i32** %84 to i8*
  call void @llvm.memset.p0i8.i64(i8* noundef nonnull align 8 dereferenceable(24) %258, i8 0, i64 24, i1 false)
  %259 = bitcast i32** %122 to i8*
  call void @llvm.memset.p0i8.i64(i8* noundef nonnull align 8 dereferenceable(60) %259, i8 0, i64 60, i1 false)
  %260 = bitcast i32** %242 to i8*
  call void @llvm.memset.p0i8.i64(i8* noundef nonnull align 8 dereferenceable(32) %260, i8 0, i64 32, i1 false)
  %261 = bitcast i32* %255 to i8*
  call void @llvm.memset.p0i8.i64(i8* noundef nonnull align 4 dereferenceable(36) %261, i8 0, i64 36, i1 false)
  %262 = load i32, i32* %3, align 8, !tbaa !68
  %263 = icmp sgt i32 %262, 1
  br i1 %263, label %264, label %268

264:                                              ; preds = %253
  %265 = getelementptr inbounds %class.FEI_HYPRE_Impl, %class.FEI_HYPRE_Impl* %0, i64 0, i32 1
  %266 = load i32, i32* %265, align 4, !tbaa !69
  %267 = call i32 (i8*, ...) @printf(i8* nonnull dereferenceable(1) getelementptr inbounds ([41 x i8], [41 x i8]* @.str.44, i64 0, i64 0), i32 %266)
  br label %268

268:                                              ; preds = %264, %253
  ret i32 0
}

; Function Attrs: mustprogress nounwind uwtable
define dso_local i32 @_ZN14FEI_HYPRE_Impl11resetMatrixEd(%class.FEI_HYPRE_Impl* nonnull align 8 dereferenceable(352) %0, double %1) local_unnamed_addr #7 align 2 {
  %3 = getelementptr inbounds %class.FEI_HYPRE_Impl, %class.FEI_HYPRE_Impl* %0, i64 0, i32 2
  %4 = load i32, i32* %3, align 8, !tbaa !68
  %5 = icmp sgt i32 %4, 1
  br i1 %5, label %6, label %10

6:                                                ; preds = %2
  %7 = getelementptr inbounds %class.FEI_HYPRE_Impl, %class.FEI_HYPRE_Impl* %0, i64 0, i32 1
  %8 = load i32, i32* %7, align 4, !tbaa !69
  %9 = call i32 (i8*, ...) @printf(i8* nonnull dereferenceable(1) getelementptr inbounds ([45 x i8], [45 x i8]* @.str.45, i64 0, i64 0), i32 %8)
  br label %10

10:                                               ; preds = %6, %2
  %11 = getelementptr inbounds %class.FEI_HYPRE_Impl, %class.FEI_HYPRE_Impl* %0, i64 0, i32 3
  %12 = getelementptr inbounds %class.FEI_HYPRE_Impl, %class.FEI_HYPRE_Impl* %0, i64 0, i32 4
  %13 = load i32, i32* %11, align 4, !tbaa !70
  %14 = icmp sgt i32 %13, 0
  br i1 %14, label %21, label %15

15:                                               ; preds = %21, %10
  %16 = getelementptr inbounds %class.FEI_HYPRE_Impl, %class.FEI_HYPRE_Impl* %0, i64 0, i32 5
  store i32 0, i32* %16, align 8, !tbaa !127
  %17 = getelementptr inbounds %class.FEI_HYPRE_Impl, %class.FEI_HYPRE_Impl* %0, i64 0, i32 6
  store i32 0, i32* %17, align 4, !tbaa !128
  %18 = getelementptr inbounds %class.FEI_HYPRE_Impl, %class.FEI_HYPRE_Impl* %0, i64 0, i32 8
  %19 = load i32*, i32** %18, align 8, !tbaa !71
  %20 = icmp eq i32* %19, null
  br i1 %20, label %33, label %31

21:                                               ; preds = %10, %21
  %22 = phi i64 [ %27, %21 ], [ 0, %10 ]
  %23 = load %class.FEI_HYPRE_Elem_Block**, %class.FEI_HYPRE_Elem_Block*** %12, align 8, !tbaa !72
  %24 = getelementptr inbounds %class.FEI_HYPRE_Elem_Block*, %class.FEI_HYPRE_Elem_Block** %23, i64 %22
  %25 = load %class.FEI_HYPRE_Elem_Block*, %class.FEI_HYPRE_Elem_Block** %24, align 8, !tbaa !13
  %26 = call i32 @_ZN20FEI_HYPRE_Elem_Block5resetEv(%class.FEI_HYPRE_Elem_Block* nonnull align 8 dereferenceable(96) %25)
  %27 = add nuw nsw i64 %22, 1
  %28 = load i32, i32* %11, align 4, !tbaa !70
  %29 = sext i32 %28 to i64
  %30 = icmp slt i64 %27, %29
  br i1 %30, label %21, label %15, !llvm.loop !135

31:                                               ; preds = %15
  %32 = bitcast i32* %19 to i8*
  call void @_ZdaPv(i8* %32) #21
  br label %33

33:                                               ; preds = %31, %15
  %34 = getelementptr inbounds %class.FEI_HYPRE_Impl, %class.FEI_HYPRE_Impl* %0, i64 0, i32 9
  %35 = load i32*, i32** %34, align 8, !tbaa !74
  %36 = icmp eq i32* %35, null
  br i1 %36, label %39, label %37

37:                                               ; preds = %33
  %38 = bitcast i32* %35 to i8*
  call void @_ZdaPv(i8* %38) #21
  br label %39

39:                                               ; preds = %37, %33
  %40 = getelementptr inbounds %class.FEI_HYPRE_Impl, %class.FEI_HYPRE_Impl* %0, i64 0, i32 10
  %41 = load i32*, i32** %40, align 8, !tbaa !75
  %42 = icmp eq i32* %41, null
  br i1 %42, label %45, label %43

43:                                               ; preds = %39
  %44 = bitcast i32* %41 to i8*
  call void @_ZdaPv(i8* %44) #21
  br label %45

45:                                               ; preds = %43, %39
  %46 = getelementptr inbounds %class.FEI_HYPRE_Impl, %class.FEI_HYPRE_Impl* %0, i64 0, i32 16
  %47 = load i32*, i32** %46, align 8, !tbaa !76
  %48 = icmp eq i32* %47, null
  br i1 %48, label %51, label %49

49:                                               ; preds = %45
  %50 = bitcast i32* %47 to i8*
  call void @_ZdaPv(i8* %50) #21
  br label %51

51:                                               ; preds = %49, %45
  %52 = getelementptr inbounds %class.FEI_HYPRE_Impl, %class.FEI_HYPRE_Impl* %0, i64 0, i32 17
  %53 = load i32*, i32** %52, align 8, !tbaa !77
  %54 = icmp eq i32* %53, null
  br i1 %54, label %57, label %55

55:                                               ; preds = %51
  %56 = bitcast i32* %53 to i8*
  call void @_ZdaPv(i8* %56) #21
  br label %57

57:                                               ; preds = %55, %51
  %58 = getelementptr inbounds %class.FEI_HYPRE_Impl, %class.FEI_HYPRE_Impl* %0, i64 0, i32 18
  %59 = load i32**, i32*** %58, align 8, !tbaa !78
  %60 = icmp eq i32** %59, null
  br i1 %60, label %83, label %61

61:                                               ; preds = %57
  %62 = getelementptr inbounds %class.FEI_HYPRE_Impl, %class.FEI_HYPRE_Impl* %0, i64 0, i32 15
  %63 = load i32, i32* %62, align 8, !tbaa !79
  %64 = icmp sgt i32 %63, 0
  br i1 %64, label %68, label %65

65:                                               ; preds = %76, %61
  %66 = load i32**, i32*** %58, align 8, !tbaa !78
  %67 = icmp eq i32** %66, null
  br i1 %67, label %83, label %81

68:                                               ; preds = %61, %76
  %69 = phi i64 [ %77, %76 ], [ 0, %61 ]
  %70 = load i32**, i32*** %58, align 8, !tbaa !78
  %71 = getelementptr inbounds i32*, i32** %70, i64 %69
  %72 = load i32*, i32** %71, align 8, !tbaa !13
  %73 = icmp eq i32* %72, null
  br i1 %73, label %76, label %74

74:                                               ; preds = %68
  %75 = bitcast i32* %72 to i8*
  call void @_ZdaPv(i8* %75) #21
  br label %76

76:                                               ; preds = %68, %74
  %77 = add nuw nsw i64 %69, 1
  %78 = load i32, i32* %62, align 8, !tbaa !79
  %79 = sext i32 %78 to i64
  %80 = icmp slt i64 %77, %79
  br i1 %80, label %68, label %65, !llvm.loop !136

81:                                               ; preds = %65
  %82 = bitcast i32** %66 to i8*
  call void @_ZdaPv(i8* %82) #21
  br label %83

83:                                               ; preds = %65, %81, %57
  %84 = getelementptr inbounds %class.FEI_HYPRE_Impl, %class.FEI_HYPRE_Impl* %0, i64 0, i32 20
  %85 = load i32*, i32** %84, align 8, !tbaa !81
  %86 = icmp eq i32* %85, null
  br i1 %86, label %89, label %87

87:                                               ; preds = %83
  %88 = bitcast i32* %85 to i8*
  call void @_ZdaPv(i8* %88) #21
  br label %89

89:                                               ; preds = %87, %83
  %90 = getelementptr inbounds %class.FEI_HYPRE_Impl, %class.FEI_HYPRE_Impl* %0, i64 0, i32 21
  %91 = load i32*, i32** %90, align 8, !tbaa !82
  %92 = icmp eq i32* %91, null
  br i1 %92, label %95, label %93

93:                                               ; preds = %89
  %94 = bitcast i32* %91 to i8*
  call void @_ZdaPv(i8* %94) #21
  br label %95

95:                                               ; preds = %93, %89
  %96 = getelementptr inbounds %class.FEI_HYPRE_Impl, %class.FEI_HYPRE_Impl* %0, i64 0, i32 22
  %97 = load i32**, i32*** %96, align 8, !tbaa !83
  %98 = icmp eq i32** %97, null
  br i1 %98, label %121, label %99

99:                                               ; preds = %95
  %100 = getelementptr inbounds %class.FEI_HYPRE_Impl, %class.FEI_HYPRE_Impl* %0, i64 0, i32 19
  %101 = load i32, i32* %100, align 8, !tbaa !84
  %102 = icmp sgt i32 %101, 0
  br i1 %102, label %106, label %103

103:                                              ; preds = %114, %99
  %104 = load i32**, i32*** %96, align 8, !tbaa !83
  %105 = icmp eq i32** %104, null
  br i1 %105, label %121, label %119

106:                                              ; preds = %99, %114
  %107 = phi i64 [ %115, %114 ], [ 0, %99 ]
  %108 = load i32**, i32*** %96, align 8, !tbaa !83
  %109 = getelementptr inbounds i32*, i32** %108, i64 %107
  %110 = load i32*, i32** %109, align 8, !tbaa !13
  %111 = icmp eq i32* %110, null
  br i1 %111, label %114, label %112

112:                                              ; preds = %106
  %113 = bitcast i32* %110 to i8*
  call void @_ZdaPv(i8* %113) #21
  br label %114

114:                                              ; preds = %106, %112
  %115 = add nuw nsw i64 %107, 1
  %116 = load i32, i32* %100, align 8, !tbaa !84
  %117 = sext i32 %116 to i64
  %118 = icmp slt i64 %115, %117
  br i1 %118, label %106, label %103, !llvm.loop !137

119:                                              ; preds = %103
  %120 = bitcast i32** %104 to i8*
  call void @_ZdaPv(i8* %120) #21
  br label %121

121:                                              ; preds = %103, %119, %95
  %122 = getelementptr inbounds %class.FEI_HYPRE_Impl, %class.FEI_HYPRE_Impl* %0, i64 0, i32 30
  %123 = load i32*, i32** %122, align 8, !tbaa !86
  %124 = icmp eq i32* %123, null
  br i1 %124, label %127, label %125

125:                                              ; preds = %121
  %126 = bitcast i32* %123 to i8*
  call void @_ZdaPv(i8* %126) #21
  br label %127

127:                                              ; preds = %125, %121
  %128 = getelementptr inbounds %class.FEI_HYPRE_Impl, %class.FEI_HYPRE_Impl* %0, i64 0, i32 31
  %129 = load i32*, i32** %128, align 8, !tbaa !87
  %130 = icmp eq i32* %129, null
  br i1 %130, label %133, label %131

131:                                              ; preds = %127
  %132 = bitcast i32* %129 to i8*
  call void @_ZdaPv(i8* %132) #21
  br label %133

133:                                              ; preds = %131, %127
  %134 = getelementptr inbounds %class.FEI_HYPRE_Impl, %class.FEI_HYPRE_Impl* %0, i64 0, i32 32
  %135 = load double*, double** %134, align 8, !tbaa !88
  %136 = icmp eq double* %135, null
  br i1 %136, label %139, label %137

137:                                              ; preds = %133
  %138 = bitcast double* %135 to i8*
  call void @_ZdaPv(i8* %138) #21
  br label %139

139:                                              ; preds = %137, %133
  %140 = getelementptr inbounds %class.FEI_HYPRE_Impl, %class.FEI_HYPRE_Impl* %0, i64 0, i32 33
  %141 = load i32*, i32** %140, align 8, !tbaa !89
  %142 = icmp eq i32* %141, null
  br i1 %142, label %145, label %143

143:                                              ; preds = %139
  %144 = bitcast i32* %141 to i8*
  call void @_ZdaPv(i8* %144) #21
  br label %145

145:                                              ; preds = %143, %139
  %146 = getelementptr inbounds %class.FEI_HYPRE_Impl, %class.FEI_HYPRE_Impl* %0, i64 0, i32 34
  %147 = load i32*, i32** %146, align 8, !tbaa !90
  %148 = icmp eq i32* %147, null
  br i1 %148, label %151, label %149

149:                                              ; preds = %145
  %150 = bitcast i32* %147 to i8*
  call void @_ZdaPv(i8* %150) #21
  br label %151

151:                                              ; preds = %149, %145
  %152 = getelementptr inbounds %class.FEI_HYPRE_Impl, %class.FEI_HYPRE_Impl* %0, i64 0, i32 35
  %153 = load double*, double** %152, align 8, !tbaa !91
  %154 = icmp eq double* %153, null
  br i1 %154, label %157, label %155

155:                                              ; preds = %151
  %156 = bitcast double* %153 to i8*
  call void @_ZdaPv(i8* %156) #21
  br label %157

157:                                              ; preds = %155, %151
  %158 = getelementptr inbounds %class.FEI_HYPRE_Impl, %class.FEI_HYPRE_Impl* %0, i64 0, i32 36
  %159 = load double*, double** %158, align 8, !tbaa !92
  %160 = icmp eq double* %159, null
  br i1 %160, label %163, label %161

161:                                              ; preds = %157
  %162 = bitcast double* %159 to i8*
  call void @_ZdaPv(i8* %162) #21
  br label %163

163:                                              ; preds = %161, %157
  %164 = getelementptr inbounds %class.FEI_HYPRE_Impl, %class.FEI_HYPRE_Impl* %0, i64 0, i32 39
  %165 = load double**, double*** %164, align 8, !tbaa !96
  %166 = icmp eq double** %165, null
  br i1 %166, label %189, label %167

167:                                              ; preds = %163
  %168 = getelementptr inbounds %class.FEI_HYPRE_Impl, %class.FEI_HYPRE_Impl* %0, i64 0, i32 37
  %169 = load i32, i32* %168, align 8, !tbaa !97
  %170 = icmp sgt i32 %169, 0
  br i1 %170, label %174, label %171

171:                                              ; preds = %182, %167
  %172 = load double**, double*** %164, align 8, !tbaa !96
  %173 = icmp eq double** %172, null
  br i1 %173, label %189, label %187

174:                                              ; preds = %167, %182
  %175 = phi i64 [ %183, %182 ], [ 0, %167 ]
  %176 = load double**, double*** %164, align 8, !tbaa !96
  %177 = getelementptr inbounds double*, double** %176, i64 %175
  %178 = load double*, double** %177, align 8, !tbaa !13
  %179 = icmp eq double* %178, null
  br i1 %179, label %182, label %180

180:                                              ; preds = %174
  %181 = bitcast double* %178 to i8*
  call void @_ZdaPv(i8* %181) #21
  br label %182

182:                                              ; preds = %174, %180
  %183 = add nuw nsw i64 %175, 1
  %184 = load i32, i32* %168, align 8, !tbaa !97
  %185 = sext i32 %184 to i64
  %186 = icmp slt i64 %183, %185
  br i1 %186, label %174, label %171, !llvm.loop !138

187:                                              ; preds = %171
  %188 = bitcast double** %172 to i8*
  call void @_ZdaPv(i8* %188) #21
  br label %189

189:                                              ; preds = %171, %187, %163
  %190 = getelementptr inbounds %class.FEI_HYPRE_Impl, %class.FEI_HYPRE_Impl* %0, i64 0, i32 40
  %191 = load double**, double*** %190, align 8, !tbaa !99
  %192 = icmp eq double** %191, null
  br i1 %192, label %215, label %193

193:                                              ; preds = %189
  %194 = getelementptr inbounds %class.FEI_HYPRE_Impl, %class.FEI_HYPRE_Impl* %0, i64 0, i32 37
  %195 = load i32, i32* %194, align 8, !tbaa !97
  %196 = icmp sgt i32 %195, 0
  br i1 %196, label %200, label %197

197:                                              ; preds = %208, %193
  %198 = load double**, double*** %190, align 8, !tbaa !99
  %199 = icmp eq double** %198, null
  br i1 %199, label %215, label %213

200:                                              ; preds = %193, %208
  %201 = phi i64 [ %209, %208 ], [ 0, %193 ]
  %202 = load double**, double*** %190, align 8, !tbaa !99
  %203 = getelementptr inbounds double*, double** %202, i64 %201
  %204 = load double*, double** %203, align 8, !tbaa !13
  %205 = icmp eq double* %204, null
  br i1 %205, label %208, label %206

206:                                              ; preds = %200
  %207 = bitcast double* %204 to i8*
  call void @_ZdaPv(i8* %207) #21
  br label %208

208:                                              ; preds = %200, %206
  %209 = add nuw nsw i64 %201, 1
  %210 = load i32, i32* %194, align 8, !tbaa !97
  %211 = sext i32 %210 to i64
  %212 = icmp slt i64 %209, %211
  br i1 %212, label %200, label %197, !llvm.loop !139

213:                                              ; preds = %197
  %214 = bitcast double** %198 to i8*
  call void @_ZdaPv(i8* %214) #21
  br label %215

215:                                              ; preds = %197, %213, %189
  %216 = getelementptr inbounds %class.FEI_HYPRE_Impl, %class.FEI_HYPRE_Impl* %0, i64 0, i32 41
  %217 = load double**, double*** %216, align 8, !tbaa !101
  %218 = icmp eq double** %217, null
  br i1 %218, label %241, label %219

219:                                              ; preds = %215
  %220 = getelementptr inbounds %class.FEI_HYPRE_Impl, %class.FEI_HYPRE_Impl* %0, i64 0, i32 37
  %221 = load i32, i32* %220, align 8, !tbaa !97
  %222 = icmp sgt i32 %221, 0
  br i1 %222, label %226, label %223

223:                                              ; preds = %234, %219
  %224 = load double**, double*** %216, align 8, !tbaa !101
  %225 = icmp eq double** %224, null
  br i1 %225, label %241, label %239

226:                                              ; preds = %219, %234
  %227 = phi i64 [ %235, %234 ], [ 0, %219 ]
  %228 = load double**, double*** %216, align 8, !tbaa !101
  %229 = getelementptr inbounds double*, double** %228, i64 %227
  %230 = load double*, double** %229, align 8, !tbaa !13
  %231 = icmp eq double* %230, null
  br i1 %231, label %234, label %232

232:                                              ; preds = %226
  %233 = bitcast double* %230 to i8*
  call void @_ZdaPv(i8* %233) #21
  br label %234

234:                                              ; preds = %226, %232
  %235 = add nuw nsw i64 %227, 1
  %236 = load i32, i32* %220, align 8, !tbaa !97
  %237 = sext i32 %236 to i64
  %238 = icmp slt i64 %235, %237
  br i1 %238, label %226, label %223, !llvm.loop !140

239:                                              ; preds = %223
  %240 = bitcast double** %224 to i8*
  call void @_ZdaPv(i8* %240) #21
  br label %241

241:                                              ; preds = %223, %239, %215
  %242 = getelementptr inbounds %class.FEI_HYPRE_Impl, %class.FEI_HYPRE_Impl* %0, i64 0, i32 38
  %243 = load i32*, i32** %242, align 8, !tbaa !95
  %244 = icmp eq i32* %243, null
  br i1 %244, label %247, label %245

245:                                              ; preds = %241
  %246 = bitcast i32* %243 to i8*
  call void @_ZdaPv(i8* %246) #21
  br label %247

247:                                              ; preds = %245, %241
  %248 = getelementptr inbounds %class.FEI_HYPRE_Impl, %class.FEI_HYPRE_Impl* %0, i64 0, i32 15
  store i32 0, i32* %248, align 8, !tbaa !79
  %249 = getelementptr inbounds %class.FEI_HYPRE_Impl, %class.FEI_HYPRE_Impl* %0, i64 0, i32 45
  %250 = bitcast i32** %18 to i8*
  call void @llvm.memset.p0i8.i64(i8* noundef nonnull align 8 dereferenceable(24) %250, i8 0, i64 24, i1 false)
  %251 = bitcast i32** %46 to i8*
  call void @llvm.memset.p0i8.i64(i8* noundef nonnull align 8 dereferenceable(28) %251, i8 0, i64 28, i1 false)
  %252 = bitcast i32** %84 to i8*
  call void @llvm.memset.p0i8.i64(i8* noundef nonnull align 8 dereferenceable(24) %252, i8 0, i64 24, i1 false)
  %253 = bitcast i32** %122 to i8*
  call void @llvm.memset.p0i8.i64(i8* noundef nonnull align 8 dereferenceable(60) %253, i8 0, i64 60, i1 false)
  %254 = bitcast i32** %242 to i8*
  call void @llvm.memset.p0i8.i64(i8* noundef nonnull align 8 dereferenceable(32) %254, i8 0, i64 32, i1 false)
  %255 = bitcast i32* %249 to i8*
  call void @llvm.memset.p0i8.i64(i8* noundef nonnull align 4 dereferenceable(36) %255, i8 0, i64 36, i1 false)
  %256 = load i32, i32* %3, align 8, !tbaa !68
  %257 = icmp sgt i32 %256, 1
  br i1 %257, label %258, label %262

258:                                              ; preds = %247
  %259 = getelementptr inbounds %class.FEI_HYPRE_Impl, %class.FEI_HYPRE_Impl* %0, i64 0, i32 1
  %260 = load i32, i32* %259, align 4, !tbaa !69
  %261 = call i32 (i8*, ...) @printf(i8* nonnull dereferenceable(1) getelementptr inbounds ([41 x i8], [41 x i8]* @.str.46, i64 0, i64 0), i32 %260)
  br label %262

262:                                              ; preds = %258, %247
  ret i32 0
}

; Function Attrs: mustprogress nofree nounwind uwtable
define dso_local i32 @_ZN14FEI_HYPRE_Impl14resetRHSVectorEd(%class.FEI_HYPRE_Impl* nocapture nonnull readonly align 8 dereferenceable(352) %0, double %1) local_unnamed_addr #14 align 2 {
  %3 = getelementptr inbounds %class.FEI_HYPRE_Impl, %class.FEI_HYPRE_Impl* %0, i64 0, i32 2
  %4 = load i32, i32* %3, align 8, !tbaa !68
  %5 = icmp sgt i32 %4, 1
  br i1 %5, label %6, label %10

6:                                                ; preds = %2
  %7 = getelementptr inbounds %class.FEI_HYPRE_Impl, %class.FEI_HYPRE_Impl* %0, i64 0, i32 1
  %8 = load i32, i32* %7, align 4, !tbaa !69
  %9 = call i32 (i8*, ...) @printf(i8* nonnull dereferenceable(1) getelementptr inbounds ([48 x i8], [48 x i8]* @.str.47, i64 0, i64 0), i32 %8)
  br label %10

10:                                               ; preds = %6, %2
  %11 = getelementptr inbounds %class.FEI_HYPRE_Impl, %class.FEI_HYPRE_Impl* %0, i64 0, i32 3
  %12 = load i32, i32* %11, align 4, !tbaa !70
  %13 = getelementptr inbounds %class.FEI_HYPRE_Impl, %class.FEI_HYPRE_Impl* %0, i64 0, i32 4
  %14 = load %class.FEI_HYPRE_Elem_Block**, %class.FEI_HYPRE_Elem_Block*** %13, align 8
  %15 = icmp sgt i32 %12, 0
  br i1 %15, label %16, label %18

16:                                               ; preds = %10
  %17 = zext i32 %12 to i64
  br label %21

18:                                               ; preds = %54, %10
  %19 = load i32, i32* %3, align 8, !tbaa !68
  %20 = icmp sgt i32 %19, 1
  br i1 %20, label %58, label %62

21:                                               ; preds = %16, %54
  %22 = phi i64 [ 0, %16 ], [ %56, %54 ]
  %23 = getelementptr inbounds %class.FEI_HYPRE_Elem_Block*, %class.FEI_HYPRE_Elem_Block** %14, i64 %22
  %24 = load %class.FEI_HYPRE_Elem_Block*, %class.FEI_HYPRE_Elem_Block** %23, align 8, !tbaa !13
  %25 = getelementptr inbounds %class.FEI_HYPRE_Elem_Block, %class.FEI_HYPRE_Elem_Block* %24, i64 0, i32 8
  %26 = load double**, double*** %25, align 8, !tbaa !19
  %27 = icmp eq double** %26, null
  br i1 %27, label %54, label %28

28:                                               ; preds = %21
  %29 = getelementptr inbounds %class.FEI_HYPRE_Elem_Block, %class.FEI_HYPRE_Elem_Block* %24, i64 0, i32 2
  %30 = load i32, i32* %29, align 8, !tbaa !10
  %31 = getelementptr inbounds %class.FEI_HYPRE_Elem_Block, %class.FEI_HYPRE_Elem_Block* %24, i64 0, i32 10
  %32 = load i32, i32* %31, align 8, !tbaa !31
  %33 = mul i32 %32, %30
  %34 = getelementptr inbounds %class.FEI_HYPRE_Elem_Block, %class.FEI_HYPRE_Elem_Block* %24, i64 0, i32 1
  %35 = load i32, i32* %34, align 4, !tbaa !9
  %36 = icmp sgt i32 %33, 0
  %37 = icmp sgt i32 %35, 0
  br i1 %37, label %38, label %54

38:                                               ; preds = %28
  %39 = zext i32 %35 to i64
  %40 = zext i32 %33 to i64
  br label %41

41:                                               ; preds = %51, %38
  %42 = phi i64 [ 0, %38 ], [ %52, %51 ]
  br i1 %36, label %43, label %51

43:                                               ; preds = %41
  %44 = getelementptr inbounds double*, double** %26, i64 %42
  %45 = load double*, double** %44, align 8, !tbaa !13
  br label %46

46:                                               ; preds = %46, %43
  %47 = phi i64 [ 0, %43 ], [ %49, %46 ]
  %48 = getelementptr inbounds double, double* %45, i64 %47
  store double %1, double* %48, align 8, !tbaa !40
  %49 = add nuw nsw i64 %47, 1
  %50 = icmp eq i64 %49, %40
  br i1 %50, label %51, label %46, !llvm.loop !42

51:                                               ; preds = %46, %41
  %52 = add nuw nsw i64 %42, 1
  %53 = icmp eq i64 %52, %39
  br i1 %53, label %54, label %41, !llvm.loop !43

54:                                               ; preds = %51, %21, %28
  %55 = getelementptr inbounds %class.FEI_HYPRE_Elem_Block, %class.FEI_HYPRE_Elem_Block* %24, i64 0, i32 11
  store i32 0, i32* %55, align 4, !tbaa !32
  %56 = add nuw nsw i64 %22, 1
  %57 = icmp eq i64 %56, %17
  br i1 %57, label %18, label %21, !llvm.loop !141

58:                                               ; preds = %18
  %59 = getelementptr inbounds %class.FEI_HYPRE_Impl, %class.FEI_HYPRE_Impl* %0, i64 0, i32 1
  %60 = load i32, i32* %59, align 4, !tbaa !69
  %61 = call i32 (i8*, ...) @printf(i8* nonnull dereferenceable(1) getelementptr inbounds ([44 x i8], [44 x i8]* @.str.48, i64 0, i64 0), i32 %60)
  br label %62

62:                                               ; preds = %58, %18
  ret i32 0
}

; Function Attrs: mustprogress nofree nounwind uwtable
define dso_local i32 @_ZN14FEI_HYPRE_Impl17resetInitialGuessEd(%class.FEI_HYPRE_Impl* nocapture nonnull readonly align 8 dereferenceable(352) %0, double %1) local_unnamed_addr #14 align 2 {
  %3 = getelementptr inbounds %class.FEI_HYPRE_Impl, %class.FEI_HYPRE_Impl* %0, i64 0, i32 2
  %4 = load i32, i32* %3, align 8, !tbaa !68
  %5 = icmp sgt i32 %4, 1
  br i1 %5, label %6, label %10

6:                                                ; preds = %2
  %7 = getelementptr inbounds %class.FEI_HYPRE_Impl, %class.FEI_HYPRE_Impl* %0, i64 0, i32 1
  %8 = load i32, i32* %7, align 4, !tbaa !69
  %9 = call i32 (i8*, ...) @printf(i8* nonnull dereferenceable(1) getelementptr inbounds ([51 x i8], [51 x i8]* @.str.49, i64 0, i64 0), i32 %8)
  br label %10

10:                                               ; preds = %6, %2
  %11 = getelementptr inbounds %class.FEI_HYPRE_Impl, %class.FEI_HYPRE_Impl* %0, i64 0, i32 3
  %12 = load i32, i32* %11, align 4, !tbaa !70
  %13 = getelementptr inbounds %class.FEI_HYPRE_Impl, %class.FEI_HYPRE_Impl* %0, i64 0, i32 4
  %14 = load %class.FEI_HYPRE_Elem_Block**, %class.FEI_HYPRE_Elem_Block*** %13, align 8
  %15 = icmp sgt i32 %12, 0
  br i1 %15, label %16, label %18

16:                                               ; preds = %10
  %17 = zext i32 %12 to i64
  br label %21

18:                                               ; preds = %54, %10
  %19 = load i32, i32* %3, align 8, !tbaa !68
  %20 = icmp sgt i32 %19, 1
  br i1 %20, label %58, label %62

21:                                               ; preds = %16, %54
  %22 = phi i64 [ 0, %16 ], [ %56, %54 ]
  %23 = getelementptr inbounds %class.FEI_HYPRE_Elem_Block*, %class.FEI_HYPRE_Elem_Block** %14, i64 %22
  %24 = load %class.FEI_HYPRE_Elem_Block*, %class.FEI_HYPRE_Elem_Block** %23, align 8, !tbaa !13
  %25 = getelementptr inbounds %class.FEI_HYPRE_Elem_Block, %class.FEI_HYPRE_Elem_Block* %24, i64 0, i32 9
  %26 = load double**, double*** %25, align 8, !tbaa !21
  %27 = icmp eq double** %26, null
  br i1 %27, label %54, label %28

28:                                               ; preds = %21
  %29 = getelementptr inbounds %class.FEI_HYPRE_Elem_Block, %class.FEI_HYPRE_Elem_Block* %24, i64 0, i32 2
  %30 = load i32, i32* %29, align 8, !tbaa !10
  %31 = getelementptr inbounds %class.FEI_HYPRE_Elem_Block, %class.FEI_HYPRE_Elem_Block* %24, i64 0, i32 10
  %32 = load i32, i32* %31, align 8, !tbaa !31
  %33 = mul i32 %32, %30
  %34 = getelementptr inbounds %class.FEI_HYPRE_Elem_Block, %class.FEI_HYPRE_Elem_Block* %24, i64 0, i32 1
  %35 = load i32, i32* %34, align 4, !tbaa !9
  %36 = icmp sgt i32 %33, 0
  %37 = icmp sgt i32 %35, 0
  br i1 %37, label %38, label %54

38:                                               ; preds = %28
  %39 = zext i32 %35 to i64
  %40 = zext i32 %33 to i64
  br label %41

41:                                               ; preds = %51, %38
  %42 = phi i64 [ 0, %38 ], [ %52, %51 ]
  br i1 %36, label %43, label %51

43:                                               ; preds = %41
  %44 = getelementptr inbounds double*, double** %26, i64 %42
  %45 = load double*, double** %44, align 8, !tbaa !13
  br label %46

46:                                               ; preds = %46, %43
  %47 = phi i64 [ 0, %43 ], [ %49, %46 ]
  %48 = getelementptr inbounds double, double* %45, i64 %47
  store double %1, double* %48, align 8, !tbaa !40
  %49 = add nuw nsw i64 %47, 1
  %50 = icmp eq i64 %49, %40
  br i1 %50, label %51, label %46, !llvm.loop !44

51:                                               ; preds = %46, %41
  %52 = add nuw nsw i64 %42, 1
  %53 = icmp eq i64 %52, %39
  br i1 %53, label %54, label %41, !llvm.loop !45

54:                                               ; preds = %51, %21, %28
  %55 = getelementptr inbounds %class.FEI_HYPRE_Elem_Block, %class.FEI_HYPRE_Elem_Block* %24, i64 0, i32 11
  store i32 0, i32* %55, align 4, !tbaa !32
  %56 = add nuw nsw i64 %22, 1
  %57 = icmp eq i64 %56, %17
  br i1 %57, label %18, label %21, !llvm.loop !142

58:                                               ; preds = %18
  %59 = getelementptr inbounds %class.FEI_HYPRE_Impl, %class.FEI_HYPRE_Impl* %0, i64 0, i32 1
  %60 = load i32, i32* %59, align 4, !tbaa !69
  %61 = call i32 (i8*, ...) @printf(i8* nonnull dereferenceable(1) getelementptr inbounds ([52 x i8], [52 x i8]* @.str.50, i64 0, i64 0), i32 %60, double %1)
  br label %62

62:                                               ; preds = %58, %18
  ret i32 0
}

; Function Attrs: mustprogress uwtable
define dso_local i32 @_ZN14FEI_HYPRE_Impl11loadNodeBCsEiPiiPPdS2_S2_(%class.FEI_HYPRE_Impl* nocapture nonnull align 8 dereferenceable(352) %0, i32 %1, i32* nocapture readonly %2, i32 %3, double** nocapture readonly %4, double** nocapture readonly %5, double** nocapture readonly %6) local_unnamed_addr #4 align 2 {
  %8 = getelementptr inbounds %class.FEI_HYPRE_Impl, %class.FEI_HYPRE_Impl* %0, i64 0, i32 2
  %9 = load i32, i32* %8, align 8, !tbaa !68
  %10 = icmp sgt i32 %9, 1
  br i1 %10, label %11, label %15

11:                                               ; preds = %7
  %12 = getelementptr inbounds %class.FEI_HYPRE_Impl, %class.FEI_HYPRE_Impl* %0, i64 0, i32 1
  %13 = load i32, i32* %12, align 4, !tbaa !69
  %14 = call i32 (i8*, ...) @printf(i8* nonnull dereferenceable(1) getelementptr inbounds ([49 x i8], [49 x i8]* @.str.51, i64 0, i64 0), i32 %13, i32 %1)
  br label %15

15:                                               ; preds = %11, %7
  %16 = call double @MPI_Wtime()
  %17 = getelementptr inbounds %class.FEI_HYPRE_Impl, %class.FEI_HYPRE_Impl* %0, i64 0, i32 47
  store double %16, double* %17, align 8, !tbaa !112
  %18 = icmp sgt i32 %1, 0
  br i1 %18, label %19, label %238

19:                                               ; preds = %15
  %20 = getelementptr inbounds %class.FEI_HYPRE_Impl, %class.FEI_HYPRE_Impl* %0, i64 0, i32 37
  %21 = load i32, i32* %20, align 8, !tbaa !97
  %22 = icmp eq i32 %21, 0
  br i1 %22, label %23, label %107

23:                                               ; preds = %19
  store i32 %1, i32* %20, align 8, !tbaa !97
  %24 = sext i32 %1 to i64
  %25 = call { i64, i1 } @llvm.umul.with.overflow.i64(i64 %24, i64 4)
  %26 = extractvalue { i64, i1 } %25, 1
  %27 = extractvalue { i64, i1 } %25, 0
  %28 = select i1 %26, i64 -1, i64 %27
  %29 = call noalias nonnull i8* @_Znam(i64 %28) #22
  %30 = getelementptr inbounds %class.FEI_HYPRE_Impl, %class.FEI_HYPRE_Impl* %0, i64 0, i32 38
  %31 = bitcast i32** %30 to i8**
  store i8* %29, i8** %31, align 8, !tbaa !95
  %32 = call { i64, i1 } @llvm.umul.with.overflow.i64(i64 %24, i64 8)
  %33 = extractvalue { i64, i1 } %32, 1
  %34 = extractvalue { i64, i1 } %32, 0
  %35 = select i1 %33, i64 -1, i64 %34
  %36 = call noalias nonnull i8* @_Znam(i64 %35) #22
  %37 = getelementptr inbounds %class.FEI_HYPRE_Impl, %class.FEI_HYPRE_Impl* %0, i64 0, i32 39
  %38 = bitcast double*** %37 to i8**
  store i8* %36, i8** %38, align 8, !tbaa !96
  %39 = call noalias nonnull i8* @_Znam(i64 %35) #22
  %40 = getelementptr inbounds %class.FEI_HYPRE_Impl, %class.FEI_HYPRE_Impl* %0, i64 0, i32 40
  %41 = bitcast double*** %40 to i8**
  store i8* %39, i8** %41, align 8, !tbaa !99
  %42 = call noalias nonnull i8* @_Znam(i64 %35) #22
  %43 = getelementptr inbounds %class.FEI_HYPRE_Impl, %class.FEI_HYPRE_Impl* %0, i64 0, i32 41
  %44 = bitcast double*** %43 to i8**
  store i8* %42, i8** %44, align 8, !tbaa !101
  %45 = getelementptr inbounds %class.FEI_HYPRE_Impl, %class.FEI_HYPRE_Impl* %0, i64 0, i32 7
  %46 = icmp sgt i32 %1, 0
  br i1 %46, label %47, label %238

47:                                               ; preds = %23
  %48 = zext i32 %1 to i64
  br label %49

49:                                               ; preds = %47, %104
  %50 = phi i64 [ 0, %47 ], [ %105, %104 ]
  %51 = getelementptr inbounds i32, i32* %2, i64 %50
  %52 = load i32, i32* %51, align 4, !tbaa !46
  %53 = load i32*, i32** %30, align 8, !tbaa !95
  %54 = getelementptr inbounds i32, i32* %53, i64 %50
  store i32 %52, i32* %54, align 4, !tbaa !46
  %55 = load i32, i32* %45, align 8, !tbaa !61
  %56 = sext i32 %55 to i64
  %57 = call { i64, i1 } @llvm.umul.with.overflow.i64(i64 %56, i64 8)
  %58 = extractvalue { i64, i1 } %57, 1
  %59 = extractvalue { i64, i1 } %57, 0
  %60 = select i1 %58, i64 -1, i64 %59
  %61 = call noalias nonnull i8* @_Znam(i64 %60) #22
  %62 = load double**, double*** %37, align 8, !tbaa !96
  %63 = getelementptr inbounds double*, double** %62, i64 %50
  %64 = bitcast double** %63 to i8**
  store i8* %61, i8** %64, align 8, !tbaa !13
  %65 = call noalias nonnull i8* @_Znam(i64 %60) #22
  %66 = load double**, double*** %40, align 8, !tbaa !99
  %67 = getelementptr inbounds double*, double** %66, i64 %50
  %68 = bitcast double** %67 to i8**
  store i8* %65, i8** %68, align 8, !tbaa !13
  %69 = call noalias nonnull i8* @_Znam(i64 %60) #22
  %70 = load double**, double*** %43, align 8, !tbaa !101
  %71 = getelementptr inbounds double*, double** %70, i64 %50
  %72 = bitcast double** %71 to i8**
  store i8* %69, i8** %72, align 8, !tbaa !13
  %73 = icmp sgt i32 %55, 0
  br i1 %73, label %74, label %104

74:                                               ; preds = %49
  %75 = load double**, double*** %43, align 8
  %76 = getelementptr inbounds double*, double** %75, i64 %50
  %77 = getelementptr inbounds double*, double** %6, i64 %50
  %78 = load double**, double*** %40, align 8
  %79 = getelementptr inbounds double*, double** %78, i64 %50
  %80 = getelementptr inbounds double*, double** %5, i64 %50
  %81 = load double**, double*** %37, align 8
  %82 = getelementptr inbounds double*, double** %81, i64 %50
  %83 = getelementptr inbounds double*, double** %4, i64 %50
  %84 = load double*, double** %83, align 8, !tbaa !13
  %85 = load double*, double** %82, align 8, !tbaa !13
  %86 = load double*, double** %80, align 8, !tbaa !13
  %87 = load double*, double** %79, align 8, !tbaa !13
  %88 = load double*, double** %77, align 8, !tbaa !13
  %89 = load double*, double** %76, align 8, !tbaa !13
  %90 = zext i32 %55 to i64
  br label %91

91:                                               ; preds = %74, %91
  %92 = phi i64 [ 0, %74 ], [ %102, %91 ]
  %93 = getelementptr inbounds double, double* %84, i64 %92
  %94 = load double, double* %93, align 8, !tbaa !40
  %95 = getelementptr inbounds double, double* %85, i64 %92
  store double %94, double* %95, align 8, !tbaa !40
  %96 = getelementptr inbounds double, double* %86, i64 %92
  %97 = load double, double* %96, align 8, !tbaa !40
  %98 = getelementptr inbounds double, double* %87, i64 %92
  store double %97, double* %98, align 8, !tbaa !40
  %99 = getelementptr inbounds double, double* %88, i64 %92
  %100 = load double, double* %99, align 8, !tbaa !40
  %101 = getelementptr inbounds double, double* %89, i64 %92
  store double %100, double* %101, align 8, !tbaa !40
  %102 = add nuw nsw i64 %92, 1
  %103 = icmp eq i64 %102, %90
  br i1 %103, label %104, label %91, !llvm.loop !143

104:                                              ; preds = %91, %49
  %105 = add nuw nsw i64 %50, 1
  %106 = icmp eq i64 %105, %48
  br i1 %106, label %238, label %49, !llvm.loop !144

107:                                              ; preds = %19
  %108 = getelementptr inbounds %class.FEI_HYPRE_Impl, %class.FEI_HYPRE_Impl* %0, i64 0, i32 38
  %109 = load i32*, i32** %108, align 8, !tbaa !95
  %110 = getelementptr inbounds %class.FEI_HYPRE_Impl, %class.FEI_HYPRE_Impl* %0, i64 0, i32 39
  %111 = load double**, double*** %110, align 8, !tbaa !96
  %112 = getelementptr inbounds %class.FEI_HYPRE_Impl, %class.FEI_HYPRE_Impl* %0, i64 0, i32 40
  %113 = load double**, double*** %112, align 8, !tbaa !99
  %114 = getelementptr inbounds %class.FEI_HYPRE_Impl, %class.FEI_HYPRE_Impl* %0, i64 0, i32 41
  %115 = load double**, double*** %114, align 8, !tbaa !101
  %116 = add nsw i32 %21, %1
  store i32 %116, i32* %20, align 8, !tbaa !97
  %117 = sext i32 %116 to i64
  %118 = call { i64, i1 } @llvm.umul.with.overflow.i64(i64 %117, i64 4)
  %119 = extractvalue { i64, i1 } %118, 1
  %120 = extractvalue { i64, i1 } %118, 0
  %121 = select i1 %119, i64 -1, i64 %120
  %122 = call noalias nonnull i8* @_Znam(i64 %121) #22
  %123 = bitcast i32** %108 to i8**
  store i8* %122, i8** %123, align 8, !tbaa !95
  %124 = call { i64, i1 } @llvm.umul.with.overflow.i64(i64 %117, i64 8)
  %125 = extractvalue { i64, i1 } %124, 1
  %126 = extractvalue { i64, i1 } %124, 0
  %127 = select i1 %125, i64 -1, i64 %126
  %128 = call noalias nonnull i8* @_Znam(i64 %127) #22
  %129 = bitcast double*** %110 to i8**
  store i8* %128, i8** %129, align 8, !tbaa !96
  %130 = call noalias nonnull i8* @_Znam(i64 %127) #22
  %131 = bitcast double*** %112 to i8**
  store i8* %130, i8** %131, align 8, !tbaa !99
  %132 = call noalias nonnull i8* @_Znam(i64 %127) #22
  %133 = bitcast double*** %114 to i8**
  store i8* %132, i8** %133, align 8, !tbaa !101
  %134 = icmp sgt i32 %21, 0
  br i1 %134, label %135, label %157

135:                                              ; preds = %107
  %136 = zext i32 %21 to i64
  br label %137

137:                                              ; preds = %135, %137
  %138 = phi i64 [ 0, %135 ], [ %155, %137 ]
  %139 = getelementptr inbounds i32, i32* %109, i64 %138
  %140 = load i32, i32* %139, align 4, !tbaa !46
  %141 = load i32*, i32** %108, align 8, !tbaa !95
  %142 = getelementptr inbounds i32, i32* %141, i64 %138
  store i32 %140, i32* %142, align 4, !tbaa !46
  %143 = getelementptr inbounds double*, double** %111, i64 %138
  %144 = load double*, double** %143, align 8, !tbaa !13
  %145 = load double**, double*** %110, align 8, !tbaa !96
  %146 = getelementptr inbounds double*, double** %145, i64 %138
  store double* %144, double** %146, align 8, !tbaa !13
  %147 = getelementptr inbounds double*, double** %113, i64 %138
  %148 = load double*, double** %147, align 8, !tbaa !13
  %149 = load double**, double*** %112, align 8, !tbaa !99
  %150 = getelementptr inbounds double*, double** %149, i64 %138
  store double* %148, double** %150, align 8, !tbaa !13
  %151 = getelementptr inbounds double*, double** %115, i64 %138
  %152 = load double*, double** %151, align 8, !tbaa !13
  %153 = load double**, double*** %114, align 8, !tbaa !101
  %154 = getelementptr inbounds double*, double** %153, i64 %138
  store double* %152, double** %154, align 8, !tbaa !13
  %155 = add nuw nsw i64 %138, 1
  %156 = icmp eq i64 %155, %136
  br i1 %156, label %157, label %137, !llvm.loop !145

157:                                              ; preds = %137, %107
  %158 = icmp eq i32* %109, null
  br i1 %158, label %161, label %159

159:                                              ; preds = %157
  %160 = bitcast i32* %109 to i8*
  call void @_ZdaPv(i8* %160) #21
  br label %161

161:                                              ; preds = %159, %157
  %162 = icmp eq double** %111, null
  br i1 %162, label %165, label %163

163:                                              ; preds = %161
  %164 = bitcast double** %111 to i8*
  call void @_ZdaPv(i8* %164) #21
  br label %165

165:                                              ; preds = %163, %161
  %166 = icmp eq double** %113, null
  br i1 %166, label %169, label %167

167:                                              ; preds = %165
  %168 = bitcast double** %113 to i8*
  call void @_ZdaPv(i8* %168) #21
  br label %169

169:                                              ; preds = %167, %165
  %170 = icmp eq double** %115, null
  br i1 %170, label %173, label %171

171:                                              ; preds = %169
  %172 = bitcast double** %115 to i8*
  call void @_ZdaPv(i8* %172) #21
  br label %173

173:                                              ; preds = %171, %169
  %174 = getelementptr inbounds %class.FEI_HYPRE_Impl, %class.FEI_HYPRE_Impl* %0, i64 0, i32 7
  %175 = icmp sgt i32 %1, 0
  br i1 %175, label %176, label %238

176:                                              ; preds = %173
  %177 = sext i32 %21 to i64
  %178 = zext i32 %1 to i64
  br label %179

179:                                              ; preds = %176, %235
  %180 = phi i64 [ 0, %176 ], [ %236, %235 ]
  %181 = getelementptr inbounds i32, i32* %2, i64 %180
  %182 = load i32, i32* %181, align 4, !tbaa !46
  %183 = load i32*, i32** %108, align 8, !tbaa !95
  %184 = add nsw i64 %180, %177
  %185 = getelementptr inbounds i32, i32* %183, i64 %184
  store i32 %182, i32* %185, align 4, !tbaa !46
  %186 = load i32, i32* %174, align 8, !tbaa !61
  %187 = sext i32 %186 to i64
  %188 = call { i64, i1 } @llvm.umul.with.overflow.i64(i64 %187, i64 8)
  %189 = extractvalue { i64, i1 } %188, 1
  %190 = extractvalue { i64, i1 } %188, 0
  %191 = select i1 %189, i64 -1, i64 %190
  %192 = call noalias nonnull i8* @_Znam(i64 %191) #22
  %193 = load double**, double*** %110, align 8, !tbaa !96
  %194 = getelementptr inbounds double*, double** %193, i64 %184
  %195 = bitcast double** %194 to i8**
  store i8* %192, i8** %195, align 8, !tbaa !13
  %196 = call noalias nonnull i8* @_Znam(i64 %191) #22
  %197 = load double**, double*** %112, align 8, !tbaa !99
  %198 = getelementptr inbounds double*, double** %197, i64 %184
  %199 = bitcast double** %198 to i8**
  store i8* %196, i8** %199, align 8, !tbaa !13
  %200 = call noalias nonnull i8* @_Znam(i64 %191) #22
  %201 = load double**, double*** %114, align 8, !tbaa !101
  %202 = getelementptr inbounds double*, double** %201, i64 %184
  %203 = bitcast double** %202 to i8**
  store i8* %200, i8** %203, align 8, !tbaa !13
  %204 = icmp sgt i32 %186, 0
  br i1 %204, label %205, label %235

205:                                              ; preds = %179
  %206 = load double**, double*** %114, align 8
  %207 = getelementptr inbounds double*, double** %206, i64 %184
  %208 = getelementptr inbounds double*, double** %6, i64 %180
  %209 = load double**, double*** %112, align 8
  %210 = getelementptr inbounds double*, double** %209, i64 %184
  %211 = getelementptr inbounds double*, double** %5, i64 %180
  %212 = load double**, double*** %110, align 8
  %213 = getelementptr inbounds double*, double** %212, i64 %184
  %214 = getelementptr inbounds double*, double** %4, i64 %180
  %215 = load double*, double** %214, align 8, !tbaa !13
  %216 = load double*, double** %213, align 8, !tbaa !13
  %217 = load double*, double** %211, align 8, !tbaa !13
  %218 = load double*, double** %210, align 8, !tbaa !13
  %219 = load double*, double** %208, align 8, !tbaa !13
  %220 = load double*, double** %207, align 8, !tbaa !13
  %221 = zext i32 %186 to i64
  br label %222

222:                                              ; preds = %205, %222
  %223 = phi i64 [ 0, %205 ], [ %233, %222 ]
  %224 = getelementptr inbounds double, double* %215, i64 %223
  %225 = load double, double* %224, align 8, !tbaa !40
  %226 = getelementptr inbounds double, double* %216, i64 %223
  store double %225, double* %226, align 8, !tbaa !40
  %227 = getelementptr inbounds double, double* %217, i64 %223
  %228 = load double, double* %227, align 8, !tbaa !40
  %229 = getelementptr inbounds double, double* %218, i64 %223
  store double %228, double* %229, align 8, !tbaa !40
  %230 = getelementptr inbounds double, double* %219, i64 %223
  %231 = load double, double* %230, align 8, !tbaa !40
  %232 = getelementptr inbounds double, double* %220, i64 %223
  store double %231, double* %232, align 8, !tbaa !40
  %233 = add nuw nsw i64 %223, 1
  %234 = icmp eq i64 %233, %221
  br i1 %234, label %235, label %222, !llvm.loop !146

235:                                              ; preds = %222, %179
  %236 = add nuw nsw i64 %180, 1
  %237 = icmp eq i64 %236, %178
  br i1 %237, label %238, label %179, !llvm.loop !147

238:                                              ; preds = %235, %104, %173, %23, %15
  %239 = call double @MPI_Wtime()
  %240 = load double, double* %17, align 8, !tbaa !112
  %241 = fsub double %239, %240
  %242 = getelementptr inbounds %class.FEI_HYPRE_Impl, %class.FEI_HYPRE_Impl* %0, i64 0, i32 46
  %243 = load double, double* %242, align 8, !tbaa !126
  %244 = fadd double %243, %241
  store double %244, double* %242, align 8, !tbaa !126
  %245 = load i32, i32* %8, align 8, !tbaa !68
  %246 = icmp sgt i32 %245, 1
  br i1 %246, label %247, label %251

247:                                              ; preds = %238
  %248 = getelementptr inbounds %class.FEI_HYPRE_Impl, %class.FEI_HYPRE_Impl* %0, i64 0, i32 1
  %249 = load i32, i32* %248, align 4, !tbaa !69
  %250 = call i32 (i8*, ...) @printf(i8* nonnull dereferenceable(1) getelementptr inbounds ([41 x i8], [41 x i8]* @.str.52, i64 0, i64 0), i32 %249)
  br label %251

251:                                              ; preds = %247, %238
  ret i32 0
}

; Function Attrs: mustprogress uwtable
define dso_local i32 @_ZN14FEI_HYPRE_Impl9sumInElemEiiPiPPdS1_i(%class.FEI_HYPRE_Impl* nocapture nonnull align 8 dereferenceable(352) %0, i32 %1, i32 %2, i32* nocapture readonly %3, double** nocapture readonly %4, double* nocapture readonly %5, i32 %6) local_unnamed_addr #4 align 2 {
  %8 = getelementptr inbounds %class.FEI_HYPRE_Impl, %class.FEI_HYPRE_Impl* %0, i64 0, i32 3
  %9 = load i32, i32* %8, align 4, !tbaa !70
  %10 = icmp sgt i32 %9, 1
  br i1 %10, label %11, label %27

11:                                               ; preds = %7
  %12 = getelementptr inbounds %class.FEI_HYPRE_Impl, %class.FEI_HYPRE_Impl* %0, i64 0, i32 4
  %13 = load %class.FEI_HYPRE_Elem_Block**, %class.FEI_HYPRE_Elem_Block*** %12, align 8
  %14 = zext i32 %9 to i64
  br label %15

15:                                               ; preds = %11, %22
  %16 = phi i64 [ 0, %11 ], [ %23, %22 ]
  %17 = getelementptr inbounds %class.FEI_HYPRE_Elem_Block*, %class.FEI_HYPRE_Elem_Block** %13, i64 %16
  %18 = load %class.FEI_HYPRE_Elem_Block*, %class.FEI_HYPRE_Elem_Block** %17, align 8, !tbaa !13
  %19 = getelementptr inbounds %class.FEI_HYPRE_Elem_Block, %class.FEI_HYPRE_Elem_Block* %18, i64 0, i32 0
  %20 = load i32, i32* %19, align 8, !tbaa !3
  %21 = icmp eq i32 %20, %1
  br i1 %21, label %25, label %22

22:                                               ; preds = %15
  %23 = add nuw nsw i64 %16, 1
  %24 = icmp eq i64 %23, %14
  br i1 %24, label %27, label %15, !llvm.loop !148

25:                                               ; preds = %15
  %26 = trunc i64 %16 to i32
  br label %27

27:                                               ; preds = %25, %22, %7
  %28 = phi i32 [ 0, %7 ], [ %26, %25 ], [ %9, %22 ]
  %29 = getelementptr inbounds %class.FEI_HYPRE_Impl, %class.FEI_HYPRE_Impl* %0, i64 0, i32 4
  %30 = load %class.FEI_HYPRE_Elem_Block**, %class.FEI_HYPRE_Elem_Block*** %29, align 8, !tbaa !72
  %31 = zext i32 %28 to i64
  %32 = getelementptr inbounds %class.FEI_HYPRE_Elem_Block*, %class.FEI_HYPRE_Elem_Block** %30, i64 %31
  %33 = load %class.FEI_HYPRE_Elem_Block*, %class.FEI_HYPRE_Elem_Block** %32, align 8, !tbaa !13
  %34 = getelementptr inbounds %class.FEI_HYPRE_Elem_Block, %class.FEI_HYPRE_Elem_Block* %33, i64 0, i32 11
  %35 = load i32, i32* %34, align 4, !tbaa !32
  %36 = icmp eq i32 %35, 0
  br i1 %36, label %37, label %40

37:                                               ; preds = %27
  %38 = call double @MPI_Wtime()
  %39 = getelementptr inbounds %class.FEI_HYPRE_Impl, %class.FEI_HYPRE_Impl* %0, i64 0, i32 47
  store double %38, double* %39, align 8, !tbaa !112
  br label %40

40:                                               ; preds = %37, %27
  %41 = load %class.FEI_HYPRE_Elem_Block**, %class.FEI_HYPRE_Elem_Block*** %29, align 8, !tbaa !72
  %42 = getelementptr inbounds %class.FEI_HYPRE_Elem_Block*, %class.FEI_HYPRE_Elem_Block** %41, i64 %31
  %43 = load %class.FEI_HYPRE_Elem_Block*, %class.FEI_HYPRE_Elem_Block** %42, align 8, !tbaa !13
  %44 = call i32 @_ZN20FEI_HYPRE_Elem_Block12loadElemInfoEiPiPPdS1_(%class.FEI_HYPRE_Elem_Block* nonnull align 8 dereferenceable(96) %43, i32 %2, i32* %3, double** %4, double* %5)
  %45 = load %class.FEI_HYPRE_Elem_Block**, %class.FEI_HYPRE_Elem_Block*** %29, align 8, !tbaa !72
  %46 = getelementptr inbounds %class.FEI_HYPRE_Elem_Block*, %class.FEI_HYPRE_Elem_Block** %45, i64 %31
  %47 = load %class.FEI_HYPRE_Elem_Block*, %class.FEI_HYPRE_Elem_Block** %46, align 8, !tbaa !13
  %48 = getelementptr inbounds %class.FEI_HYPRE_Elem_Block, %class.FEI_HYPRE_Elem_Block* %47, i64 0, i32 11
  %49 = load i32, i32* %48, align 4, !tbaa !32
  %50 = getelementptr inbounds %class.FEI_HYPRE_Elem_Block, %class.FEI_HYPRE_Elem_Block* %47, i64 0, i32 1
  %51 = load i32, i32* %50, align 4, !tbaa !9
  %52 = icmp eq i32 %49, %51
  br i1 %52, label %53, label %61

53:                                               ; preds = %40
  %54 = call double @MPI_Wtime()
  %55 = getelementptr inbounds %class.FEI_HYPRE_Impl, %class.FEI_HYPRE_Impl* %0, i64 0, i32 47
  %56 = load double, double* %55, align 8, !tbaa !112
  %57 = fsub double %54, %56
  %58 = getelementptr inbounds %class.FEI_HYPRE_Impl, %class.FEI_HYPRE_Impl* %0, i64 0, i32 46
  %59 = load double, double* %58, align 8, !tbaa !126
  %60 = fadd double %59, %57
  store double %60, double* %58, align 8, !tbaa !126
  br label %61

61:                                               ; preds = %53, %40
  ret i32 0
}

; Function Attrs: mustprogress uwtable
define dso_local i32 @_ZN14FEI_HYPRE_Impl15sumInElemMatrixEiiPiPPdi(%class.FEI_HYPRE_Impl* nocapture nonnull align 8 dereferenceable(352) %0, i32 %1, i32 %2, i32* nocapture readonly %3, double** nocapture readonly %4, i32 %5) local_unnamed_addr #4 align 2 {
  %7 = getelementptr inbounds %class.FEI_HYPRE_Impl, %class.FEI_HYPRE_Impl* %0, i64 0, i32 3
  %8 = load i32, i32* %7, align 4, !tbaa !70
  %9 = icmp sgt i32 %8, 1
  br i1 %9, label %10, label %26

10:                                               ; preds = %6
  %11 = getelementptr inbounds %class.FEI_HYPRE_Impl, %class.FEI_HYPRE_Impl* %0, i64 0, i32 4
  %12 = load %class.FEI_HYPRE_Elem_Block**, %class.FEI_HYPRE_Elem_Block*** %11, align 8
  %13 = zext i32 %8 to i64
  br label %14

14:                                               ; preds = %10, %21
  %15 = phi i64 [ 0, %10 ], [ %22, %21 ]
  %16 = getelementptr inbounds %class.FEI_HYPRE_Elem_Block*, %class.FEI_HYPRE_Elem_Block** %12, i64 %15
  %17 = load %class.FEI_HYPRE_Elem_Block*, %class.FEI_HYPRE_Elem_Block** %16, align 8, !tbaa !13
  %18 = getelementptr inbounds %class.FEI_HYPRE_Elem_Block, %class.FEI_HYPRE_Elem_Block* %17, i64 0, i32 0
  %19 = load i32, i32* %18, align 8, !tbaa !3
  %20 = icmp eq i32 %19, %1
  br i1 %20, label %24, label %21

21:                                               ; preds = %14
  %22 = add nuw nsw i64 %15, 1
  %23 = icmp eq i64 %22, %13
  br i1 %23, label %26, label %14, !llvm.loop !149

24:                                               ; preds = %14
  %25 = trunc i64 %15 to i32
  br label %26

26:                                               ; preds = %24, %21, %6
  %27 = phi i32 [ 0, %6 ], [ %25, %24 ], [ %8, %21 ]
  %28 = getelementptr inbounds %class.FEI_HYPRE_Impl, %class.FEI_HYPRE_Impl* %0, i64 0, i32 4
  %29 = load %class.FEI_HYPRE_Elem_Block**, %class.FEI_HYPRE_Elem_Block*** %28, align 8, !tbaa !72
  %30 = zext i32 %27 to i64
  %31 = getelementptr inbounds %class.FEI_HYPRE_Elem_Block*, %class.FEI_HYPRE_Elem_Block** %29, i64 %30
  %32 = load %class.FEI_HYPRE_Elem_Block*, %class.FEI_HYPRE_Elem_Block** %31, align 8, !tbaa !13
  %33 = getelementptr inbounds %class.FEI_HYPRE_Elem_Block, %class.FEI_HYPRE_Elem_Block* %32, i64 0, i32 11
  %34 = load i32, i32* %33, align 4, !tbaa !32
  %35 = icmp eq i32 %34, 0
  br i1 %35, label %36, label %39

36:                                               ; preds = %26
  %37 = call double @MPI_Wtime()
  %38 = getelementptr inbounds %class.FEI_HYPRE_Impl, %class.FEI_HYPRE_Impl* %0, i64 0, i32 47
  store double %37, double* %38, align 8, !tbaa !112
  br label %39

39:                                               ; preds = %36, %26
  %40 = load %class.FEI_HYPRE_Elem_Block**, %class.FEI_HYPRE_Elem_Block*** %28, align 8, !tbaa !72
  %41 = getelementptr inbounds %class.FEI_HYPRE_Elem_Block*, %class.FEI_HYPRE_Elem_Block** %40, i64 %30
  %42 = load %class.FEI_HYPRE_Elem_Block*, %class.FEI_HYPRE_Elem_Block** %41, align 8, !tbaa !13
  %43 = call i32 @_ZN20FEI_HYPRE_Elem_Block14loadElemMatrixEiPiPPd(%class.FEI_HYPRE_Elem_Block* nonnull align 8 dereferenceable(96) %42, i32 %2, i32* %3, double** %4)
  %44 = load %class.FEI_HYPRE_Elem_Block**, %class.FEI_HYPRE_Elem_Block*** %28, align 8, !tbaa !72
  %45 = getelementptr inbounds %class.FEI_HYPRE_Elem_Block*, %class.FEI_HYPRE_Elem_Block** %44, i64 %30
  %46 = load %class.FEI_HYPRE_Elem_Block*, %class.FEI_HYPRE_Elem_Block** %45, align 8, !tbaa !13
  %47 = getelementptr inbounds %class.FEI_HYPRE_Elem_Block, %class.FEI_HYPRE_Elem_Block* %46, i64 0, i32 11
  %48 = load i32, i32* %47, align 4, !tbaa !32
  %49 = getelementptr inbounds %class.FEI_HYPRE_Elem_Block, %class.FEI_HYPRE_Elem_Block* %46, i64 0, i32 1
  %50 = load i32, i32* %49, align 4, !tbaa !9
  %51 = icmp eq i32 %48, %50
  br i1 %51, label %52, label %60

52:                                               ; preds = %39
  %53 = call double @MPI_Wtime()
  %54 = getelementptr inbounds %class.FEI_HYPRE_Impl, %class.FEI_HYPRE_Impl* %0, i64 0, i32 47
  %55 = load double, double* %54, align 8, !tbaa !112
  %56 = fsub double %53, %55
  %57 = getelementptr inbounds %class.FEI_HYPRE_Impl, %class.FEI_HYPRE_Impl* %0, i64 0, i32 46
  %58 = load double, double* %57, align 8, !tbaa !126
  %59 = fadd double %58, %56
  store double %59, double* %57, align 8, !tbaa !126
  br label %60

60:                                               ; preds = %52, %39
  ret i32 0
}

; Function Attrs: mustprogress uwtable
define dso_local i32 @_ZN14FEI_HYPRE_Impl12sumInElemRHSEiiPiPd(%class.FEI_HYPRE_Impl* nocapture nonnull readonly align 8 dereferenceable(352) %0, i32 %1, i32 %2, i32* nocapture readnone %3, double* nocapture readonly %4) local_unnamed_addr #4 align 2 {
  %6 = getelementptr inbounds %class.FEI_HYPRE_Impl, %class.FEI_HYPRE_Impl* %0, i64 0, i32 3
  %7 = load i32, i32* %6, align 4, !tbaa !70
  %8 = icmp sgt i32 %7, 1
  br i1 %8, label %9, label %25

9:                                                ; preds = %5
  %10 = getelementptr inbounds %class.FEI_HYPRE_Impl, %class.FEI_HYPRE_Impl* %0, i64 0, i32 4
  %11 = load %class.FEI_HYPRE_Elem_Block**, %class.FEI_HYPRE_Elem_Block*** %10, align 8
  %12 = zext i32 %7 to i64
  br label %13

13:                                               ; preds = %9, %20
  %14 = phi i64 [ 0, %9 ], [ %21, %20 ]
  %15 = getelementptr inbounds %class.FEI_HYPRE_Elem_Block*, %class.FEI_HYPRE_Elem_Block** %11, i64 %14
  %16 = load %class.FEI_HYPRE_Elem_Block*, %class.FEI_HYPRE_Elem_Block** %15, align 8, !tbaa !13
  %17 = getelementptr inbounds %class.FEI_HYPRE_Elem_Block, %class.FEI_HYPRE_Elem_Block* %16, i64 0, i32 0
  %18 = load i32, i32* %17, align 8, !tbaa !3
  %19 = icmp eq i32 %18, %1
  br i1 %19, label %23, label %20

20:                                               ; preds = %13
  %21 = add nuw nsw i64 %14, 1
  %22 = icmp eq i64 %21, %12
  br i1 %22, label %25, label %13, !llvm.loop !150

23:                                               ; preds = %13
  %24 = trunc i64 %14 to i32
  br label %25

25:                                               ; preds = %23, %20, %5
  %26 = phi i32 [ 0, %5 ], [ %24, %23 ], [ %7, %20 ]
  %27 = getelementptr inbounds %class.FEI_HYPRE_Impl, %class.FEI_HYPRE_Impl* %0, i64 0, i32 4
  %28 = load %class.FEI_HYPRE_Elem_Block**, %class.FEI_HYPRE_Elem_Block*** %27, align 8, !tbaa !72
  %29 = zext i32 %26 to i64
  %30 = getelementptr inbounds %class.FEI_HYPRE_Elem_Block*, %class.FEI_HYPRE_Elem_Block** %28, i64 %29
  %31 = load %class.FEI_HYPRE_Elem_Block*, %class.FEI_HYPRE_Elem_Block** %30, align 8, !tbaa !13
  %32 = call i32 @_ZN20FEI_HYPRE_Elem_Block11loadElemRHSEiPd(%class.FEI_HYPRE_Elem_Block* nonnull align 8 dereferenceable(96) %31, i32 %2, double* %4)
  ret i32 0
}

; Function Attrs: mustprogress uwtable
define dso_local i32 @_ZN14FEI_HYPRE_Impl12loadCompleteEv(%class.FEI_HYPRE_Impl* nonnull align 8 dereferenceable(352) %0) local_unnamed_addr #4 align 2 {
  %2 = alloca i32, align 4
  %3 = alloca %struct.MPI_Status, align 4
  %4 = bitcast i32* %2 to i8*
  call void @llvm.lifetime.start.p0i8(i64 4, i8* nonnull %4) #24
  %5 = bitcast %struct.MPI_Status* %3 to i8*
  call void @llvm.lifetime.start.p0i8(i64 20, i8* nonnull %5) #24
  %6 = getelementptr inbounds %class.FEI_HYPRE_Impl, %class.FEI_HYPRE_Impl* %0, i64 0, i32 2
  %7 = load i32, i32* %6, align 8, !tbaa !68
  %8 = icmp sgt i32 %7, 1
  br i1 %8, label %9, label %13

9:                                                ; preds = %1
  %10 = getelementptr inbounds %class.FEI_HYPRE_Impl, %class.FEI_HYPRE_Impl* %0, i64 0, i32 1
  %11 = load i32, i32* %10, align 4, !tbaa !69
  %12 = call i32 (i8*, ...) @printf(i8* nonnull dereferenceable(1) getelementptr inbounds ([48 x i8], [48 x i8]* @.str.53, i64 0, i64 0), i32 %11)
  br label %13

13:                                               ; preds = %9, %1
  %14 = call double @MPI_Wtime()
  %15 = getelementptr inbounds %class.FEI_HYPRE_Impl, %class.FEI_HYPRE_Impl* %0, i64 0, i32 47
  store double %14, double* %15, align 8, !tbaa !112
  %16 = getelementptr inbounds %class.FEI_HYPRE_Impl, %class.FEI_HYPRE_Impl* %0, i64 0, i32 0
  %17 = load i32, i32* %16, align 8, !tbaa !59
  %18 = call i32 @MPI_Comm_size(i32 %17, i32* nonnull %2)
  %19 = getelementptr inbounds %class.FEI_HYPRE_Impl, %class.FEI_HYPRE_Impl* %0, i64 0, i32 3
  %20 = getelementptr inbounds %class.FEI_HYPRE_Impl, %class.FEI_HYPRE_Impl* %0, i64 0, i32 4
  %21 = load i32, i32* %19, align 4, !tbaa !70
  %22 = icmp sgt i32 %21, 0
  br i1 %22, label %23, label %65

23:                                               ; preds = %13, %60
  %24 = phi i64 [ %61, %60 ], [ 0, %13 ]
  %25 = load %class.FEI_HYPRE_Elem_Block**, %class.FEI_HYPRE_Elem_Block*** %20, align 8, !tbaa !72
  %26 = getelementptr inbounds %class.FEI_HYPRE_Elem_Block*, %class.FEI_HYPRE_Elem_Block** %25, i64 %24
  %27 = load %class.FEI_HYPRE_Elem_Block*, %class.FEI_HYPRE_Elem_Block** %26, align 8, !tbaa !13
  %28 = getelementptr inbounds %class.FEI_HYPRE_Elem_Block, %class.FEI_HYPRE_Elem_Block* %27, i64 0, i32 11
  %29 = load i32, i32* %28, align 4, !tbaa !32
  %30 = getelementptr inbounds %class.FEI_HYPRE_Elem_Block, %class.FEI_HYPRE_Elem_Block* %27, i64 0, i32 1
  %31 = load i32, i32* %30, align 4, !tbaa !9
  %32 = icmp eq i32 %29, %31
  br i1 %32, label %33, label %60

33:                                               ; preds = %23
  %34 = getelementptr inbounds %class.FEI_HYPRE_Elem_Block, %class.FEI_HYPRE_Elem_Block* %27, i64 0, i32 12
  %35 = load double*, double** %34, align 8, !tbaa !25
  %36 = icmp eq double* %35, null
  br i1 %36, label %39, label %37

37:                                               ; preds = %33
  %38 = bitcast double* %35 to i8*
  call void @_ZdaPv(i8* %38) #21
  br label %39

39:                                               ; preds = %37, %33
  %40 = getelementptr inbounds %class.FEI_HYPRE_Elem_Block, %class.FEI_HYPRE_Elem_Block* %27, i64 0, i32 13
  %41 = load double*, double** %40, align 8, !tbaa !26
  %42 = icmp eq double* %41, null
  br i1 %42, label %45, label %43

43:                                               ; preds = %39
  %44 = bitcast double* %41 to i8*
  call void @_ZdaPv(i8* %44) #21
  br label %45

45:                                               ; preds = %43, %39
  %46 = getelementptr inbounds %class.FEI_HYPRE_Elem_Block, %class.FEI_HYPRE_Elem_Block* %27, i64 0, i32 10
  %47 = load i32, i32* %46, align 8, !tbaa !31
  %48 = getelementptr inbounds %class.FEI_HYPRE_Elem_Block, %class.FEI_HYPRE_Elem_Block* %27, i64 0, i32 2
  %49 = load i32, i32* %48, align 8, !tbaa !10
  %50 = mul nsw i32 %49, %47
  %51 = sext i32 %50 to i64
  %52 = call { i64, i1 } @llvm.umul.with.overflow.i64(i64 %51, i64 8)
  %53 = extractvalue { i64, i1 } %52, 1
  %54 = extractvalue { i64, i1 } %52, 0
  %55 = select i1 %53, i64 -1, i64 %54
  %56 = call noalias nonnull i8* @_Znam(i64 %55) #22
  %57 = bitcast double** %34 to i8**
  store i8* %56, i8** %57, align 8, !tbaa !25
  %58 = call noalias nonnull i8* @_Znam(i64 %55) #22
  %59 = bitcast double** %40 to i8**
  store i8* %58, i8** %59, align 8, !tbaa !26
  br label %60

60:                                               ; preds = %23, %45
  %61 = add nuw nsw i64 %24, 1
  %62 = load i32, i32* %19, align 4, !tbaa !70
  %63 = sext i32 %62 to i64
  %64 = icmp slt i64 %61, %63
  br i1 %64, label %23, label %65, !llvm.loop !151

65:                                               ; preds = %60, %13
  %66 = getelementptr inbounds %class.FEI_HYPRE_Impl, %class.FEI_HYPRE_Impl* %0, i64 0, i32 3
  %67 = getelementptr inbounds %class.FEI_HYPRE_Impl, %class.FEI_HYPRE_Impl* %0, i64 0, i32 11
  %68 = load i32, i32* %67, align 8, !tbaa !113
  %69 = icmp sgt i32 %68, 0
  br i1 %69, label %70, label %302

70:                                               ; preds = %65
  %71 = sext i32 %68 to i64
  %72 = call { i64, i1 } @llvm.umul.with.overflow.i64(i64 %71, i64 4)
  %73 = extractvalue { i64, i1 } %72, 1
  %74 = extractvalue { i64, i1 } %72, 0
  %75 = select i1 %73, i64 -1, i64 %74
  %76 = call noalias nonnull i8* @_Znam(i64 %75) #22
  %77 = bitcast i8* %76 to i32*
  %78 = call noalias nonnull i8* @_Znam(i64 %75) #22
  %79 = call { i64, i1 } @llvm.umul.with.overflow.i64(i64 %71, i64 8)
  %80 = extractvalue { i64, i1 } %79, 1
  %81 = extractvalue { i64, i1 } %79, 0
  %82 = select i1 %80, i64 -1, i64 %81
  %83 = call noalias nonnull i8* @_Znam(i64 %82) #22
  %84 = zext i32 %68 to i64
  br label %85

85:                                               ; preds = %70, %85
  %86 = phi i64 [ 0, %70 ], [ %89, %85 ]
  %87 = getelementptr inbounds i32, i32* %77, i64 %86
  %88 = trunc i64 %86 to i32
  store i32 %88, i32* %87, align 4, !tbaa !46
  %89 = add nuw nsw i64 %86, 1
  %90 = icmp eq i64 %89, %84
  br i1 %90, label %91, label %85, !llvm.loop !152

91:                                               ; preds = %85
  %92 = bitcast i8* %78 to i32*
  %93 = bitcast i8* %83 to i32**
  %94 = getelementptr inbounds %class.FEI_HYPRE_Impl, %class.FEI_HYPRE_Impl* %0, i64 0, i32 12
  %95 = load i32*, i32** %94, align 8, !tbaa !114
  %96 = add nsw i32 %68, -1
  call void @_ZN14FEI_HYPRE_Impl8IntSort2EPiS0_ii(i32* %95, i32* nonnull %77, i32 0, i32 %96)
  %97 = load i32, i32* %67, align 8, !tbaa !113
  %98 = getelementptr inbounds %class.FEI_HYPRE_Impl, %class.FEI_HYPRE_Impl* %0, i64 0, i32 14
  %99 = load i32**, i32*** %98, align 8
  %100 = getelementptr inbounds %class.FEI_HYPRE_Impl, %class.FEI_HYPRE_Impl* %0, i64 0, i32 13
  %101 = load i32*, i32** %100, align 8
  %102 = icmp sgt i32 %97, 0
  br i1 %102, label %103, label %105

103:                                              ; preds = %91
  %104 = zext i32 %97 to i64
  br label %110

105:                                              ; preds = %110, %91
  %106 = getelementptr inbounds %class.FEI_HYPRE_Impl, %class.FEI_HYPRE_Impl* %0, i64 0, i32 14
  %107 = getelementptr inbounds %class.FEI_HYPRE_Impl, %class.FEI_HYPRE_Impl* %0, i64 0, i32 13
  %108 = load i32, i32* %67, align 8, !tbaa !113
  %109 = icmp sgt i32 %108, 0
  br i1 %109, label %120, label %137

110:                                              ; preds = %103, %110
  %111 = phi i64 [ 0, %103 ], [ %118, %110 ]
  %112 = getelementptr inbounds i32*, i32** %99, i64 %111
  %113 = load i32*, i32** %112, align 8, !tbaa !13
  %114 = getelementptr inbounds i32*, i32** %93, i64 %111
  store i32* %113, i32** %114, align 8, !tbaa !13
  %115 = getelementptr inbounds i32, i32* %101, i64 %111
  %116 = load i32, i32* %115, align 4, !tbaa !46
  %117 = getelementptr inbounds i32, i32* %92, i64 %111
  store i32 %116, i32* %117, align 4, !tbaa !46
  %118 = add nuw nsw i64 %111, 1
  %119 = icmp eq i64 %118, %104
  br i1 %119, label %105, label %110, !llvm.loop !153

120:                                              ; preds = %105, %120
  %121 = phi i64 [ %133, %120 ], [ 0, %105 ]
  %122 = getelementptr inbounds i32, i32* %77, i64 %121
  %123 = load i32, i32* %122, align 4, !tbaa !46
  %124 = sext i32 %123 to i64
  %125 = getelementptr inbounds i32*, i32** %93, i64 %124
  %126 = load i32*, i32** %125, align 8, !tbaa !13
  %127 = load i32**, i32*** %106, align 8, !tbaa !120
  %128 = getelementptr inbounds i32*, i32** %127, i64 %121
  store i32* %126, i32** %128, align 8, !tbaa !13
  %129 = getelementptr inbounds i32, i32* %92, i64 %124
  %130 = load i32, i32* %129, align 4, !tbaa !46
  %131 = load i32*, i32** %107, align 8, !tbaa !117
  %132 = getelementptr inbounds i32, i32* %131, i64 %121
  store i32 %130, i32* %132, align 4, !tbaa !46
  %133 = add nuw nsw i64 %121, 1
  %134 = load i32, i32* %67, align 8, !tbaa !113
  %135 = sext i32 %134 to i64
  %136 = icmp slt i64 %133, %135
  br i1 %136, label %120, label %137, !llvm.loop !154

137:                                              ; preds = %120, %105
  call void @_ZdaPv(i8* %83) #21
  call void @_ZdaPv(i8* %78) #21
  call void @_ZdaPv(i8* %76) #21
  %138 = getelementptr inbounds %class.FEI_HYPRE_Impl, %class.FEI_HYPRE_Impl* %0, i64 0, i32 14
  %139 = getelementptr inbounds %class.FEI_HYPRE_Impl, %class.FEI_HYPRE_Impl* %0, i64 0, i32 13
  %140 = getelementptr inbounds %class.FEI_HYPRE_Impl, %class.FEI_HYPRE_Impl* %0, i64 0, i32 14
  %141 = getelementptr inbounds %class.FEI_HYPRE_Impl, %class.FEI_HYPRE_Impl* %0, i64 0, i32 13
  %142 = load i32, i32* %67, align 8, !tbaa !113
  %143 = icmp sgt i32 %142, 1
  br i1 %143, label %144, label %246

144:                                              ; preds = %137, %239
  %145 = phi i64 [ %242, %239 ], [ 1, %137 ]
  %146 = phi i32* [ %241, %239 ], [ %92, %137 ]
  %147 = phi i32 [ %240, %239 ], [ 0, %137 ]
  %148 = load i32*, i32** %94, align 8, !tbaa !114
  %149 = getelementptr inbounds i32, i32* %148, i64 %145
  %150 = load i32, i32* %149, align 4, !tbaa !46
  %151 = sext i32 %147 to i64
  %152 = getelementptr inbounds i32, i32* %148, i64 %151
  %153 = load i32, i32* %152, align 4, !tbaa !46
  %154 = icmp eq i32 %150, %153
  br i1 %154, label %155, label %227

155:                                              ; preds = %144
  %156 = load i32**, i32*** %140, align 8, !tbaa !120
  %157 = getelementptr inbounds i32*, i32** %156, i64 %151
  %158 = load i32*, i32** %157, align 8, !tbaa !13
  %159 = load i32*, i32** %141, align 8, !tbaa !117
  %160 = getelementptr inbounds i32, i32* %159, i64 %151
  %161 = load i32, i32* %160, align 4, !tbaa !46
  %162 = getelementptr inbounds i32, i32* %159, i64 %145
  %163 = load i32, i32* %162, align 4, !tbaa !46
  %164 = add nsw i32 %163, %161
  %165 = sext i32 %164 to i64
  %166 = call { i64, i1 } @llvm.umul.with.overflow.i64(i64 %165, i64 4)
  %167 = extractvalue { i64, i1 } %166, 1
  %168 = extractvalue { i64, i1 } %166, 0
  %169 = select i1 %167, i64 -1, i64 %168
  %170 = call noalias nonnull i8* @_Znam(i64 %169) #22
  %171 = bitcast i32** %157 to i8**
  store i8* %170, i8** %171, align 8, !tbaa !13
  %172 = load i32*, i32** %141, align 8, !tbaa !117
  %173 = getelementptr inbounds i32, i32* %172, i64 %151
  %174 = load i32, i32* %173, align 4, !tbaa !46
  %175 = icmp sgt i32 %174, 0
  br i1 %175, label %176, label %180

176:                                              ; preds = %155
  %177 = load i32**, i32*** %140, align 8
  %178 = getelementptr inbounds i32*, i32** %177, i64 %151
  %179 = load i32*, i32** %178, align 8, !tbaa !13
  br label %191

180:                                              ; preds = %191, %155
  %181 = getelementptr inbounds i32, i32* %172, i64 %151
  %182 = getelementptr inbounds i32, i32* %172, i64 %145
  %183 = load i32**, i32*** %140, align 8
  %184 = load i32, i32* %182, align 4, !tbaa !46
  %185 = icmp sgt i32 %184, 0
  br i1 %185, label %186, label %213

186:                                              ; preds = %180
  %187 = getelementptr inbounds i32*, i32** %183, i64 %151
  %188 = getelementptr inbounds i32*, i32** %183, i64 %145
  %189 = load i32*, i32** %188, align 8, !tbaa !13
  %190 = load i32*, i32** %187, align 8, !tbaa !13
  br label %200

191:                                              ; preds = %176, %191
  %192 = phi i64 [ 0, %176 ], [ %196, %191 ]
  %193 = getelementptr inbounds i32, i32* %158, i64 %192
  %194 = load i32, i32* %193, align 4, !tbaa !46
  %195 = getelementptr inbounds i32, i32* %179, i64 %192
  store i32 %194, i32* %195, align 4, !tbaa !46
  %196 = add nuw nsw i64 %192, 1
  %197 = load i32, i32* %173, align 4, !tbaa !46
  %198 = sext i32 %197 to i64
  %199 = icmp slt i64 %196, %198
  br i1 %199, label %191, label %180, !llvm.loop !155

200:                                              ; preds = %186, %200
  %201 = phi i64 [ 0, %186 ], [ %209, %200 ]
  %202 = getelementptr inbounds i32, i32* %189, i64 %201
  %203 = load i32, i32* %202, align 4, !tbaa !46
  %204 = load i32, i32* %181, align 4, !tbaa !46
  %205 = trunc i64 %201 to i32
  %206 = add nsw i32 %204, %205
  %207 = sext i32 %206 to i64
  %208 = getelementptr inbounds i32, i32* %190, i64 %207
  store i32 %203, i32* %208, align 4, !tbaa !46
  %209 = add nuw nsw i64 %201, 1
  %210 = load i32, i32* %182, align 4, !tbaa !46
  %211 = sext i32 %210 to i64
  %212 = icmp slt i64 %209, %211
  br i1 %212, label %200, label %213, !llvm.loop !156

213:                                              ; preds = %200, %180
  %214 = phi i32 [ %184, %180 ], [ %210, %200 ]
  %215 = load i32, i32* %181, align 4, !tbaa !46
  %216 = add nsw i32 %215, %214
  store i32 %216, i32* %181, align 4, !tbaa !46
  %217 = icmp eq i32* %158, null
  br i1 %217, label %220, label %218

218:                                              ; preds = %213
  %219 = bitcast i32* %158 to i8*
  call void @_ZdaPv(i8* %219) #21
  br label %220

220:                                              ; preds = %218, %213
  %221 = load i32**, i32*** %140, align 8, !tbaa !120
  %222 = getelementptr inbounds i32*, i32** %221, i64 %145
  %223 = load i32*, i32** %222, align 8, !tbaa !13
  %224 = icmp eq i32* %223, null
  br i1 %224, label %239, label %225

225:                                              ; preds = %220
  %226 = bitcast i32* %223 to i8*
  call void @_ZdaPv(i8* %226) #21
  br label %239

227:                                              ; preds = %144
  %228 = add nsw i32 %147, 1
  %229 = sext i32 %228 to i64
  %230 = getelementptr inbounds i32, i32* %148, i64 %229
  store i32 %150, i32* %230, align 4, !tbaa !46
  %231 = load i32**, i32*** %138, align 8, !tbaa !120
  %232 = getelementptr inbounds i32*, i32** %231, i64 %145
  %233 = load i32*, i32** %232, align 8, !tbaa !13
  %234 = getelementptr inbounds i32*, i32** %231, i64 %229
  store i32* %233, i32** %234, align 8, !tbaa !13
  %235 = load i32*, i32** %139, align 8, !tbaa !117
  %236 = getelementptr inbounds i32, i32* %235, i64 %145
  %237 = load i32, i32* %236, align 4, !tbaa !46
  %238 = getelementptr inbounds i32, i32* %235, i64 %229
  store i32 %237, i32* %238, align 4, !tbaa !46
  br label %239

239:                                              ; preds = %227, %225, %220
  %240 = phi i32 [ %147, %220 ], [ %147, %225 ], [ %228, %227 ]
  %241 = phi i32* [ %158, %220 ], [ %158, %225 ], [ %146, %227 ]
  %242 = add nuw nsw i64 %145, 1
  %243 = load i32, i32* %67, align 8, !tbaa !113
  %244 = sext i32 %243 to i64
  %245 = icmp slt i64 %242, %244
  br i1 %245, label %144, label %246, !llvm.loop !157

246:                                              ; preds = %239, %137
  %247 = phi i32 [ 0, %137 ], [ %240, %239 ]
  %248 = phi i32* [ %92, %137 ], [ %241, %239 ]
  %249 = phi i32 [ %142, %137 ], [ %243, %239 ]
  %250 = icmp sgt i32 %249, 0
  br i1 %250, label %251, label %253

251:                                              ; preds = %246
  %252 = add nsw i32 %247, 1
  store i32 %252, i32* %67, align 8, !tbaa !113
  br label %253

253:                                              ; preds = %251, %246
  %254 = getelementptr inbounds %class.FEI_HYPRE_Impl, %class.FEI_HYPRE_Impl* %0, i64 0, i32 14
  %255 = getelementptr inbounds %class.FEI_HYPRE_Impl, %class.FEI_HYPRE_Impl* %0, i64 0, i32 13
  %256 = load i32, i32* %67, align 8, !tbaa !113
  %257 = icmp sgt i32 %256, 0
  br i1 %257, label %258, label %302

258:                                              ; preds = %253, %294
  %259 = phi i64 [ %298, %294 ], [ 0, %253 ]
  %260 = load i32**, i32*** %254, align 8, !tbaa !120
  %261 = getelementptr inbounds i32*, i32** %260, i64 %259
  %262 = load i32*, i32** %261, align 8, !tbaa !13
  %263 = load i32*, i32** %255, align 8, !tbaa !117
  %264 = getelementptr inbounds i32, i32* %263, i64 %259
  %265 = load i32, i32* %264, align 4, !tbaa !46
  %266 = add nsw i32 %265, -1
  call void @_ZN14FEI_HYPRE_Impl7IntSortEPiii(%class.FEI_HYPRE_Impl* nonnull align 8 dereferenceable(352) %0, i32* %262, i32 0, i32 %266)
  %267 = load i32*, i32** %255, align 8, !tbaa !117
  %268 = getelementptr inbounds i32, i32* %267, i64 %259
  %269 = load i32, i32* %268, align 4, !tbaa !46
  %270 = icmp sgt i32 %269, 1
  br i1 %270, label %271, label %294

271:                                              ; preds = %258
  %272 = load i32**, i32*** %254, align 8
  %273 = getelementptr inbounds i32*, i32** %272, i64 %259
  %274 = load i32*, i32** %273, align 8, !tbaa !13
  br label %275

275:                                              ; preds = %271, %288
  %276 = phi i64 [ 1, %271 ], [ %290, %288 ]
  %277 = phi i32 [ 0, %271 ], [ %289, %288 ]
  %278 = getelementptr inbounds i32, i32* %274, i64 %276
  %279 = load i32, i32* %278, align 4, !tbaa !46
  %280 = sext i32 %277 to i64
  %281 = getelementptr inbounds i32, i32* %274, i64 %280
  %282 = load i32, i32* %281, align 4, !tbaa !46
  %283 = icmp eq i32 %279, %282
  br i1 %283, label %288, label %284

284:                                              ; preds = %275
  %285 = add nsw i32 %277, 1
  %286 = sext i32 %285 to i64
  %287 = getelementptr inbounds i32, i32* %274, i64 %286
  store i32 %279, i32* %287, align 4, !tbaa !46
  br label %288

288:                                              ; preds = %275, %284
  %289 = phi i32 [ %285, %284 ], [ %277, %275 ]
  %290 = add nuw nsw i64 %276, 1
  %291 = load i32, i32* %268, align 4, !tbaa !46
  %292 = sext i32 %291 to i64
  %293 = icmp slt i64 %290, %292
  br i1 %293, label %275, label %294, !llvm.loop !158

294:                                              ; preds = %288, %258
  %295 = phi i32 [ 0, %258 ], [ %289, %288 ]
  %296 = getelementptr inbounds i32, i32* %267, i64 %259
  %297 = add nsw i32 %295, 1
  store i32 %297, i32* %296, align 4, !tbaa !46
  %298 = add nuw nsw i64 %259, 1
  %299 = load i32, i32* %67, align 8, !tbaa !113
  %300 = sext i32 %299 to i64
  %301 = icmp slt i64 %298, %300
  br i1 %301, label %258, label %302, !llvm.loop !159

302:                                              ; preds = %294, %253, %65
  %303 = phi i32* [ undef, %65 ], [ %77, %253 ], [ %77, %294 ]
  %304 = phi i32* [ undef, %65 ], [ %248, %253 ], [ %248, %294 ]
  %305 = load i32, i32* %66, align 4, !tbaa !70
  %306 = getelementptr inbounds %class.FEI_HYPRE_Impl, %class.FEI_HYPRE_Impl* %0, i64 0, i32 4
  %307 = load %class.FEI_HYPRE_Elem_Block**, %class.FEI_HYPRE_Elem_Block*** %306, align 8
  %308 = icmp sgt i32 %305, 0
  br i1 %308, label %309, label %324

309:                                              ; preds = %302
  %310 = zext i32 %305 to i64
  br label %311

311:                                              ; preds = %309, %311
  %312 = phi i64 [ 0, %309 ], [ %322, %311 ]
  %313 = phi i32 [ 0, %309 ], [ %321, %311 ]
  %314 = getelementptr inbounds %class.FEI_HYPRE_Elem_Block*, %class.FEI_HYPRE_Elem_Block** %307, i64 %312
  %315 = load %class.FEI_HYPRE_Elem_Block*, %class.FEI_HYPRE_Elem_Block** %314, align 8, !tbaa !13
  %316 = getelementptr inbounds %class.FEI_HYPRE_Elem_Block, %class.FEI_HYPRE_Elem_Block* %315, i64 0, i32 1
  %317 = load i32, i32* %316, align 4, !tbaa !9
  %318 = getelementptr inbounds %class.FEI_HYPRE_Elem_Block, %class.FEI_HYPRE_Elem_Block* %315, i64 0, i32 10
  %319 = load i32, i32* %318, align 8, !tbaa !31
  %320 = mul nsw i32 %319, %317
  %321 = add nsw i32 %320, %313
  %322 = add nuw nsw i64 %312, 1
  %323 = icmp eq i64 %322, %310
  br i1 %323, label %324, label %311, !llvm.loop !160

324:                                              ; preds = %311, %302
  %325 = phi i32 [ 0, %302 ], [ %321, %311 ]
  %326 = icmp sgt i32 %325, 0
  br i1 %326, label %327, label %335

327:                                              ; preds = %324
  %328 = sext i32 %325 to i64
  %329 = call { i64, i1 } @llvm.umul.with.overflow.i64(i64 %328, i64 4)
  %330 = extractvalue { i64, i1 } %329, 1
  %331 = extractvalue { i64, i1 } %329, 0
  %332 = select i1 %330, i64 -1, i64 %331
  %333 = call noalias nonnull i8* @_Znam(i64 %332) #22
  %334 = bitcast i8* %333 to i32*
  br label %335

335:                                              ; preds = %327, %324
  %336 = phi i32* [ %334, %327 ], [ %303, %324 ]
  %337 = getelementptr inbounds %class.FEI_HYPRE_Impl, %class.FEI_HYPRE_Impl* %0, i64 0, i32 4
  %338 = load %class.FEI_HYPRE_Elem_Block**, %class.FEI_HYPRE_Elem_Block*** %337, align 8
  %339 = load i32, i32* %66, align 4, !tbaa !70
  %340 = icmp sgt i32 %339, 0
  br i1 %340, label %341, label %385

341:                                              ; preds = %335, %379
  %342 = phi i64 [ %381, %379 ], [ 0, %335 ]
  %343 = phi i32 [ %380, %379 ], [ 0, %335 ]
  %344 = getelementptr inbounds %class.FEI_HYPRE_Elem_Block*, %class.FEI_HYPRE_Elem_Block** %338, i64 %342
  %345 = load %class.FEI_HYPRE_Elem_Block*, %class.FEI_HYPRE_Elem_Block** %344, align 8, !tbaa !13
  %346 = getelementptr inbounds %class.FEI_HYPRE_Elem_Block, %class.FEI_HYPRE_Elem_Block* %345, i64 0, i32 1
  %347 = load i32, i32* %346, align 4, !tbaa !9
  %348 = getelementptr inbounds %class.FEI_HYPRE_Elem_Block, %class.FEI_HYPRE_Elem_Block* %345, i64 0, i32 10
  %349 = load i32, i32* %348, align 8, !tbaa !31
  %350 = getelementptr inbounds %class.FEI_HYPRE_Elem_Block, %class.FEI_HYPRE_Elem_Block* %345, i64 0, i32 4
  %351 = load i32**, i32*** %350, align 8, !tbaa !12
  %352 = icmp sgt i32 %349, 0
  %353 = icmp sgt i32 %347, 0
  br i1 %353, label %354, label %379

354:                                              ; preds = %341
  %355 = zext i32 %347 to i64
  %356 = zext i32 %349 to i64
  br label %357

357:                                              ; preds = %354, %375
  %358 = phi i64 [ 0, %354 ], [ %377, %375 ]
  %359 = phi i32 [ %343, %354 ], [ %376, %375 ]
  br i1 %352, label %360, label %375

360:                                              ; preds = %357
  %361 = getelementptr inbounds i32*, i32** %351, i64 %358
  %362 = load i32*, i32** %361, align 8, !tbaa !13
  %363 = sext i32 %359 to i64
  br label %364

364:                                              ; preds = %360, %364
  %365 = phi i64 [ 0, %360 ], [ %371, %364 ]
  %366 = phi i64 [ %363, %360 ], [ %369, %364 ]
  %367 = getelementptr inbounds i32, i32* %362, i64 %365
  %368 = load i32, i32* %367, align 4, !tbaa !46
  %369 = add nsw i64 %366, 1
  %370 = getelementptr inbounds i32, i32* %336, i64 %366
  store i32 %368, i32* %370, align 4, !tbaa !46
  %371 = add nuw nsw i64 %365, 1
  %372 = icmp eq i64 %371, %356
  br i1 %372, label %373, label %364, !llvm.loop !161

373:                                              ; preds = %364
  %374 = trunc i64 %369 to i32
  br label %375

375:                                              ; preds = %373, %357
  %376 = phi i32 [ %359, %357 ], [ %374, %373 ]
  %377 = add nuw nsw i64 %358, 1
  %378 = icmp eq i64 %377, %355
  br i1 %378, label %379, label %357, !llvm.loop !162

379:                                              ; preds = %375, %341
  %380 = phi i32 [ %343, %341 ], [ %376, %375 ]
  %381 = add nuw nsw i64 %342, 1
  %382 = load i32, i32* %66, align 4, !tbaa !70
  %383 = sext i32 %382 to i64
  %384 = icmp slt i64 %381, %383
  br i1 %384, label %341, label %385, !llvm.loop !163

385:                                              ; preds = %379, %335
  %386 = phi i32 [ 0, %335 ], [ %380, %379 ]
  %387 = icmp sgt i32 %386, 0
  br i1 %387, label %388, label %396

388:                                              ; preds = %385
  %389 = sext i32 %386 to i64
  %390 = call { i64, i1 } @llvm.umul.with.overflow.i64(i64 %389, i64 4)
  %391 = extractvalue { i64, i1 } %390, 1
  %392 = extractvalue { i64, i1 } %390, 0
  %393 = select i1 %391, i64 -1, i64 %392
  %394 = call noalias nonnull i8* @_Znam(i64 %393) #22
  %395 = bitcast i8* %394 to i32*
  br label %396

396:                                              ; preds = %388, %385
  %397 = phi i32* [ %395, %388 ], [ %304, %385 ]
  %398 = icmp sgt i32 %386, 0
  br i1 %398, label %399, label %407

399:                                              ; preds = %396
  %400 = zext i32 %386 to i64
  br label %401

401:                                              ; preds = %399, %401
  %402 = phi i64 [ 0, %399 ], [ %405, %401 ]
  %403 = getelementptr inbounds i32, i32* %397, i64 %402
  %404 = trunc i64 %402 to i32
  store i32 %404, i32* %403, align 4, !tbaa !46
  %405 = add nuw nsw i64 %402, 1
  %406 = icmp eq i64 %405, %400
  br i1 %406, label %407, label %401, !llvm.loop !164

407:                                              ; preds = %401, %396
  %408 = add nsw i32 %386, -1
  call void @_ZN14FEI_HYPRE_Impl8IntSort2EPiS0_ii(i32* %336, i32* %397, i32 0, i32 %408)
  %409 = getelementptr inbounds %class.FEI_HYPRE_Impl, %class.FEI_HYPRE_Impl* %0, i64 0, i32 1
  %410 = getelementptr inbounds %class.FEI_HYPRE_Impl, %class.FEI_HYPRE_Impl* %0, i64 0, i32 13
  %411 = getelementptr inbounds %class.FEI_HYPRE_Impl, %class.FEI_HYPRE_Impl* %0, i64 0, i32 14
  %412 = getelementptr inbounds %class.FEI_HYPRE_Impl, %class.FEI_HYPRE_Impl* %0, i64 0, i32 12
  %413 = load i32, i32* %67, align 8, !tbaa !113
  %414 = icmp sgt i32 %413, 0
  br i1 %414, label %415, label %491

415:                                              ; preds = %407, %486
  %416 = phi i64 [ %487, %486 ], [ 0, %407 ]
  %417 = load i32, i32* %409, align 4, !tbaa !69
  %418 = load i32*, i32** %410, align 8, !tbaa !117
  %419 = getelementptr inbounds i32, i32* %418, i64 %416
  %420 = load i32, i32* %419, align 4, !tbaa !46
  %421 = icmp sgt i32 %420, 0
  br i1 %421, label %422, label %436

422:                                              ; preds = %415
  %423 = load i32**, i32*** %411, align 8
  %424 = getelementptr inbounds i32*, i32** %423, i64 %416
  %425 = load i32*, i32** %424, align 8, !tbaa !13
  %426 = zext i32 %420 to i64
  br label %427

427:                                              ; preds = %422, %427
  %428 = phi i64 [ 0, %422 ], [ %434, %427 ]
  %429 = phi i32 [ %417, %422 ], [ %433, %427 ]
  %430 = getelementptr inbounds i32, i32* %425, i64 %428
  %431 = load i32, i32* %430, align 4, !tbaa !46
  %432 = icmp slt i32 %431, %429
  %433 = select i1 %432, i32 %431, i32 %429
  %434 = add nuw nsw i64 %428, 1
  %435 = icmp eq i64 %434, %426
  br i1 %435, label %436, label %427, !llvm.loop !165

436:                                              ; preds = %427, %415
  %437 = phi i32 [ %417, %415 ], [ %433, %427 ]
  %438 = icmp slt i32 %437, %417
  br i1 %438, label %439, label %486

439:                                              ; preds = %436
  %440 = load i32*, i32** %412, align 8, !tbaa !114
  %441 = getelementptr inbounds i32, i32* %440, i64 %416
  %442 = load i32, i32* %441, align 4, !tbaa !46
  %443 = call i32 @HYPRE_LSI_Search(i32* %336, i32 %442, i32 %386)
  %444 = sext i32 %443 to i64
  %445 = getelementptr inbounds i32, i32* %397, i64 %444
  %446 = load i32, i32* %445, align 4, !tbaa !46
  %447 = icmp sgt i32 %446, -1
  br i1 %447, label %448, label %486

448:                                              ; preds = %439
  %449 = getelementptr inbounds i32, i32* %336, i64 %444
  %450 = icmp sgt i32 %443, 0
  br i1 %450, label %451, label %463

451:                                              ; preds = %448, %458
  %452 = phi i64 [ %453, %458 ], [ %444, %448 ]
  %453 = add nsw i64 %452, -1
  %454 = getelementptr inbounds i32, i32* %336, i64 %453
  %455 = load i32, i32* %454, align 4, !tbaa !46
  %456 = load i32, i32* %449, align 4, !tbaa !46
  %457 = icmp eq i32 %455, %456
  br i1 %457, label %458, label %463

458:                                              ; preds = %451
  %459 = getelementptr inbounds i32, i32* %397, i64 %453
  %460 = load i32, i32* %459, align 4, !tbaa !46
  %461 = xor i32 %460, -1
  store i32 %461, i32* %459, align 4, !tbaa !46
  %462 = icmp sgt i64 %452, 1
  br i1 %462, label %451, label %463, !llvm.loop !166

463:                                              ; preds = %458, %451, %448
  %464 = getelementptr inbounds i32, i32* %336, i64 %444
  %465 = add nsw i32 %443, 1
  %466 = icmp slt i32 %465, %386
  br i1 %466, label %467, label %483

467:                                              ; preds = %463
  %468 = add i32 %443, 1
  %469 = sext i32 %468 to i64
  br label %470

470:                                              ; preds = %467, %476
  %471 = phi i64 [ %469, %467 ], [ %480, %476 ]
  %472 = getelementptr inbounds i32, i32* %336, i64 %471
  %473 = load i32, i32* %472, align 4, !tbaa !46
  %474 = load i32, i32* %464, align 4, !tbaa !46
  %475 = icmp eq i32 %473, %474
  br i1 %475, label %476, label %483

476:                                              ; preds = %470
  %477 = getelementptr inbounds i32, i32* %397, i64 %471
  %478 = load i32, i32* %477, align 4, !tbaa !46
  %479 = xor i32 %478, -1
  store i32 %479, i32* %477, align 4, !tbaa !46
  %480 = add nsw i64 %471, 1
  %481 = trunc i64 %480 to i32
  %482 = icmp eq i32 %386, %481
  br i1 %482, label %483, label %470, !llvm.loop !167

483:                                              ; preds = %476, %470, %463
  %484 = load i32, i32* %445, align 4, !tbaa !46
  %485 = xor i32 %484, -1
  store i32 %485, i32* %445, align 4, !tbaa !46
  br label %486

486:                                              ; preds = %439, %483, %436
  %487 = add nuw nsw i64 %416, 1
  %488 = load i32, i32* %67, align 8, !tbaa !113
  %489 = sext i32 %488 to i64
  %490 = icmp slt i64 %487, %489
  br i1 %490, label %415, label %491, !llvm.loop !168

491:                                              ; preds = %486, %407
  %492 = getelementptr inbounds %class.FEI_HYPRE_Impl, %class.FEI_HYPRE_Impl* %0, i64 0, i32 5
  store i32 0, i32* %492, align 8, !tbaa !127
  %493 = icmp sgt i32 %386, 1
  br i1 %493, label %494, label %517

494:                                              ; preds = %491
  %495 = zext i32 %386 to i64
  br label %496

496:                                              ; preds = %494, %513
  %497 = phi i64 [ 1, %494 ], [ %515, %513 ]
  %498 = phi i32 [ 0, %494 ], [ %514, %513 ]
  %499 = getelementptr inbounds i32, i32* %336, i64 %497
  %500 = load i32, i32* %499, align 4, !tbaa !46
  %501 = add nsw i64 %497, -1
  %502 = getelementptr inbounds i32, i32* %336, i64 %501
  %503 = load i32, i32* %502, align 4, !tbaa !46
  %504 = icmp eq i32 %500, %503
  br i1 %504, label %513, label %505

505:                                              ; preds = %496
  %506 = add nsw i32 %498, 1
  %507 = getelementptr inbounds i32, i32* %397, i64 %497
  %508 = load i32, i32* %507, align 4, !tbaa !46
  %509 = icmp sgt i32 %508, -1
  br i1 %509, label %510, label %513

510:                                              ; preds = %505
  %511 = load i32, i32* %492, align 8, !tbaa !127
  %512 = add nsw i32 %511, 1
  store i32 %512, i32* %492, align 8, !tbaa !127
  br label %513

513:                                              ; preds = %496, %510, %505
  %514 = phi i32 [ %506, %510 ], [ %506, %505 ], [ %498, %496 ]
  %515 = add nuw nsw i64 %497, 1
  %516 = icmp eq i64 %515, %495
  br i1 %516, label %517, label %496, !llvm.loop !169

517:                                              ; preds = %513, %491
  %518 = phi i32 [ 0, %491 ], [ %514, %513 ]
  %519 = zext i1 %387 to i32
  %520 = add nsw i32 %518, %519
  br i1 %387, label %521, label %527

521:                                              ; preds = %517
  %522 = load i32, i32* %397, align 4, !tbaa !46
  %523 = icmp sgt i32 %522, -1
  br i1 %523, label %524, label %527

524:                                              ; preds = %521
  %525 = load i32, i32* %492, align 8, !tbaa !127
  %526 = add nsw i32 %525, 1
  store i32 %526, i32* %492, align 8, !tbaa !127
  br label %527

527:                                              ; preds = %524, %521, %517
  %528 = load i32, i32* %6, align 8, !tbaa !68
  %529 = icmp sgt i32 %528, 1
  br i1 %529, label %530, label %539

530:                                              ; preds = %527
  %531 = getelementptr inbounds %class.FEI_HYPRE_Impl, %class.FEI_HYPRE_Impl* %0, i64 0, i32 1
  %532 = load i32, i32* %531, align 4, !tbaa !69
  %533 = load i32, i32* %492, align 8, !tbaa !127
  %534 = call i32 (i8*, ...) @printf(i8* nonnull dereferenceable(1) getelementptr inbounds ([55 x i8], [55 x i8]* @.str.54, i64 0, i64 0), i32 %532, i32 %533)
  %535 = load i32, i32* %531, align 4, !tbaa !69
  %536 = load i32, i32* %492, align 8, !tbaa !127
  %537 = sub nsw i32 %520, %536
  %538 = call i32 (i8*, ...) @printf(i8* nonnull dereferenceable(1) getelementptr inbounds ([55 x i8], [55 x i8]* @.str.55, i64 0, i64 0), i32 %535, i32 %537)
  br label %539

539:                                              ; preds = %530, %527
  %540 = load i32, i32* %492, align 8, !tbaa !127
  %541 = sub nsw i32 %520, %540
  %542 = getelementptr inbounds %class.FEI_HYPRE_Impl, %class.FEI_HYPRE_Impl* %0, i64 0, i32 6
  store i32 %541, i32* %542, align 4, !tbaa !128
  %543 = sext i32 %520 to i64
  %544 = call { i64, i1 } @llvm.umul.with.overflow.i64(i64 %543, i64 4)
  %545 = extractvalue { i64, i1 } %544, 1
  %546 = extractvalue { i64, i1 } %544, 0
  %547 = select i1 %545, i64 -1, i64 %546
  %548 = call noalias nonnull i8* @_Znam(i64 %547) #22
  %549 = getelementptr inbounds %class.FEI_HYPRE_Impl, %class.FEI_HYPRE_Impl* %0, i64 0, i32 8
  %550 = bitcast i32** %549 to i8**
  store i8* %548, i8** %550, align 8, !tbaa !71
  %551 = bitcast i8* %548 to i32*
  %552 = icmp sgt i32 %386, 0
  br i1 %552, label %553, label %555

553:                                              ; preds = %539
  %554 = zext i32 %386 to i64
  br label %561

555:                                              ; preds = %580, %539
  %556 = phi i32 [ 0, %539 ], [ %582, %580 ]
  %557 = load i32*, i32** %549, align 8
  %558 = icmp sgt i32 %386, 0
  br i1 %558, label %559, label %609

559:                                              ; preds = %555
  %560 = zext i32 %386 to i64
  br label %585

561:                                              ; preds = %553, %580
  %562 = phi i64 [ 0, %553 ], [ %583, %580 ]
  %563 = phi i32 [ 0, %553 ], [ %582, %580 ]
  %564 = phi i32 [ -1, %553 ], [ %581, %580 ]
  %565 = getelementptr inbounds i32, i32* %397, i64 %562
  %566 = load i32, i32* %565, align 4, !tbaa !46
  %567 = icmp sgt i32 %566, -1
  br i1 %567, label %568, label %580

568:                                              ; preds = %561
  %569 = getelementptr inbounds i32, i32* %336, i64 %562
  %570 = load i32, i32* %569, align 4, !tbaa !46
  %571 = icmp eq i32 %570, %564
  br i1 %571, label %576, label %572

572:                                              ; preds = %568
  %573 = add nsw i32 %563, 1
  %574 = sext i32 %563 to i64
  %575 = getelementptr inbounds i32, i32* %551, i64 %574
  store i32 %570, i32* %575, align 4, !tbaa !46
  store i32 %563, i32* %569, align 4, !tbaa !46
  br label %580

576:                                              ; preds = %568
  br i1 %567, label %577, label %580

577:                                              ; preds = %576
  %578 = add nsw i32 %563, -1
  %579 = getelementptr inbounds i32, i32* %336, i64 %562
  store i32 %578, i32* %579, align 4, !tbaa !46
  br label %580

580:                                              ; preds = %561, %572, %577, %576
  %581 = phi i32 [ %570, %572 ], [ %564, %577 ], [ %564, %576 ], [ %564, %561 ]
  %582 = phi i32 [ %573, %572 ], [ %563, %577 ], [ %563, %576 ], [ %563, %561 ]
  %583 = add nuw nsw i64 %562, 1
  %584 = icmp eq i64 %583, %554
  br i1 %584, label %555, label %561, !llvm.loop !170

585:                                              ; preds = %559, %604
  %586 = phi i64 [ 0, %559 ], [ %607, %604 ]
  %587 = phi i32 [ %556, %559 ], [ %606, %604 ]
  %588 = phi i32 [ -1, %559 ], [ %605, %604 ]
  %589 = getelementptr inbounds i32, i32* %397, i64 %586
  %590 = load i32, i32* %589, align 4, !tbaa !46
  %591 = icmp slt i32 %590, 0
  br i1 %591, label %592, label %604

592:                                              ; preds = %585
  %593 = getelementptr inbounds i32, i32* %336, i64 %586
  %594 = load i32, i32* %593, align 4, !tbaa !46
  %595 = icmp eq i32 %594, %588
  br i1 %595, label %600, label %596

596:                                              ; preds = %592
  %597 = add nsw i32 %587, 1
  %598 = sext i32 %587 to i64
  %599 = getelementptr inbounds i32, i32* %557, i64 %598
  store i32 %594, i32* %599, align 4, !tbaa !46
  store i32 %587, i32* %593, align 4, !tbaa !46
  br label %604

600:                                              ; preds = %592
  br i1 %591, label %601, label %604

601:                                              ; preds = %600
  %602 = add nsw i32 %587, -1
